	.file	"chunk.c"
# GNU C17 (Ubuntu 13.3.0-6ubuntu2~24.04.1) version 13.3.0 (x86_64-linux-gnu)
#	compiled by GNU C version 13.3.0, GMP version 6.3.0, MPFR version 4.2.1, MPC version 1.3.1, isl version isl-0.26-GMP

# GGC heuristics: --param ggc-min-expand=100 --param ggc-min-heapsize=131072
# options passed: -mtune=generic -march=x86-64 -g -O2 -fasynchronous-unwind-tables -fstack-protector-strong -fstack-clash-protection -fcf-protection
	.text
.Ltext0:
	.file 0 "/home/dev/Project/socket" "chunk.c"
	.p2align 4
	.globl	hash_bytes
	.type	hash_bytes, @function
hash_bytes:
.LVL0:
.LFB78:
	.file 1 "chunk.c"
	.loc 1 11 69 view -0
	.cfi_startproc
	.loc 1 11 69 is_stmt 0 view .LVU1
	endbr64	
	.loc 1 12 5 is_stmt 1 view .LVU2
	jmp	sha256_oneshot@PLT	#
.LVL1:
	.loc 1 12 5 is_stmt 0 view .LVU3
	.cfi_endproc
.LFE78:
	.size	hash_bytes, .-hash_bytes
	.section	.rodata.str1.1,"aMS",@progbits,1
.LC0:
	.string	"%s"
	.text
	.p2align 4
	.globl	hash_file
	.type	hash_file, @function
hash_file:
.LVL2:
.LFB79:
	.loc 1 15 51 is_stmt 1 view -0
	.cfi_startproc
	.loc 1 15 51 is_stmt 0 view .LVU5
	endbr64	
	pushq	%r15	#
	.cfi_def_cfa_offset 16
	.cfi_offset 15, -16
	pushq	%r14	#
	.cfi_def_cfa_offset 24
	.cfi_offset 14, -24
	pushq	%r13	#
	.cfi_def_cfa_offset 32
	.cfi_offset 13, -32
	movq	%rsi, %r13	# tmp153, out
.LBB16:
.LBB17:
# /usr/include/x86_64-linux-gnu/bits/fcntl2.h:53:       return __open_alias (__path, __oflag, __va_arg_pack ());
	.file 2 "/usr/include/x86_64-linux-gnu/bits/fcntl2.h"
	.loc 2 53 14 view .LVU6
	xorl	%esi, %esi	#
.LVL3:
	.loc 2 53 14 view .LVU7
.LBE17:
.LBE16:
# chunk.c:15: int hash_file(const char *path, file_meta_t *out) {
	.loc 1 15 51 view .LVU8
	pushq	%r12	#
	.cfi_def_cfa_offset 40
	.cfi_offset 12, -40
	pushq	%rbp	#
	.cfi_def_cfa_offset 48
	.cfi_offset 6, -48
	pushq	%rbx	#
	.cfi_def_cfa_offset 56
	.cfi_offset 3, -56
	movq	%rdi, %rbx	# tmp152, path
	subq	$296, %rsp	#,
	.cfi_def_cfa_offset 352
# chunk.c:15: int hash_file(const char *path, file_meta_t *out) {
	.loc 1 15 51 view .LVU9
	movq	%fs:40, %rax	# MEM[(<address-space-1> long unsigned int *)40B], tmp161
	movq	%rax, 280(%rsp)	# tmp161, D.6350
	xorl	%eax, %eax	# tmp161
	.loc 1 16 5 is_stmt 1 view .LVU10
.LVL4:
.LBB19:
.LBI16:
	.loc 2 41 1 view .LVU11
.LBB18:
	.loc 2 43 3 view .LVU12
	.loc 2 46 3 view .LVU13
	.loc 2 48 7 view .LVU14
	.loc 2 53 7 view .LVU15
# /usr/include/x86_64-linux-gnu/bits/fcntl2.h:53:       return __open_alias (__path, __oflag, __va_arg_pack ());
	.loc 2 53 14 is_stmt 0 view .LVU16
	call	open@PLT	#
.LVL5:
	.loc 2 53 14 view .LVU17
.LBE18:
.LBE19:
	.loc 1 17 5 is_stmt 1 view .LVU18
# chunk.c:17:     if (fd < 0) return -1;
	.loc 1 17 8 is_stmt 0 view .LVU19
	testl	%eax, %eax	# _75
	js	.L4	#,
# chunk.c:19:     if (fstat(fd, &st) < 0) { close(fd); return -1; }
	.loc 1 19 9 view .LVU20
	leaq	128(%rsp), %rsi	#, tmp123
	movl	%eax, %edi	# _75,
	movl	%eax, %ebp	# tmp154, _75
	.loc 1 18 5 is_stmt 1 view .LVU21
	.loc 1 19 5 view .LVU22
# chunk.c:19:     if (fstat(fd, &st) < 0) { close(fd); return -1; }
	.loc 1 19 9 is_stmt 0 view .LVU23
	call	fstat@PLT	#
.LVL6:
# chunk.c:19:     if (fstat(fd, &st) < 0) { close(fd); return -1; }
	.loc 1 19 8 discriminator 1 view .LVU24
	testl	%eax, %eax	# tmp155
	js	.L30	#,
	.loc 1 21 5 is_stmt 1 view .LVU25
# chunk.c:21:     out->file_size   = (uint64_t)st.st_size;
	.loc 1 21 24 is_stmt 0 view .LVU26
	movq	176(%rsp), %rax	# st.st_size, _3
# chunk.c:26:     const char *bn = strrchr(path, '/');
	.loc 1 26 22 view .LVU27
	movq	%rbx, %rdi	# path,
	movl	$47, %esi	#,
# chunk.c:22:     out->chunk_size  = CHUNK_SIZE;
	.loc 1 22 22 view .LVU28
	movl	$65536, 296(%r13)	#, out_43(D)->chunk_size
# chunk.c:23:     out->chunk_count = (uint32_t)((out->file_size + CHUNK_SIZE - 1) / CHUNK_SIZE);
	.loc 1 23 24 view .LVU29
	leaq	65535(%rax), %rdx	#, tmp124
# chunk.c:21:     out->file_size   = (uint64_t)st.st_size;
	.loc 1 21 22 view .LVU30
	movq	%rax, 288(%r13)	# _3, out_43(D)->file_size
	.loc 1 22 5 is_stmt 1 view .LVU31
	.loc 1 23 5 view .LVU32
	.loc 1 24 5 view .LVU33
# chunk.c:23:     out->chunk_count = (uint32_t)((out->file_size + CHUNK_SIZE - 1) / CHUNK_SIZE);
	.loc 1 23 24 is_stmt 0 view .LVU34
	shrq	$16, %rdx	#, tmp125
	testq	%rax, %rax	# _3
	movl	$0, %eax	#, tmp148
	cmovne	%edx, %eax	# tmp148,, tmp125, _7
	movl	%eax, 300(%r13)	# _7, MEM <struct file_meta_t> [(void *)out_43(D)].chunk_count
	.loc 1 26 5 is_stmt 1 view .LVU35
# chunk.c:26:     const char *bn = strrchr(path, '/');
	.loc 1 26 22 is_stmt 0 view .LVU36
	call	strrchr@PLT	#
.LVL7:
	.loc 1 27 5 is_stmt 1 view .LVU37
.LBB20:
.LBB21:
# /usr/include/x86_64-linux-gnu/bits/stdio2.h:54:   return __builtin___snprintf_chk (__s, __n, __USE_FORTIFY_LEVEL - 1,
	.file 3 "/usr/include/x86_64-linux-gnu/bits/stdio2.h"
	.loc 3 54 10 is_stmt 0 discriminator 1 view .LVU38
	leaq	32(%r13), %rdi	#, tmp126
	movl	$256, %esi	#,
.LBE21:
.LBE20:
# chunk.c:27:     bn = bn ? bn + 1 : path;
	.loc 1 27 22 discriminator 1 view .LVU39
	leaq	1(%rax), %rdx	#, tmp149
	testq	%rax, %rax	# bn
	cmovne	%rdx, %rbx	# tmp149,, path
.LVL8:
	.loc 1 28 5 is_stmt 1 view .LVU40
.LBB23:
.LBI20:
	.loc 3 51 1 view .LVU41
.LBB22:
	.loc 3 54 3 view .LVU42
# /usr/include/x86_64-linux-gnu/bits/stdio2.h:54:   return __builtin___snprintf_chk (__s, __n, __USE_FORTIFY_LEVEL - 1,
	.loc 3 54 10 is_stmt 0 discriminator 1 view .LVU43
	leaq	.LC0(%rip), %rdx	#, tmp127
	xorl	%eax, %eax	#
	movq	%rbx, %rcx	# path,
	call	snprintf@PLT	#
.LVL9:
	.loc 3 54 10 discriminator 1 view .LVU44
.LBE22:
.LBE23:
	.loc 1 30 5 is_stmt 1 view .LVU45
# chunk.c:31:     if (out->chunk_count > 0) {
	.loc 1 31 12 is_stmt 0 view .LVU46
	movl	300(%r13), %edi	# out_43(D)->chunk_count,
# chunk.c:30:     out->chunk_hashes = NULL;
	.loc 1 30 23 view .LVU47
	movq	$0, 304(%r13)	#, out_43(D)->chunk_hashes
	.loc 1 31 5 is_stmt 1 view .LVU48
# chunk.c:31:     if (out->chunk_count > 0) {
	.loc 1 31 8 is_stmt 0 view .LVU49
	testl	%edi, %edi	# _9
	jne	.L31	#,
.L9:
	.loc 1 36 5 is_stmt 1 view .LVU50
	.loc 1 37 5 view .LVU51
	leaq	16(%rsp), %rdi	#, tmp147
	movq	%rdi, 8(%rsp)	# tmp147, %sfp
	call	sha256_init@PLT	#
.LVL10:
	.loc 1 39 5 view .LVU52
# chunk.c:39:     uint8_t *buf = malloc(CHUNK_SIZE);
	.loc 1 39 20 is_stmt 0 view .LVU53
	movl	$65536, %edi	#,
	call	malloc@PLT	#
.LVL11:
	movq	%rax, %rbx	# tmp158, buf
.LVL12:
	.loc 1 40 5 is_stmt 1 view .LVU54
# chunk.c:40:     if (!buf) {
	.loc 1 40 8 is_stmt 0 view .LVU55
	testq	%rax, %rax	# buf
	je	.L29	#,
.LVL13:
.LBB24:
	.loc 1 45 28 is_stmt 1 discriminator 1 view .LVU56
	movl	300(%r13), %eax	# out_43(D)->chunk_count,
.LVL14:
	.loc 1 45 28 is_stmt 0 discriminator 1 view .LVU57
	movq	$0, (%rsp)	#, %sfp
.LBB25:
.LBB26:
.LBB27:
.LBB28:
# /usr/include/x86_64-linux-gnu/bits/unistd.h:28:   return __glibc_fortify (read, __nbytes, sizeof (char),
	.file 4 "/usr/include/x86_64-linux-gnu/bits/unistd.h"
	.loc 4 28 10 discriminator 1 view .LVU58
	movl	$65536, %r12d	#, tmp151
.LBE28:
.LBE27:
.LBE26:
.LBE25:
# chunk.c:45:     for (uint32_t i = 0; i < out->chunk_count; i++) {
	.loc 1 45 28 discriminator 1 view .LVU59
	testl	%eax, %eax	#
	je	.L15	#,
.LVL15:
.L11:
.LBB37:
	.loc 1 46 9 is_stmt 1 view .LVU60
# chunk.c:46:         uint64_t remain = out->file_size - (uint64_t)i * CHUNK_SIZE;
	.loc 1 46 30 is_stmt 0 view .LVU61
	movq	288(%r13), %rdx	# out_43(D)->file_size, _14
	movq	(%rsp), %rax	# %sfp, _77
	movl	$65536, %ecx	#, tmp160
	salq	$16, %rax	#, _77
.LVL16:
	.loc 1 47 9 is_stmt 1 view .LVU62
# chunk.c:46:         uint64_t remain = out->file_size - (uint64_t)i * CHUNK_SIZE;
	.loc 1 46 18 is_stmt 0 view .LVU63
	movq	%rdx, %r9	# _14, remain
	subq	%rax, %r9	# _77, remain
.LVL17:
	.loc 1 46 18 view .LVU64
	cmpq	%rcx, %r9	# tmp160, remain
	cmovbe	%r9, %rcx	# remain,, tmp160
	movq	%rcx, %r14	# tmp160, iftmp.1_34
.LVL18:
	.loc 1 48 9 is_stmt 1 view .LVU65
	.loc 1 49 9 view .LVU66
	.loc 1 49 20 view .LVU67
	cmpq	%rax, %rdx	# _77, _14
	je	.L19	#,
# chunk.c:48:         uint32_t got    = 0;
	.loc 1 48 18 is_stmt 0 view .LVU68
	xorl	%r15d, %r15d	# got
	jmp	.L14	#
.LVL19:
	.p2align 4,,10
	.p2align 3
.L13:
.LBB35:
	.loc 1 56 13 is_stmt 1 view .LVU69
# chunk.c:56:             got += (uint32_t)r;
	.loc 1 56 17 is_stmt 0 view .LVU70
	addl	%eax, %r15d	# iftmp.3_85, got
.LVL20:
	.loc 1 56 17 view .LVU71
.LBE35:
	.loc 1 49 20 is_stmt 1 view .LVU72
	cmpl	%r14d, %r15d	# iftmp.1_34, got
	jnb	.L32	#,
.LVL21:
.L14:
.LBB36:
	.loc 1 50 13 view .LVU73
# chunk.c:50:             ssize_t r = read(fd, buf + got, want - got);
	.loc 1 50 25 is_stmt 0 view .LVU74
	movl	%r15d, %esi	# got, _19
.LVL22:
.LBB32:
.LBI27:
	.loc 4 26 1 is_stmt 1 view .LVU75
.LBB29:
	.loc 4 28 3 view .LVU76
# /usr/include/x86_64-linux-gnu/bits/unistd.h:28:   return __glibc_fortify (read, __nbytes, sizeof (char),
	.loc 4 28 10 is_stmt 0 discriminator 1 view .LVU77
	movq	%r12, %rcx	# tmp151, tmp135
.LBE29:
.LBE32:
# chunk.c:50:             ssize_t r = read(fd, buf + got, want - got);
	.loc 1 50 25 view .LVU78
	movl	%r14d, %edx	# iftmp.1_34, tmp138
.LBB33:
.LBB30:
# /usr/include/x86_64-linux-gnu/bits/unistd.h:28:   return __glibc_fortify (read, __nbytes, sizeof (char),
	.loc 4 28 10 discriminator 1 view .LVU79
	movl	%ebp, %edi	# _75,
	subq	%rsi, %rcx	# _19, tmp135
.LBE30:
.LBE33:
# chunk.c:50:             ssize_t r = read(fd, buf + got, want - got);
	.loc 1 50 25 view .LVU80
	subl	%r15d, %edx	# got, tmp138
.LVL23:
# chunk.c:50:             ssize_t r = read(fd, buf + got, want - got);
	.loc 1 50 38 view .LVU81
	addq	%rbx, %rsi	# buf, tmp139
.LVL24:
.LBB34:
.LBB31:
# /usr/include/x86_64-linux-gnu/bits/unistd.h:28:   return __glibc_fortify (read, __nbytes, sizeof (char),
	.loc 4 28 10 discriminator 1 view .LVU82
	call	__read_chk@PLT	#
.LVL25:
	.loc 4 28 10 discriminator 1 view .LVU83
.LBE31:
.LBE34:
	.loc 1 51 13 is_stmt 1 view .LVU84
# chunk.c:51:             if (r <= 0) {
	.loc 1 51 16 is_stmt 0 view .LVU85
	testq	%rax, %rax	# iftmp.3_85
	jg	.L13	#,
	.loc 1 52 17 is_stmt 1 view .LVU86
	movq	%rbx, %rdi	# buf,
	call	free@PLT	#
.LVL26:
.L29:
	.loc 1 53 17 view .LVU87
	movq	304(%r13), %rdi	# out_43(D)->chunk_hashes, out_43(D)->chunk_hashes
	call	free@PLT	#
.LVL27:
	.loc 1 53 42 discriminator 1 view .LVU88
# chunk.c:54:                 close(fd); return -1;
	.loc 1 54 17 is_stmt 0 view .LVU89
	movl	%ebp, %edi	# _75,
# chunk.c:53:                 free(out->chunk_hashes); out->chunk_hashes = NULL;
	.loc 1 53 60 discriminator 1 view .LVU90
	movq	$0, 304(%r13)	#, out_43(D)->chunk_hashes
	.loc 1 54 17 is_stmt 1 view .LVU91
	call	close@PLT	#
.LVL28:
	.loc 1 54 28 discriminator 1 view .LVU92
.L4:
	.loc 1 54 28 is_stmt 0 discriminator 1 view .LVU93
.LBE36:
.LBE37:
.LBE24:
# chunk.c:17:     if (fd < 0) return -1;
	.loc 1 17 24 discriminator 1 view .LVU94
	movl	$-1, %eax	#, <retval>
.L3:
# chunk.c:65: }
	.loc 1 65 1 view .LVU95
	movq	280(%rsp), %rdx	# D.6350, tmp162
	subq	%fs:40, %rdx	# MEM[(<address-space-1> long unsigned int *)40B], tmp162
	jne	.L33	#,
	addq	$296, %rsp	#,
	.cfi_remember_state
	.cfi_def_cfa_offset 56
	popq	%rbx	#
	.cfi_def_cfa_offset 48
	popq	%rbp	#
	.cfi_def_cfa_offset 40
	popq	%r12	#
	.cfi_def_cfa_offset 32
	popq	%r13	#
	.cfi_def_cfa_offset 24
.LVL29:
	.loc 1 65 1 view .LVU96
	popq	%r14	#
	.cfi_def_cfa_offset 16
	popq	%r15	#
	.cfi_def_cfa_offset 8
	ret	
.LVL30:
	.p2align 4,,10
	.p2align 3
.L32:
	.cfi_restore_state
.LBB41:
.LBB38:
# chunk.c:58:         sha256_oneshot(buf, got, out->chunk_hashes + (size_t)i * HASH_SIZE);
	.loc 1 58 9 view .LVU97
	movl	%r15d, %r8d	# got, _94
.LVL31:
.L12:
	.loc 1 58 9 is_stmt 1 view .LVU98
	movq	(%rsp), %r14	# %sfp, ivtmp.32
	movq	%r8, %rsi	# _94,
	movq	%rbx, %rdi	# buf,
	movq	%r8, (%rsp)	# _94, %sfp
.LVL32:
	.loc 1 58 9 is_stmt 0 view .LVU99
	movq	%r14, %rdx	# ivtmp.32, tmp141
.LBE38:
# chunk.c:45:     for (uint32_t i = 0; i < out->chunk_count; i++) {
	.loc 1 45 28 discriminator 1 view .LVU100
	addq	$1, %r14	#, ivtmp.32
.LBB39:
# chunk.c:58:         sha256_oneshot(buf, got, out->chunk_hashes + (size_t)i * HASH_SIZE);
	.loc 1 58 9 view .LVU101
	salq	$5, %rdx	#, tmp141
	addq	304(%r13), %rdx	# out_43(D)->chunk_hashes, tmp142
	call	sha256_oneshot@PLT	#
.LVL33:
	.loc 1 59 9 is_stmt 1 view .LVU102
	movq	(%rsp), %rdx	# %sfp,
	movq	8(%rsp), %rdi	# %sfp,
	movq	%rbx, %rsi	# buf,
	call	sha256_update@PLT	#
.LVL34:
.LBE39:
	.loc 1 45 49 discriminator 2 view .LVU103
	.loc 1 45 28 discriminator 1 view .LVU104
	movq	%r14, (%rsp)	# ivtmp.32, %sfp
	cmpl	300(%r13), %r14d	# out_43(D)->chunk_count, tmp171
	jb	.L11	#,
.LVL35:
.L15:
	.loc 1 45 28 is_stmt 0 discriminator 1 view .LVU105
.LBE41:
	.loc 1 61 5 is_stmt 1 view .LVU106
	movq	8(%rsp), %rdi	# %sfp,
	movq	%r13, %rsi	# out,
	call	sha256_final@PLT	#
.LVL36:
	.loc 1 62 5 view .LVU107
	movq	%rbx, %rdi	# buf,
	call	free@PLT	#
.LVL37:
	.loc 1 63 5 view .LVU108
	movl	%ebp, %edi	# _75,
	call	close@PLT	#
.LVL38:
	.loc 1 64 5 view .LVU109
# chunk.c:64:     return 0;
	.loc 1 64 12 is_stmt 0 view .LVU110
	xorl	%eax, %eax	# <retval>
	jmp	.L3	#
.LVL39:
	.p2align 4,,10
	.p2align 3
.L31:
	.loc 1 32 9 is_stmt 1 view .LVU111
# chunk.c:32:         out->chunk_hashes = calloc(out->chunk_count, HASH_SIZE);
	.loc 1 32 29 is_stmt 0 view .LVU112
	movl	$32, %esi	#,
	call	calloc@PLT	#
.LVL40:
# chunk.c:32:         out->chunk_hashes = calloc(out->chunk_count, HASH_SIZE);
	.loc 1 32 27 discriminator 1 view .LVU113
	movq	%rax, 304(%r13)	# tmp129, out_43(D)->chunk_hashes
	.loc 1 33 9 is_stmt 1 view .LVU114
# chunk.c:33:         if (!out->chunk_hashes) { close(fd); return -1; }
	.loc 1 33 12 is_stmt 0 view .LVU115
	testq	%rax, %rax	# tmp129
	jne	.L9	#,
.LVL41:
.L30:
	.loc 1 19 31 is_stmt 1 discriminator 1 view .LVU116
	movl	%ebp, %edi	# _75,
	call	close@PLT	#
.LVL42:
	.loc 1 19 42 discriminator 1 view .LVU117
# chunk.c:19:     if (fstat(fd, &st) < 0) { close(fd); return -1; }
	.loc 1 19 49 is_stmt 0 view .LVU118
	jmp	.L4	#
.LVL43:
	.p2align 4,,10
	.p2align 3
.L19:
.LBB42:
.LBB40:
# chunk.c:49:         while (got < want) {
	.loc 1 49 20 view .LVU119
	xorl	%r8d, %r8d	# _94
	jmp	.L12	#
.LVL44:
.L33:
	.loc 1 49 20 view .LVU120
.LBE40:
.LBE42:
# chunk.c:65: }
	.loc 1 65 1 view .LVU121
	call	__stack_chk_fail@PLT	#
.LVL45:
	.cfi_endproc
.LFE79:
	.size	hash_file, .-hash_file
	.p2align 4
	.globl	file_meta_free
	.type	file_meta_free, @function
file_meta_free:
.LVL46:
.LFB80:
	.loc 1 67 37 is_stmt 1 view -0
	.cfi_startproc
	.loc 1 67 37 is_stmt 0 view .LVU123
	endbr64	
	.loc 1 68 5 is_stmt 1 view .LVU124
# chunk.c:68:     if (!m) return;
	.loc 1 68 8 is_stmt 0 view .LVU125
	testq	%rdi, %rdi	# m
	je	.L40	#,
# chunk.c:67: void file_meta_free(file_meta_t *m) {
	.loc 1 67 37 view .LVU126
	pushq	%rbx	#
	.cfi_def_cfa_offset 16
	.cfi_offset 3, -16
	movq	%rdi, %rbx	# tmp85, m
	.loc 1 69 5 is_stmt 1 view .LVU127
	movq	304(%rdi), %rdi	# m_3(D)->chunk_hashes, m_3(D)->chunk_hashes
.LVL47:
	.loc 1 69 5 is_stmt 0 view .LVU128
	call	free@PLT	#
.LVL48:
	.loc 1 70 5 is_stmt 1 view .LVU129
# chunk.c:70:     m->chunk_hashes = NULL;
	.loc 1 70 21 is_stmt 0 view .LVU130
	movq	$0, 304(%rbx)	#, m_3(D)->chunk_hashes
# chunk.c:71: }
	.loc 1 71 1 view .LVU131
	popq	%rbx	#
	.cfi_def_cfa_offset 8
.LVL49:
	.loc 1 71 1 view .LVU132
	ret	
.LVL50:
	.p2align 4,,10
	.p2align 3
.L40:
	.cfi_restore 3
	.loc 1 71 1 view .LVU133
	ret	
	.cfi_endproc
.LFE80:
	.size	file_meta_free, .-file_meta_free
	.p2align 4
	.globl	read_chunk
	.type	read_chunk, @function
read_chunk:
.LVL51:
.LFB81:
	.loc 1 74 69 is_stmt 1 view -0
	.cfi_startproc
	.loc 1 74 69 is_stmt 0 view .LVU135
	endbr64	
	.loc 1 75 5 is_stmt 1 view .LVU136
.LVL52:
.LBB43:
.LBI43:
	.loc 2 41 1 view .LVU137
.LBB44:
	.loc 2 43 3 view .LVU138
	.loc 2 46 3 view .LVU139
	.loc 2 48 7 view .LVU140
	.loc 2 53 7 view .LVU141
.LBE44:
.LBE43:
# chunk.c:74:                uint64_t file_size, uint8_t *buf, uint32_t *out_len) {
	.loc 1 74 69 is_stmt 0 view .LVU142
	pushq	%r15	#
	.cfi_def_cfa_offset 16
	.cfi_offset 15, -16
.LBB48:
.LBB45:
# /usr/include/x86_64-linux-gnu/bits/fcntl2.h:53:       return __open_alias (__path, __oflag, __va_arg_pack ());
	.loc 2 53 14 view .LVU143
	xorl	%eax, %eax	#
.LBE45:
.LBE48:
# chunk.c:74:                uint64_t file_size, uint8_t *buf, uint32_t *out_len) {
	.loc 1 74 69 view .LVU144
	movl	%edx, %r15d	# tmp111, chunk_size
	pushq	%r14	#
	.cfi_def_cfa_offset 24
	.cfi_offset 14, -24
	movq	%r9, %r14	# tmp114, out_len
	pushq	%r13	#
	.cfi_def_cfa_offset 32
	.cfi_offset 13, -32
	movq	%r8, %r13	# tmp113, buf
	pushq	%r12	#
	.cfi_def_cfa_offset 40
	.cfi_offset 12, -40
	pushq	%rbp	#
	.cfi_def_cfa_offset 48
	.cfi_offset 6, -48
	movl	%esi, %ebp	# tmp110,
.LBB49:
.LBB46:
# /usr/include/x86_64-linux-gnu/bits/fcntl2.h:53:       return __open_alias (__path, __oflag, __va_arg_pack ());
	.loc 2 53 14 view .LVU145
	xorl	%esi, %esi	#
.LVL53:
	.loc 2 53 14 view .LVU146
.LBE46:
.LBE49:
# chunk.c:74:                uint64_t file_size, uint8_t *buf, uint32_t *out_len) {
	.loc 1 74 69 view .LVU147
	pushq	%rbx	#
	.cfi_def_cfa_offset 56
	.cfi_offset 3, -56
	movq	%rcx, %rbx	# tmp112, file_size
	subq	$8, %rsp	#,
	.cfi_def_cfa_offset 64
.LBB50:
.LBB47:
# /usr/include/x86_64-linux-gnu/bits/fcntl2.h:53:       return __open_alias (__path, __oflag, __va_arg_pack ());
	.loc 2 53 14 view .LVU148
	call	open@PLT	#
.LVL54:
	.loc 2 53 14 view .LVU149
.LBE47:
.LBE50:
	.loc 1 76 5 is_stmt 1 view .LVU150
# chunk.c:76:     if (fd < 0) return -1;
	.loc 1 76 8 is_stmt 0 view .LVU151
	testl	%eax, %eax	# _31
	js	.L44	#,
	movl	%eax, %r12d	# tmp115, _31
	.loc 1 77 5 is_stmt 1 view .LVU152
# chunk.c:77:     uint64_t off = (uint64_t)idx * chunk_size;
	.loc 1 77 34 is_stmt 0 view .LVU153
	movl	%r15d, %eax	# chunk_size, _2
.LVL55:
# chunk.c:77:     uint64_t off = (uint64_t)idx * chunk_size;
	.loc 1 77 14 view .LVU154
	imulq	%rax, %rbp	# _2, off
.LVL56:
	.loc 1 78 5 is_stmt 1 view .LVU155
# chunk.c:78:     if (off >= file_size) { close(fd); return -1; }
	.loc 1 78 8 is_stmt 0 view .LVU156
	cmpq	%rbx, %rbp	# file_size, off
	jnb	.L55	#,
	.loc 1 79 5 is_stmt 1 view .LVU157
# chunk.c:79:     uint64_t remain = file_size - off;
	.loc 1 79 14 is_stmt 0 view .LVU158
	subq	%rbp, %rbx	# off, remain
.LVL57:
	.loc 1 80 5 is_stmt 1 view .LVU159
# chunk.c:80:     uint32_t want = (remain < chunk_size) ? (uint32_t)remain : chunk_size;
	.loc 1 80 62 is_stmt 0 view .LVU160
	cmpq	%rax, %rbx	# _2, remain
	jnb	.L47	#,
# chunk.c:80:     uint32_t want = (remain < chunk_size) ? (uint32_t)remain : chunk_size;
	.loc 1 80 62 discriminator 1 view .LVU161
	movl	%ebx, %r15d	# remain, chunk_size
.LVL58:
	.loc 1 81 5 is_stmt 1 view .LVU162
	.loc 1 82 5 view .LVU163
	.loc 1 82 16 view .LVU164
.L48:
# chunk.c:74:                uint64_t file_size, uint8_t *buf, uint32_t *out_len) {
	.loc 1 74 69 is_stmt 0 view .LVU165
	xorl	%ebx, %ebx	# got
.LVL59:
	.loc 1 74 69 view .LVU166
	jmp	.L51	#
.LVL60:
	.p2align 4,,10
	.p2align 3
.L50:
.LBB51:
	.loc 1 85 9 is_stmt 1 view .LVU167
# chunk.c:85:         got += (uint32_t)r;
	.loc 1 85 13 is_stmt 0 view .LVU168
	addl	%eax, %ebx	# iftmp.5_38, got
.LVL61:
	.loc 1 85 13 view .LVU169
.LBE51:
	.loc 1 82 16 is_stmt 1 view .LVU170
	cmpl	%r15d, %ebx	# chunk_size, got
	jnb	.L49	#,
.LVL62:
.L51:
.LBB58:
	.loc 1 83 9 view .LVU171
# chunk.c:83:         ssize_t r = pread(fd, buf + got, want - got, (off_t)(off + got));
	.loc 1 83 66 is_stmt 0 view .LVU172
	movl	%ebx, %esi	# got, _4
.LVL63:
.LBB52:
.LBI52:
	.loc 4 36 1 is_stmt 1 view .LVU173
.LBB53:
	.loc 4 38 3 view .LVU174
.LBE53:
.LBE52:
# chunk.c:83:         ssize_t r = pread(fd, buf + got, want - got, (off_t)(off + got));
	.loc 1 83 21 is_stmt 0 view .LVU175
	movl	%r15d, %edx	# chunk_size, tmp106
.LBB56:
.LBB54:
# /usr/include/x86_64-linux-gnu/bits/unistd.h:38:   return __glibc_fortify (pread, __nbytes, sizeof (char),
	.loc 4 38 10 discriminator 7 view .LVU176
	movl	%r12d, %edi	# _31,
.LBE54:
.LBE56:
# chunk.c:83:         ssize_t r = pread(fd, buf + got, want - got, (off_t)(off + got));
	.loc 1 83 66 view .LVU177
	leaq	(%rsi,%rbp), %rcx	#, tmp104
.LVL64:
# chunk.c:83:         ssize_t r = pread(fd, buf + got, want - got, (off_t)(off + got));
	.loc 1 83 21 view .LVU178
	subl	%ebx, %edx	# got, tmp106
.LVL65:
# chunk.c:83:         ssize_t r = pread(fd, buf + got, want - got, (off_t)(off + got));
	.loc 1 83 35 view .LVU179
	addq	%r13, %rsi	# buf, tmp107
.LVL66:
.LBB57:
.LBB55:
# /usr/include/x86_64-linux-gnu/bits/unistd.h:38:   return __glibc_fortify (pread, __nbytes, sizeof (char),
	.loc 4 38 10 discriminator 7 view .LVU180
	call	pread@PLT	#
.LVL67:
	.loc 4 38 10 discriminator 7 view .LVU181
.LBE55:
.LBE57:
	.loc 1 84 9 is_stmt 1 view .LVU182
# chunk.c:84:         if (r <= 0) { close(fd); return -1; }
	.loc 1 84 12 is_stmt 0 view .LVU183
	testq	%rax, %rax	# iftmp.5_38
	jg	.L50	#,
.LVL68:
.L55:
	.loc 1 84 12 view .LVU184
.LBE58:
	.loc 1 78 29 is_stmt 1 discriminator 1 view .LVU185
	movl	%r12d, %edi	# _31,
	call	close@PLT	#
.LVL69:
	.loc 1 78 40 discriminator 1 view .LVU186
.L44:
# chunk.c:90: }
	.loc 1 90 1 is_stmt 0 view .LVU187
	addq	$8, %rsp	#,
	.cfi_remember_state
	.cfi_def_cfa_offset 56
# chunk.c:76:     if (fd < 0) return -1;
	.loc 1 76 24 discriminator 1 view .LVU188
	movl	$-1, %eax	#, <retval>
# chunk.c:90: }
	.loc 1 90 1 view .LVU189
	popq	%rbx	#
	.cfi_def_cfa_offset 48
	popq	%rbp	#
	.cfi_def_cfa_offset 40
	popq	%r12	#
	.cfi_def_cfa_offset 32
	popq	%r13	#
	.cfi_def_cfa_offset 24
.LVL70:
	.loc 1 90 1 view .LVU190
	popq	%r14	#
	.cfi_def_cfa_offset 16
.LVL71:
	.loc 1 90 1 view .LVU191
	popq	%r15	#
	.cfi_def_cfa_offset 8
	ret	
.LVL72:
	.p2align 4,,10
	.p2align 3
.L47:
	.cfi_restore_state
	.loc 1 81 5 is_stmt 1 view .LVU192
	.loc 1 82 5 view .LVU193
	.loc 1 82 16 view .LVU194
	testl	%r15d, %r15d	# chunk_size
	jne	.L48	#,
# chunk.c:81:     uint32_t got = 0;
	.loc 1 81 14 is_stmt 0 view .LVU195
	xorl	%ebx, %ebx	# got
.LVL73:
.L49:
	.loc 1 87 5 is_stmt 1 view .LVU196
# chunk.c:87:     *out_len = got;
	.loc 1 87 14 is_stmt 0 view .LVU197
	movl	%ebx, (%r14)	# got, *out_len_24(D)
	.loc 1 88 5 is_stmt 1 view .LVU198
	movl	%r12d, %edi	# _31,
	call	close@PLT	#
.LVL74:
	.loc 1 89 5 view .LVU199
# chunk.c:90: }
	.loc 1 90 1 is_stmt 0 view .LVU200
	addq	$8, %rsp	#,
	.cfi_def_cfa_offset 56
# chunk.c:89:     return 0;
	.loc 1 89 12 view .LVU201
	xorl	%eax, %eax	# <retval>
# chunk.c:90: }
	.loc 1 90 1 view .LVU202
	popq	%rbx	#
	.cfi_def_cfa_offset 48
	popq	%rbp	#
	.cfi_def_cfa_offset 40
.LVL75:
	.loc 1 90 1 view .LVU203
	popq	%r12	#
	.cfi_def_cfa_offset 32
.LVL76:
	.loc 1 90 1 view .LVU204
	popq	%r13	#
	.cfi_def_cfa_offset 24
.LVL77:
	.loc 1 90 1 view .LVU205
	popq	%r14	#
	.cfi_def_cfa_offset 16
.LVL78:
	.loc 1 90 1 view .LVU206
	popq	%r15	#
	.cfi_def_cfa_offset 8
	ret	
	.cfi_endproc
.LFE81:
	.size	read_chunk, .-read_chunk
	.p2align 4
	.globl	write_chunk
	.type	write_chunk, @function
write_chunk:
.LVL79:
.LFB82:
	.loc 1 93 57 is_stmt 1 view -0
	.cfi_startproc
	.loc 1 93 57 is_stmt 0 view .LVU208
	endbr64	
	.loc 1 94 5 is_stmt 1 view .LVU209
# chunk.c:93:                 const uint8_t *data, uint32_t data_len) {
	.loc 1 93 57 is_stmt 0 view .LVU210
	pushq	%r14	#
	.cfi_def_cfa_offset 16
	.cfi_offset 14, -16
# chunk.c:94:     uint64_t off = (uint64_t)idx * chunk_size;
	.loc 1 94 34 view .LVU211
	movl	%edx, %edx	# tmp109, chunk_size
# chunk.c:93:                 const uint8_t *data, uint32_t data_len) {
	.loc 1 93 57 view .LVU212
	pushq	%r13	#
	.cfi_def_cfa_offset 24
	.cfi_offset 13, -24
	pushq	%r12	#
	.cfi_def_cfa_offset 32
	.cfi_offset 12, -32
	pushq	%rbp	#
	.cfi_def_cfa_offset 40
	.cfi_offset 6, -40
	pushq	%rbx	#
	.cfi_def_cfa_offset 48
	.cfi_offset 3, -48
# chunk.c:94:     uint64_t off = (uint64_t)idx * chunk_size;
	.loc 1 94 20 view .LVU213
	movl	%esi, %ebx	# tmp108, idx
# chunk.c:94:     uint64_t off = (uint64_t)idx * chunk_size;
	.loc 1 94 14 view .LVU214
	imulq	%rdx, %rbx	# chunk_size, off
.LVL80:
	.loc 1 95 5 is_stmt 1 view .LVU215
	.loc 1 96 5 view .LVU216
	.loc 1 96 17 view .LVU217
	testl	%r8d, %r8d	# data_len
	je	.L57	#,
	movl	%edi, %ebp	# tmp107, fd
	movq	%rcx, %r12	# tmp110, data
	movl	%r8d, %r14d	# tmp111, data_len
# chunk.c:95:     uint32_t sent = 0;
	.loc 1 95 14 is_stmt 0 view .LVU218
	xorl	%r13d, %r13d	# sent
	jmp	.L59	#
.LVL81:
	.p2align 4,,10
	.p2align 3
.L66:
.LBB59:
	.loc 1 99 9 is_stmt 1 view .LVU219
# chunk.c:99:         sent += (uint32_t)w;
	.loc 1 99 14 is_stmt 0 view .LVU220
	addl	%eax, %r13d	# w, sent
.LVL82:
	.loc 1 99 14 view .LVU221
.LBE59:
	.loc 1 96 17 is_stmt 1 view .LVU222
	cmpl	%r14d, %r13d	# data_len, sent
	jnb	.L57	#,
.LVL83:
.L59:
.LBB60:
	.loc 1 97 9 view .LVU223
# chunk.c:97:         ssize_t w = pwrite(fd, data + sent, data_len - sent, (off_t)(off + sent));
	.loc 1 97 74 is_stmt 0 view .LVU224
	movl	%r13d, %esi	# sent, _3
# chunk.c:97:         ssize_t w = pwrite(fd, data + sent, data_len - sent, (off_t)(off + sent));
	.loc 1 97 21 view .LVU225
	movl	%r14d, %edx	# data_len, tmp104
	movl	%ebp, %edi	# fd,
# chunk.c:97:         ssize_t w = pwrite(fd, data + sent, data_len - sent, (off_t)(off + sent));
	.loc 1 97 74 view .LVU226
	leaq	(%rsi,%rbx), %rcx	#, tmp102
# chunk.c:97:         ssize_t w = pwrite(fd, data + sent, data_len - sent, (off_t)(off + sent));
	.loc 1 97 21 view .LVU227
	subl	%r13d, %edx	# sent, tmp104
# chunk.c:97:         ssize_t w = pwrite(fd, data + sent, data_len - sent, (off_t)(off + sent));
	.loc 1 97 37 view .LVU228
	addq	%r12, %rsi	# data, tmp105
# chunk.c:97:         ssize_t w = pwrite(fd, data + sent, data_len - sent, (off_t)(off + sent));
	.loc 1 97 21 view .LVU229
	call	pwrite@PLT	#
.LVL84:
	.loc 1 98 9 is_stmt 1 view .LVU230
# chunk.c:98:         if (w <= 0) return -1;
	.loc 1 98 12 is_stmt 0 view .LVU231
	testq	%rax, %rax	# w
	jg	.L66	#,
.LBE60:
# chunk.c:102: }
	.loc 1 102 1 view .LVU232
	popq	%rbx	#
	.cfi_remember_state
	.cfi_def_cfa_offset 40
.LVL85:
.LBB61:
# chunk.c:98:         if (w <= 0) return -1;
	.loc 1 98 28 discriminator 1 view .LVU233
	movl	$-1, %eax	#, <retval>
.LVL86:
	.loc 1 98 28 discriminator 1 view .LVU234
.LBE61:
# chunk.c:102: }
	.loc 1 102 1 view .LVU235
	popq	%rbp	#
	.cfi_def_cfa_offset 32
.LVL87:
	.loc 1 102 1 view .LVU236
	popq	%r12	#
	.cfi_def_cfa_offset 24
.LVL88:
	.loc 1 102 1 view .LVU237
	popq	%r13	#
	.cfi_def_cfa_offset 16
.LVL89:
	.loc 1 102 1 view .LVU238
	popq	%r14	#
	.cfi_def_cfa_offset 8
.LVL90:
	.loc 1 102 1 view .LVU239
	ret	
.LVL91:
	.p2align 4,,10
	.p2align 3
.L57:
	.cfi_restore_state
	.loc 1 102 1 view .LVU240
	popq	%rbx	#
	.cfi_def_cfa_offset 40
.LVL92:
# chunk.c:101:     return 0;
	.loc 1 101 12 view .LVU241
	xorl	%eax, %eax	# <retval>
# chunk.c:102: }
	.loc 1 102 1 view .LVU242
	popq	%rbp	#
	.cfi_def_cfa_offset 32
	popq	%r12	#
	.cfi_def_cfa_offset 24
	popq	%r13	#
	.cfi_def_cfa_offset 16
	popq	%r14	#
	.cfi_def_cfa_offset 8
	ret	
	.cfi_endproc
.LFE82:
	.size	write_chunk, .-write_chunk
	.p2align 4
	.globl	hash_to_hex
	.type	hash_to_hex, @function
hash_to_hex:
.LVL93:
.LFB83:
	.loc 1 104 78 is_stmt 1 view -0
	.cfi_startproc
	.loc 1 104 78 is_stmt 0 view .LVU244
	endbr64	
	.loc 1 105 5 is_stmt 1 view .LVU245
	.loc 1 106 5 view .LVU246
.LBB62:
	.loc 1 106 10 view .LVU247
.LVL94:
	.loc 1 106 23 discriminator 1 view .LVU248
.LBE62:
# chunk.c:104: void hash_to_hex(const uint8_t hash[HASH_SIZE], char out[HASH_SIZE * 2 + 1]) {
	.loc 1 104 78 is_stmt 0 view .LVU249
	xorl	%eax, %eax	# ivtmp.53
	leaq	hexd.0(%rip), %rcx	#, tmp105
.LVL95:
	.p2align 4,,10
	.p2align 3
.L68:
.LBB63:
	.loc 1 107 9 is_stmt 1 view .LVU250
# chunk.c:107:         out[i * 2]     = hexd[hash[i] >> 4];
	.loc 1 107 39 is_stmt 0 view .LVU251
	movzbl	(%rdi,%rax), %edx	# MEM[(const uint8_t *)hash_21(D) + ivtmp.53_32 * 1], tmp94
	shrb	$4, %dl	#, tmp94
# chunk.c:107:         out[i * 2]     = hexd[hash[i] >> 4];
	.loc 1 107 30 view .LVU252
	andl	$15, %edx	#, tmp97
# chunk.c:107:         out[i * 2]     = hexd[hash[i] >> 4];
	.loc 1 107 24 view .LVU253
	movzbl	(%rcx,%rdx), %edx	# hexd[_5], hexd[_5]
	movb	%dl, (%rsi,%rax,2)	# hexd[_5], MEM[(char *)out_19(D) + ivtmp.53_32 * 2]
	.loc 1 108 9 is_stmt 1 view .LVU254
# chunk.c:108:         out[i * 2 + 1] = hexd[hash[i] & 0x0f];
	.loc 1 108 39 is_stmt 0 view .LVU255
	movzbl	(%rdi,%rax), %edx	# MEM[(const uint8_t *)hash_21(D) + ivtmp.53_32 * 1], MEM[(const uint8_t *)hash_21(D) + ivtmp.53_32 * 1]
# chunk.c:108:         out[i * 2 + 1] = hexd[hash[i] & 0x0f];
	.loc 1 108 30 view .LVU256
	andl	$15, %edx	#, tmp103
# chunk.c:108:         out[i * 2 + 1] = hexd[hash[i] & 0x0f];
	.loc 1 108 24 view .LVU257
	movzbl	(%rcx,%rdx), %edx	# hexd[_11], hexd[_11]
	movb	%dl, 1(%rsi,%rax,2)	# hexd[_11], MEM[(char *)out_19(D) + 1B + ivtmp.53_32 * 2]
	.loc 1 106 37 is_stmt 1 discriminator 3 view .LVU258
.LVL96:
	.loc 1 106 23 discriminator 1 view .LVU259
	addq	$1, %rax	#, ivtmp.53
.LVL97:
	.loc 1 106 23 is_stmt 0 discriminator 1 view .LVU260
	cmpq	$32, %rax	#, ivtmp.53
	jne	.L68	#,
.LBE63:
	.loc 1 110 5 is_stmt 1 view .LVU261
# chunk.c:110:     out[HASH_SIZE * 2] = '\0';
	.loc 1 110 24 is_stmt 0 view .LVU262
	movb	$0, 64(%rsi)	#, MEM[(char *)out_19(D) + 64B]
# chunk.c:111: }
	.loc 1 111 1 view .LVU263
	ret	
	.cfi_endproc
.LFE83:
	.size	hash_to_hex, .-hash_to_hex
	.p2align 4
	.globl	hex_to_hash
	.type	hex_to_hash, @function
hex_to_hash:
.LVL98:
.LFB84:
	.loc 1 113 59 is_stmt 1 view -0
	.cfi_startproc
	.loc 1 113 59 is_stmt 0 view .LVU265
	endbr64	
	.loc 1 114 5 is_stmt 1 view .LVU266
# chunk.c:114:     if (!hex || strlen(hex) < HASH_SIZE * 2) return -1;
	.loc 1 114 8 is_stmt 0 view .LVU267
	testq	%rdi, %rdi	# hex
	je	.L94	#,
# chunk.c:113: int hex_to_hash(const char *hex, uint8_t hash[HASH_SIZE]) {
	.loc 1 113 59 view .LVU268
	pushq	%rbp	#
	.cfi_def_cfa_offset 16
	.cfi_offset 6, -16
	movq	%rsi, %rbp	# tmp149, hash
	pushq	%rbx	#
	.cfi_def_cfa_offset 24
	.cfi_offset 3, -24
	movq	%rdi, %rbx	# tmp148, hex
	subq	$8, %rsp	#,
	.cfi_def_cfa_offset 32
# chunk.c:114:     if (!hex || strlen(hex) < HASH_SIZE * 2) return -1;
	.loc 1 114 17 discriminator 2 view .LVU269
	call	strlen@PLT	#
.LVL99:
# chunk.c:114:     if (!hex || strlen(hex) < HASH_SIZE * 2) return -1;
	.loc 1 114 14 discriminator 1 view .LVU270
	cmpq	$63, %rax	#, tmp150
	jbe	.L71	#,
	xorl	%ecx, %ecx	# ivtmp.67
	jmp	.L82	#
.LVL100:
	.p2align 4,,10
	.p2align 3
.L104:
.LBB64:
.LBB65:
	.loc 1 118 35 is_stmt 1 discriminator 1 view .LVU271
# chunk.c:118:         if (c >= '0' && c <= '9') hi = c - '0';
	.loc 1 118 42 is_stmt 0 discriminator 1 view .LVU272
	movsbl	%al, %edx	# c, c
# chunk.c:121:         c = hex[i * 2 + 1];
	.loc 1 121 11 view .LVU273
	movsbl	1(%rbx,%rcx,2), %eax	# MEM[(const char *)hex_38(D) + 1B + ivtmp.67_57 * 2],
.LVL101:
# chunk.c:118:         if (c >= '0' && c <= '9') hi = c - '0';
	.loc 1 118 38 discriminator 1 view .LVU274
	subl	$48, %edx	#, hi
.LVL102:
	.loc 1 121 9 is_stmt 1 view .LVU275
	.loc 1 122 9 view .LVU276
# chunk.c:122:         if (c >= '0' && c <= '9') lo = c - '0';
	.loc 1 122 22 is_stmt 0 view .LVU277
	leal	-48(%rax), %esi	#, tmp125
# chunk.c:122:         if (c >= '0' && c <= '9') lo = c - '0';
	.loc 1 122 12 view .LVU278
	cmpb	$9, %sil	#, tmp125
	ja	.L73	#,
.L76:
	.loc 1 122 35 is_stmt 1 discriminator 1 view .LVU279
# chunk.c:122:         if (c >= '0' && c <= '9') lo = c - '0';
	.loc 1 122 38 is_stmt 0 discriminator 1 view .LVU280
	subl	$48, %eax	#, lo
.LVL103:
	.loc 1 125 9 is_stmt 1 view .LVU281
.L74:
	.loc 1 126 9 view .LVU282
# chunk.c:126:         hash[i] = (uint8_t)((hi << 4) | lo);
	.loc 1 126 39 is_stmt 0 view .LVU283
	sall	$4, %edx	#, tmp145
	orl	%edx, %eax	# tmp145, tmp146
.LVL104:
	.loc 1 126 39 view .LVU284
	movb	%al, 0(%rbp,%rcx)	# tmp146, MEM[(uint8_t *)hash_48(D) + ivtmp.67_57 * 1]
.LBE65:
	.loc 1 115 37 is_stmt 1 discriminator 2 view .LVU285
.LVL105:
	.loc 1 115 23 discriminator 1 view .LVU286
	addq	$1, %rcx	#, ivtmp.67
.LVL106:
	.loc 1 115 23 is_stmt 0 discriminator 1 view .LVU287
	cmpq	$32, %rcx	#, ivtmp.67
	je	.L103	#,
.LVL107:
.L82:
.LBB66:
	.loc 1 116 9 is_stmt 1 view .LVU288
	.loc 1 117 9 view .LVU289
# chunk.c:117:         char c = hex[i * 2];
	.loc 1 117 14 is_stmt 0 view .LVU290
	movzbl	(%rbx,%rcx,2), %eax	# MEM[(const char *)hex_38(D) + ivtmp.67_57 * 2], c
.LVL108:
	.loc 1 118 9 is_stmt 1 view .LVU291
# chunk.c:118:         if (c >= '0' && c <= '9') hi = c - '0';
	.loc 1 118 22 is_stmt 0 view .LVU292
	leal	-48(%rax), %edx	#, tmp123
# chunk.c:118:         if (c >= '0' && c <= '9') hi = c - '0';
	.loc 1 118 12 view .LVU293
	cmpb	$9, %dl	#, tmp123
	jbe	.L104	#,
	.loc 1 119 14 is_stmt 1 view .LVU294
# chunk.c:119:         else if (c >= 'a' && c <= 'f') hi = c - 'a' + 10;
	.loc 1 119 27 is_stmt 0 view .LVU295
	leal	-97(%rax), %edx	#, tmp127
# chunk.c:119:         else if (c >= 'a' && c <= 'f') hi = c - 'a' + 10;
	.loc 1 119 17 view .LVU296
	cmpb	$5, %dl	#, tmp127
	ja	.L75	#,
	.loc 1 119 40 is_stmt 1 discriminator 1 view .LVU297
# chunk.c:119:         else if (c >= 'a' && c <= 'f') hi = c - 'a' + 10;
	.loc 1 119 53 is_stmt 0 discriminator 1 view .LVU298
	movsbl	%al, %edx	# c, c
# chunk.c:121:         c = hex[i * 2 + 1];
	.loc 1 121 11 view .LVU299
	movsbl	1(%rbx,%rcx,2), %eax	# MEM[(const char *)hex_38(D) + 1B + ivtmp.67_57 * 2],
.LVL109:
# chunk.c:119:         else if (c >= 'a' && c <= 'f') hi = c - 'a' + 10;
	.loc 1 119 43 discriminator 1 view .LVU300
	subl	$87, %edx	#, hi
.LVL110:
	.loc 1 121 9 is_stmt 1 view .LVU301
	.loc 1 122 9 view .LVU302
# chunk.c:122:         if (c >= '0' && c <= '9') lo = c - '0';
	.loc 1 122 22 is_stmt 0 view .LVU303
	leal	-48(%rax), %esi	#, tmp129
# chunk.c:122:         if (c >= '0' && c <= '9') lo = c - '0';
	.loc 1 122 12 view .LVU304
	cmpb	$9, %sil	#, tmp129
	jbe	.L76	#,
.L73:
	.loc 1 123 14 is_stmt 1 view .LVU305
# chunk.c:123:         else if (c >= 'a' && c <= 'f') lo = c - 'a' + 10;
	.loc 1 123 27 is_stmt 0 view .LVU306
	leal	-97(%rax), %esi	#, tmp141
# chunk.c:123:         else if (c >= 'a' && c <= 'f') lo = c - 'a' + 10;
	.loc 1 123 17 view .LVU307
	cmpb	$5, %sil	#, tmp141
	ja	.L81	#,
.L105:
	.loc 1 123 40 is_stmt 1 discriminator 1 view .LVU308
# chunk.c:123:         else if (c >= 'a' && c <= 'f') lo = c - 'a' + 10;
	.loc 1 123 43 is_stmt 0 discriminator 1 view .LVU309
	subl	$87, %eax	#, lo
.LVL111:
	.loc 1 125 9 is_stmt 1 view .LVU310
	jmp	.L74	#
.LVL112:
	.p2align 4,,10
	.p2align 3
.L75:
	.loc 1 120 14 view .LVU311
# chunk.c:120:         else if (c >= 'A' && c <= 'F') hi = c - 'A' + 10;
	.loc 1 120 27 is_stmt 0 view .LVU312
	leal	-65(%rax), %edx	#, tmp130
# chunk.c:120:         else if (c >= 'A' && c <= 'F') hi = c - 'A' + 10;
	.loc 1 120 17 view .LVU313
	cmpb	$5, %dl	#, tmp130
	ja	.L78	#,
	.loc 1 120 40 is_stmt 1 discriminator 1 view .LVU314
# chunk.c:120:         else if (c >= 'A' && c <= 'F') hi = c - 'A' + 10;
	.loc 1 120 53 is_stmt 0 discriminator 1 view .LVU315
	movsbl	%al, %edx	# c, c
# chunk.c:121:         c = hex[i * 2 + 1];
	.loc 1 121 11 view .LVU316
	movsbl	1(%rbx,%rcx,2), %eax	# MEM[(const char *)hex_38(D) + 1B + ivtmp.67_57 * 2],
.LVL113:
# chunk.c:120:         else if (c >= 'A' && c <= 'F') hi = c - 'A' + 10;
	.loc 1 120 43 discriminator 1 view .LVU317
	subl	$55, %edx	#, hi
.LVL114:
	.loc 1 121 9 is_stmt 1 view .LVU318
	.loc 1 122 9 view .LVU319
# chunk.c:122:         if (c >= '0' && c <= '9') lo = c - '0';
	.loc 1 122 22 is_stmt 0 view .LVU320
	leal	-48(%rax), %esi	#, tmp132
# chunk.c:122:         if (c >= '0' && c <= '9') lo = c - '0';
	.loc 1 122 12 view .LVU321
	cmpb	$9, %sil	#, tmp132
	jbe	.L76	#,
	.loc 1 123 14 is_stmt 1 view .LVU322
# chunk.c:123:         else if (c >= 'a' && c <= 'f') lo = c - 'a' + 10;
	.loc 1 123 27 is_stmt 0 view .LVU323
	leal	-97(%rax), %esi	#, tmp141
# chunk.c:123:         else if (c >= 'a' && c <= 'f') lo = c - 'a' + 10;
	.loc 1 123 17 view .LVU324
	cmpb	$5, %sil	#, tmp141
	jbe	.L105	#,
.LVL115:
	.p2align 4,,10
	.p2align 3
.L81:
	.loc 1 124 14 is_stmt 1 view .LVU325
# chunk.c:124:         else if (c >= 'A' && c <= 'F') lo = c - 'A' + 10;
	.loc 1 124 27 is_stmt 0 view .LVU326
	leal	-65(%rax), %esi	#, tmp143
# chunk.c:124:         else if (c >= 'A' && c <= 'F') lo = c - 'A' + 10;
	.loc 1 124 17 view .LVU327
	cmpb	$5, %sil	#, tmp143
	ja	.L71	#,
	.loc 1 124 40 is_stmt 1 discriminator 1 view .LVU328
# chunk.c:124:         else if (c >= 'A' && c <= 'F') lo = c - 'A' + 10;
	.loc 1 124 43 is_stmt 0 discriminator 1 view .LVU329
	subl	$55, %eax	#, lo
.LVL116:
	.loc 1 125 9 is_stmt 1 view .LVU330
# chunk.c:125:         if (hi < 0 || lo < 0) return -1;
	.loc 1 125 12 is_stmt 0 view .LVU331
	cmpl	$-1, %edx	#, hi
	jne	.L74	#,
.LVL117:
.L71:
	.loc 1 125 12 view .LVU332
.LBE66:
.LBE64:
# chunk.c:129: }
	.loc 1 129 1 view .LVU333
	addq	$8, %rsp	#,
	.cfi_remember_state
	.cfi_def_cfa_offset 24
# chunk.c:114:     if (!hex || strlen(hex) < HASH_SIZE * 2) return -1;
	.loc 1 114 53 discriminator 3 view .LVU334
	movl	$-1, %eax	#, <retval>
# chunk.c:129: }
	.loc 1 129 1 view .LVU335
	popq	%rbx	#
	.cfi_def_cfa_offset 16
.LVL118:
	.loc 1 129 1 view .LVU336
	popq	%rbp	#
	.cfi_def_cfa_offset 8
.LVL119:
	.loc 1 129 1 view .LVU337
	ret	
.LVL120:
	.p2align 4,,10
	.p2align 3
.L78:
	.cfi_restore_state
.LBB68:
.LBB67:
	.loc 1 121 9 is_stmt 1 view .LVU338
# chunk.c:121:         c = hex[i * 2 + 1];
	.loc 1 121 11 is_stmt 0 view .LVU339
	movsbl	1(%rbx,%rcx,2), %eax	# MEM[(const char *)hex_38(D) + 1B + ivtmp.67_57 * 2],
.LVL121:
	.loc 1 122 9 is_stmt 1 view .LVU340
# chunk.c:122:         if (c >= '0' && c <= '9') lo = c - '0';
	.loc 1 122 22 is_stmt 0 view .LVU341
	leal	-48(%rax), %edx	#, tmp134
# chunk.c:122:         if (c >= '0' && c <= '9') lo = c - '0';
	.loc 1 122 12 view .LVU342
	cmpb	$9, %dl	#, tmp134
	jbe	.L71	#,
	.loc 1 123 14 is_stmt 1 view .LVU343
# chunk.c:123:         else if (c >= 'a' && c <= 'f') lo = c - 'a' + 10;
	.loc 1 123 27 is_stmt 0 view .LVU344
	leal	-97(%rax), %edx	#, tmp138
# chunk.c:123:         else if (c >= 'a' && c <= 'f') lo = c - 'a' + 10;
	.loc 1 123 17 view .LVU345
	cmpb	$5, %dl	#, tmp138
	jbe	.L71	#,
# chunk.c:116:         int hi = -1, lo = -1;
	.loc 1 116 13 view .LVU346
	movl	$-1, %edx	#, hi
	jmp	.L81	#
.LVL122:
	.p2align 4,,10
	.p2align 3
.L103:
	.loc 1 116 13 view .LVU347
.LBE67:
.LBE68:
# chunk.c:129: }
	.loc 1 129 1 view .LVU348
	addq	$8, %rsp	#,
	.cfi_def_cfa_offset 24
# chunk.c:128:     return 0;
	.loc 1 128 12 view .LVU349
	xorl	%eax, %eax	# <retval>
# chunk.c:129: }
	.loc 1 129 1 view .LVU350
	popq	%rbx	#
	.cfi_def_cfa_offset 16
.LVL123:
	.loc 1 129 1 view .LVU351
	popq	%rbp	#
	.cfi_def_cfa_offset 8
.LVL124:
	.loc 1 129 1 view .LVU352
	ret	
.LVL125:
.L94:
	.cfi_restore 3
	.cfi_restore 6
# chunk.c:114:     if (!hex || strlen(hex) < HASH_SIZE * 2) return -1;
	.loc 1 114 53 discriminator 3 view .LVU353
	movl	$-1, %eax	#, <retval>
# chunk.c:129: }
	.loc 1 129 1 view .LVU354
	ret	
	.cfi_endproc
.LFE84:
	.size	hex_to_hash, .-hex_to_hash
	.section	.rodata
	.align 16
	.type	hexd.0, @object
	.size	hexd.0, 17
hexd.0:
	.string	"0123456789abcdef"
	.text
.Letext0:
	.file 5 "/usr/include/x86_64-linux-gnu/bits/types.h"
	.file 6 "/usr/include/x86_64-linux-gnu/bits/stdint-uintn.h"
	.file 7 "/usr/lib/gcc/x86_64-linux-gnu/13/include/stddef.h"
	.file 8 "/usr/include/stdio.h"
	.file 9 "chunk.h"
	.file 10 "sha256.h"
	.file 11 "/usr/include/x86_64-linux-gnu/bits/types/struct_timespec.h"
	.file 12 "/usr/include/x86_64-linux-gnu/bits/struct_stat.h"
	.file 13 "/usr/include/string.h"
	.file 14 "/usr/include/unistd.h"
	.file 15 "/usr/include/x86_64-linux-gnu/bits/unistd-decl.h"
	.file 16 "/usr/include/stdlib.h"
	.file 17 "/usr/include/x86_64-linux-gnu/sys/stat.h"
	.file 18 "<built-in>"
	.section	.note.GNU-stack,"",@progbits
	.section	.note.gnu.property,"a"
	.align 8
	.long	1f - 0f
	.long	4f - 1f
	.long	5
0:
	.string	"GNU"
1:
	.align 8
	.long	0xc0000002
	.long	3f - 2f
2:
	.long	0x3
3:
	.align 8
4:
