	.file	"net.c"
# GNU C17 (Ubuntu 13.3.0-6ubuntu2~24.04.1) version 13.3.0 (x86_64-linux-gnu)
#	compiled by GNU C version 13.3.0, GMP version 6.3.0, MPFR version 4.2.1, MPC version 1.3.1, isl version isl-0.26-GMP

# GGC heuristics: --param ggc-min-expand=100 --param ggc-min-heapsize=131072
# options passed: -mtune=generic -march=x86-64 -g -O2 -fasynchronous-unwind-tables -fstack-protector-strong -fstack-clash-protection -fcf-protection
	.text
.Ltext0:
	.file 0 "/home/dev/Project/socket" "net.c"
	.p2align 4
	.globl	tcp_listen
	.type	tcp_listen, @function
tcp_listen:
.LVL0:
.LFB67:
	.file 1 "net.c"
	.loc 1 12 31 view -0
	.cfi_startproc
	.loc 1 12 31 is_stmt 0 view .LVU1
	endbr64	
	pushq	%rbp	#
	.cfi_def_cfa_offset 16
	.cfi_offset 6, -16
# net.c:13:     int fd = socket(AF_INET, SOCK_STREAM, 0);
	.loc 1 13 14 view .LVU2
	xorl	%edx, %edx	#
# net.c:12: int tcp_listen(uint16_t port) {
	.loc 1 12 31 view .LVU3
	movl	%edi, %ebp	# tmp99, port
# net.c:13:     int fd = socket(AF_INET, SOCK_STREAM, 0);
	.loc 1 13 14 view .LVU4
	movl	$1, %esi	#,
# net.c:12: int tcp_listen(uint16_t port) {
	.loc 1 12 31 view .LVU5
	pushq	%rbx	#
	.cfi_def_cfa_offset 24
	.cfi_offset 3, -24
# net.c:13:     int fd = socket(AF_INET, SOCK_STREAM, 0);
	.loc 1 13 14 view .LVU6
	movl	$2, %edi	#,
.LVL1:
# net.c:12: int tcp_listen(uint16_t port) {
	.loc 1 12 31 view .LVU7
	subq	$56, %rsp	#,
	.cfi_def_cfa_offset 80
# net.c:12: int tcp_listen(uint16_t port) {
	.loc 1 12 31 view .LVU8
	movq	%fs:40, %rax	# MEM[(<address-space-1> long unsigned int *)40B], tmp103
	movq	%rax, 40(%rsp)	# tmp103, D.6222
	xorl	%eax, %eax	# tmp103
	.loc 1 13 5 is_stmt 1 view .LVU9
# net.c:13:     int fd = socket(AF_INET, SOCK_STREAM, 0);
	.loc 1 13 14 is_stmt 0 view .LVU10
	call	socket@PLT	#
.LVL2:
	.loc 1 14 5 is_stmt 1 view .LVU11
# net.c:14:     if (fd < 0) return -1;
	.loc 1 14 8 is_stmt 0 view .LVU12
	testl	%eax, %eax	# <retval>
	js	.L2	#,
# net.c:16:     setsockopt(fd, SOL_SOCKET, SO_REUSEADDR, &opt, sizeof opt);
	.loc 1 16 5 view .LVU13
	movl	$2, %edx	#,
	movl	$1, %esi	#,
	movl	%eax, %edi	# <retval>,
	movl	%eax, %ebx	# tmp100, <retval>
	.loc 1 15 5 is_stmt 1 view .LVU14
# net.c:16:     setsockopt(fd, SOL_SOCKET, SO_REUSEADDR, &opt, sizeof opt);
	.loc 1 16 5 is_stmt 0 view .LVU15
	leaq	12(%rsp), %rcx	#, tmp91
	movl	$4, %r8d	#,
# net.c:15:     int opt = 1;
	.loc 1 15 9 view .LVU16
	movl	$1, 12(%rsp)	#, opt
	.loc 1 16 5 is_stmt 1 view .LVU17
	call	setsockopt@PLT	#
.LVL3:
	.loc 1 17 5 view .LVU18
	.loc 1 18 5 view .LVU19
.LBB29:
.LBI29:
	.file 2 "/usr/include/x86_64-linux-gnu/bits/string_fortified.h"
	.loc 2 57 1 view .LVU20
.LBB30:
	.loc 2 59 3 view .LVU21
.LBE30:
.LBE29:
.LBB34:
.LBB35:
# /usr/include/x86_64-linux-gnu/bits/byteswap.h:37:   return __builtin_bswap16 (__bsx);
	.file 3 "/usr/include/x86_64-linux-gnu/bits/byteswap.h"
	.loc 3 37 10 is_stmt 0 view .LVU22
	movl	%ebp, %edi	# port, _22
.LBE35:
.LBE34:
# net.c:19:     addr.sin_family      = AF_INET;
	.loc 1 19 26 view .LVU23
	movl	$2, %eax	#,
.LBB38:
.LBB31:
# /usr/include/x86_64-linux-gnu/bits/string_fortified.h:59:   return __builtin___memset_chk (__dest, __ch, __len,
	.loc 2 59 10 discriminator 1 view .LVU24
	leaq	16(%rsp), %rsi	#, tmp92
.LVL4:
	.loc 2 59 10 discriminator 1 view .LVU25
.LBE31:
.LBE38:
.LBB39:
.LBB36:
# /usr/include/x86_64-linux-gnu/bits/byteswap.h:37:   return __builtin_bswap16 (__bsx);
	.loc 3 37 10 view .LVU26
	rolw	$8, %di	#, _22
.LBE36:
.LBE39:
# net.c:22:     if (bind(fd, (struct sockaddr *)&addr, sizeof addr) < 0) { close(fd); return -1; }
	.loc 1 22 9 view .LVU27
	movl	$16, %edx	#,
.LBB40:
.LBB32:
# /usr/include/x86_64-linux-gnu/bits/string_fortified.h:59:   return __builtin___memset_chk (__dest, __ch, __len,
	.loc 2 59 10 discriminator 1 view .LVU28
	movq	$0, 20(%rsp)	#, MEM <char[1:12]> [(void *)&addr + 4B]
.LBE32:
.LBE40:
# net.c:21:     addr.sin_port        = htons(port);
	.loc 1 21 26 discriminator 1 view .LVU29
	movw	%di, 18(%rsp)	# _22, addr.sin_port
# net.c:22:     if (bind(fd, (struct sockaddr *)&addr, sizeof addr) < 0) { close(fd); return -1; }
	.loc 1 22 9 view .LVU30
	movl	%ebx, %edi	# <retval>,
.LBB41:
.LBB33:
# /usr/include/x86_64-linux-gnu/bits/string_fortified.h:59:   return __builtin___memset_chk (__dest, __ch, __len,
	.loc 2 59 10 discriminator 1 view .LVU31
	movl	$0, 28(%rsp)	#, MEM <char[1:12]> [(void *)&addr + 4B]
.LVL5:
	.loc 2 59 10 discriminator 1 view .LVU32
.LBE33:
.LBE41:
	.loc 1 19 5 is_stmt 1 view .LVU33
# net.c:19:     addr.sin_family      = AF_INET;
	.loc 1 19 26 is_stmt 0 view .LVU34
	movw	%ax, 16(%rsp)	#, addr.sin_family
	.loc 1 20 5 is_stmt 1 view .LVU35
	.loc 1 21 5 view .LVU36
.LVL6:
.LBB42:
.LBI34:
	.loc 3 34 1 view .LVU37
.LBB37:
	.loc 3 37 3 view .LVU38
	.loc 3 37 3 is_stmt 0 view .LVU39
.LBE37:
.LBE42:
	.loc 1 22 5 is_stmt 1 view .LVU40
# net.c:22:     if (bind(fd, (struct sockaddr *)&addr, sizeof addr) < 0) { close(fd); return -1; }
	.loc 1 22 9 is_stmt 0 view .LVU41
	call	bind@PLT	#
.LVL7:
# net.c:22:     if (bind(fd, (struct sockaddr *)&addr, sizeof addr) < 0) { close(fd); return -1; }
	.loc 1 22 8 discriminator 1 view .LVU42
	testl	%eax, %eax	# tmp101
	js	.L7	#,
	.loc 1 23 5 is_stmt 1 view .LVU43
# net.c:23:     if (listen(fd, 128) < 0) { close(fd); return -1; }
	.loc 1 23 9 is_stmt 0 view .LVU44
	movl	$128, %esi	#,
	movl	%ebx, %edi	# <retval>,
	call	listen@PLT	#
.LVL8:
# net.c:23:     if (listen(fd, 128) < 0) { close(fd); return -1; }
	.loc 1 23 8 discriminator 1 view .LVU45
	testl	%eax, %eax	# tmp102
	js	.L7	#,
.LVL9:
.L1:
# net.c:25: }
	.loc 1 25 1 view .LVU46
	movq	40(%rsp), %rax	# D.6222, tmp104
	subq	%fs:40, %rax	# MEM[(<address-space-1> long unsigned int *)40B], tmp104
	jne	.L9	#,
	addq	$56, %rsp	#,
	.cfi_remember_state
	.cfi_def_cfa_offset 24
	movl	%ebx, %eax	# <retval>,
	popq	%rbx	#
	.cfi_def_cfa_offset 16
	popq	%rbp	#
	.cfi_def_cfa_offset 8
.LVL10:
	.loc 1 25 1 view .LVU47
	ret	
.LVL11:
	.p2align 4,,10
	.p2align 3
.L7:
	.cfi_restore_state
	.loc 1 22 64 is_stmt 1 discriminator 1 view .LVU48
	movl	%ebx, %edi	# <retval>,
	call	close@PLT	#
.LVL12:
	.loc 1 22 75 discriminator 1 view .LVU49
.L2:
# net.c:14:     if (fd < 0) return -1;
	.loc 1 14 24 is_stmt 0 discriminator 1 view .LVU50
	movl	$-1, %ebx	#, <retval>
	jmp	.L1	#
.L9:
# net.c:25: }
	.loc 1 25 1 view .LVU51
	call	__stack_chk_fail@PLT	#
.LVL13:
	.cfi_endproc
.LFE67:
	.size	tcp_listen, .-tcp_listen
	.p2align 4
	.globl	tcp_accept
	.type	tcp_accept, @function
tcp_accept:
.LVL14:
.LFB68:
	.loc 1 27 63 is_stmt 1 view -0
	.cfi_startproc
	.loc 1 27 63 is_stmt 0 view .LVU53
	endbr64	
	pushq	%r12	#
	.cfi_def_cfa_offset 16
	.cfi_offset 12, -16
	movq	%rsi, %r12	# tmp101, out_ip
	pushq	%rbp	#
	.cfi_def_cfa_offset 24
	.cfi_offset 6, -24
	movq	%rdx, %rbp	# tmp102, out_port
	pushq	%rbx	#
	.cfi_def_cfa_offset 32
	.cfi_offset 3, -32
	subq	$48, %rsp	#,
	.cfi_def_cfa_offset 80
# net.c:27: int tcp_accept(int srv, uint32_t *out_ip, uint16_t *out_port) {
	.loc 1 27 63 view .LVU54
	movq	%fs:40, %rax	# MEM[(<address-space-1> long unsigned int *)40B], tmp104
	movq	%rax, 40(%rsp)	# tmp104, D.6229
	xorl	%eax, %eax	# tmp104
	.loc 1 28 5 is_stmt 1 view .LVU55
	.loc 1 29 5 view .LVU56
# net.c:30:     int fd = accept(srv, (struct sockaddr *)&addr, &alen);
	.loc 1 30 14 is_stmt 0 view .LVU57
	leaq	16(%rsp), %rsi	#, tmp93
.LVL15:
	.loc 1 30 14 view .LVU58
	leaq	8(%rsp), %rdx	#, tmp94
.LVL16:
# net.c:29:     socklen_t alen = sizeof addr;
	.loc 1 29 15 view .LVU59
	movl	$16, 8(%rsp)	#, alen
	.loc 1 30 5 is_stmt 1 view .LVU60
# net.c:30:     int fd = accept(srv, (struct sockaddr *)&addr, &alen);
	.loc 1 30 14 is_stmt 0 view .LVU61
	call	accept@PLT	#
.LVL17:
	.loc 1 31 5 is_stmt 1 view .LVU62
# net.c:31:     if (fd < 0) return -1;
	.loc 1 31 8 is_stmt 0 view .LVU63
	testl	%eax, %eax	# <retval>
	js	.L15	#,
	movl	%eax, %ebx	# tmp103, <retval>
	.loc 1 32 5 is_stmt 1 view .LVU64
# net.c:32:     if (out_ip)   *out_ip   = ntohl(addr.sin_addr.s_addr);
	.loc 1 32 8 is_stmt 0 view .LVU65
	testq	%r12, %r12	# out_ip
	je	.L12	#,
	.loc 1 32 19 is_stmt 1 discriminator 1 view .LVU66
.LVL18:
.LBB43:
.LBI43:
	.loc 3 49 1 view .LVU67
.LBB44:
	.loc 3 52 3 view .LVU68
# /usr/include/x86_64-linux-gnu/bits/byteswap.h:52:   return __builtin_bswap32 (__bsx);
	.loc 3 52 10 is_stmt 0 view .LVU69
	movl	20(%rsp), %eax	# addr.sin_addr.s_addr, addr.sin_addr.s_addr
.LVL19:
	.loc 3 52 10 view .LVU70
	bswap	%eax		# _16
.LVL20:
	.loc 3 52 10 view .LVU71
.LBE44:
.LBE43:
# net.c:32:     if (out_ip)   *out_ip   = ntohl(addr.sin_addr.s_addr);
	.loc 1 32 29 discriminator 1 view .LVU72
	movl	%eax, (%r12)	# _16, *out_ip_13(D)
.L12:
	.loc 1 33 5 is_stmt 1 view .LVU73
# net.c:33:     if (out_port) *out_port = ntohs(addr.sin_port);
	.loc 1 33 8 is_stmt 0 view .LVU74
	testq	%rbp, %rbp	# out_port
	je	.L13	#,
	.loc 1 33 19 is_stmt 1 discriminator 1 view .LVU75
.LVL21:
.LBB45:
.LBI45:
	.loc 3 34 1 view .LVU76
.LBB46:
	.loc 3 37 3 view .LVU77
# /usr/include/x86_64-linux-gnu/bits/byteswap.h:37:   return __builtin_bswap16 (__bsx);
	.loc 3 37 10 is_stmt 0 view .LVU78
	movzwl	18(%rsp), %eax	# addr.sin_port, addr.sin_port
	rolw	$8, %ax	#, _24
.LVL22:
	.loc 3 37 10 view .LVU79
.LBE46:
.LBE45:
# net.c:33:     if (out_port) *out_port = ntohs(addr.sin_port);
	.loc 1 33 29 discriminator 1 view .LVU80
	movw	%ax, 0(%rbp)	# _24, *out_port_15(D)
.L13:
	.loc 1 34 5 is_stmt 1 view .LVU81
# net.c:35:     setsockopt(fd, IPPROTO_TCP, TCP_NODELAY, &one, sizeof one);
	.loc 1 35 5 is_stmt 0 view .LVU82
	leaq	12(%rsp), %rcx	#, tmp97
	movl	$4, %r8d	#,
	movl	$1, %edx	#,
	movl	%ebx, %edi	# <retval>,
	movl	$6, %esi	#,
# net.c:34:     int one = 1;
	.loc 1 34 9 view .LVU83
	movl	$1, 12(%rsp)	#, one
	.loc 1 35 5 is_stmt 1 view .LVU84
	call	setsockopt@PLT	#
.LVL23:
	.loc 1 36 5 view .LVU85
.L10:
# net.c:37: }
	.loc 1 37 1 is_stmt 0 view .LVU86
	movq	40(%rsp), %rax	# D.6229, tmp105
	subq	%fs:40, %rax	# MEM[(<address-space-1> long unsigned int *)40B], tmp105
	jne	.L23	#,
	addq	$48, %rsp	#,
	.cfi_remember_state
	.cfi_def_cfa_offset 32
	movl	%ebx, %eax	# <retval>,
	popq	%rbx	#
	.cfi_def_cfa_offset 24
	popq	%rbp	#
	.cfi_def_cfa_offset 16
.LVL24:
	.loc 1 37 1 view .LVU87
	popq	%r12	#
	.cfi_def_cfa_offset 8
.LVL25:
	.loc 1 37 1 view .LVU88
	ret	
.LVL26:
.L15:
	.cfi_restore_state
# net.c:31:     if (fd < 0) return -1;
	.loc 1 31 24 discriminator 1 view .LVU89
	movl	$-1, %ebx	#, <retval>
	jmp	.L10	#
.LVL27:
.L23:
# net.c:37: }
	.loc 1 37 1 view .LVU90
	call	__stack_chk_fail@PLT	#
.LVL28:
	.cfi_endproc
.LFE68:
	.size	tcp_accept, .-tcp_accept
	.p2align 4
	.globl	tcp_connect
	.type	tcp_connect, @function
tcp_connect:
.LVL29:
.LFB69:
	.loc 1 39 45 is_stmt 1 view -0
	.cfi_startproc
	.loc 1 39 45 is_stmt 0 view .LVU92
	endbr64	
	pushq	%r12	#
	.cfi_def_cfa_offset 16
	.cfi_offset 12, -16
# net.c:40:     int fd = socket(AF_INET, SOCK_STREAM, 0);
	.loc 1 40 14 view .LVU93
	xorl	%edx, %edx	#
# net.c:39: int tcp_connect(uint32_t ip, uint16_t port) {
	.loc 1 39 45 view .LVU94
	movl	%edi, %r12d	# tmp100, ip
# net.c:40:     int fd = socket(AF_INET, SOCK_STREAM, 0);
	.loc 1 40 14 view .LVU95
	movl	$2, %edi	#,
.LVL30:
# net.c:39: int tcp_connect(uint32_t ip, uint16_t port) {
	.loc 1 39 45 view .LVU96
	pushq	%rbp	#
	.cfi_def_cfa_offset 24
	.cfi_offset 6, -24
	movl	%esi, %ebp	# tmp101, port
# net.c:40:     int fd = socket(AF_INET, SOCK_STREAM, 0);
	.loc 1 40 14 view .LVU97
	movl	$1, %esi	#,
.LVL31:
# net.c:39: int tcp_connect(uint32_t ip, uint16_t port) {
	.loc 1 39 45 view .LVU98
	pushq	%rbx	#
	.cfi_def_cfa_offset 32
	.cfi_offset 3, -32
	subq	$48, %rsp	#,
	.cfi_def_cfa_offset 80
# net.c:39: int tcp_connect(uint32_t ip, uint16_t port) {
	.loc 1 39 45 view .LVU99
	movq	%fs:40, %rax	# MEM[(<address-space-1> long unsigned int *)40B], tmp104
	movq	%rax, 40(%rsp)	# tmp104, D.6233
	xorl	%eax, %eax	# tmp104
	.loc 1 40 5 is_stmt 1 view .LVU100
# net.c:40:     int fd = socket(AF_INET, SOCK_STREAM, 0);
	.loc 1 40 14 is_stmt 0 view .LVU101
	call	socket@PLT	#
.LVL32:
	.loc 1 41 5 is_stmt 1 view .LVU102
# net.c:41:     if (fd < 0) return -1;
	.loc 1 41 8 is_stmt 0 view .LVU103
	testl	%eax, %eax	# <retval>
	js	.L25	#,
	movl	%eax, %ebx	# tmp102, <retval>
	.loc 1 42 5 is_stmt 1 view .LVU104
	.loc 1 43 5 view .LVU105
.LVL33:
.LBB47:
.LBI47:
	.loc 2 57 1 view .LVU106
.LBB48:
	.loc 2 59 3 view .LVU107
.LBE48:
.LBE47:
# net.c:44:     addr.sin_family      = AF_INET;
	.loc 1 44 26 is_stmt 0 view .LVU108
	movl	$2, %eax	#,
.LVL34:
.LBB51:
.LBB52:
# /usr/include/x86_64-linux-gnu/bits/byteswap.h:52:   return __builtin_bswap32 (__bsx);
	.loc 3 52 10 view .LVU109
	movl	%r12d, %edx	# ip, ip
.LBE52:
.LBE51:
.LBB55:
.LBB49:
# /usr/include/x86_64-linux-gnu/bits/string_fortified.h:59:   return __builtin___memset_chk (__dest, __ch, __len,
	.loc 2 59 10 discriminator 1 view .LVU110
	movq	$0, 24(%rsp)	#, MEM <char[1:8]> [(void *)&addr + 8B]
.LVL35:
	.loc 2 59 10 discriminator 1 view .LVU111
.LBE49:
.LBE55:
	.loc 1 44 5 is_stmt 1 view .LVU112
# net.c:44:     addr.sin_family      = AF_INET;
	.loc 1 44 26 is_stmt 0 view .LVU113
	movw	%ax, 16(%rsp)	#, addr.sin_family
	.loc 1 45 5 is_stmt 1 view .LVU114
.LVL36:
.LBB56:
.LBI51:
	.loc 3 49 1 view .LVU115
.LBB53:
	.loc 3 52 3 view .LVU116
.LBE53:
.LBE56:
.LBB57:
.LBB58:
# /usr/include/x86_64-linux-gnu/bits/byteswap.h:37:   return __builtin_bswap16 (__bsx);
	.loc 3 37 10 is_stmt 0 view .LVU117
	movl	%ebp, %eax	# port, _21
.LBE58:
.LBE57:
.LBB61:
.LBB54:
# /usr/include/x86_64-linux-gnu/bits/byteswap.h:52:   return __builtin_bswap32 (__bsx);
	.loc 3 52 10 view .LVU118
	bswap	%edx		# ip
.LVL37:
	.loc 3 52 10 view .LVU119
.LBE54:
.LBE61:
.LBB62:
.LBB50:
# /usr/include/x86_64-linux-gnu/bits/string_fortified.h:59:   return __builtin___memset_chk (__dest, __ch, __len,
	.loc 2 59 10 discriminator 1 view .LVU120
	leaq	16(%rsp), %rsi	#, tmp92
.LBE50:
.LBE62:
.LBB63:
.LBB59:
# /usr/include/x86_64-linux-gnu/bits/byteswap.h:37:   return __builtin_bswap16 (__bsx);
	.loc 3 37 10 view .LVU121
	rolw	$8, %ax	#, _21
.LBE59:
.LBE63:
# net.c:45:     addr.sin_addr.s_addr = htonl(ip);
	.loc 1 45 26 discriminator 1 view .LVU122
	movl	%edx, 20(%rsp)	# _22, addr.sin_addr.s_addr
	.loc 1 46 5 is_stmt 1 view .LVU123
.LVL38:
.LBB64:
.LBI57:
	.loc 3 34 1 view .LVU124
.LBB60:
	.loc 3 37 3 view .LVU125
	.loc 3 37 3 is_stmt 0 view .LVU126
.LBE60:
.LBE64:
# net.c:47:     if (connect(fd, (struct sockaddr *)&addr, sizeof addr) < 0) {
	.loc 1 47 9 view .LVU127
	movl	%ebx, %edi	# <retval>,
	movl	$16, %edx	#,
# net.c:46:     addr.sin_port        = htons(port);
	.loc 1 46 26 discriminator 1 view .LVU128
	movw	%ax, 18(%rsp)	# _21, addr.sin_port
	.loc 1 47 5 is_stmt 1 view .LVU129
# net.c:47:     if (connect(fd, (struct sockaddr *)&addr, sizeof addr) < 0) {
	.loc 1 47 9 is_stmt 0 view .LVU130
	call	connect@PLT	#
.LVL39:
# net.c:47:     if (connect(fd, (struct sockaddr *)&addr, sizeof addr) < 0) {
	.loc 1 47 8 discriminator 1 view .LVU131
	testl	%eax, %eax	# tmp103
	js	.L30	#,
	.loc 1 50 5 is_stmt 1 view .LVU132
# net.c:51:     setsockopt(fd, IPPROTO_TCP, TCP_NODELAY, &one, sizeof one);
	.loc 1 51 5 is_stmt 0 view .LVU133
	leaq	12(%rsp), %rcx	#, tmp97
	movl	$4, %r8d	#,
	movl	$1, %edx	#,
	movl	%ebx, %edi	# <retval>,
	movl	$6, %esi	#,
# net.c:50:     int one = 1;
	.loc 1 50 9 view .LVU134
	movl	$1, 12(%rsp)	#, one
	.loc 1 51 5 is_stmt 1 view .LVU135
	call	setsockopt@PLT	#
.LVL40:
	.loc 1 52 5 view .LVU136
.L24:
# net.c:53: }
	.loc 1 53 1 is_stmt 0 view .LVU137
	movq	40(%rsp), %rax	# D.6233, tmp105
	subq	%fs:40, %rax	# MEM[(<address-space-1> long unsigned int *)40B], tmp105
	jne	.L31	#,
	addq	$48, %rsp	#,
	.cfi_remember_state
	.cfi_def_cfa_offset 32
	movl	%ebx, %eax	# <retval>,
	popq	%rbx	#
	.cfi_def_cfa_offset 24
	popq	%rbp	#
	.cfi_def_cfa_offset 16
.LVL41:
	.loc 1 53 1 view .LVU138
	popq	%r12	#
	.cfi_def_cfa_offset 8
.LVL42:
	.loc 1 53 1 view .LVU139
	ret	
.LVL43:
.L30:
	.cfi_restore_state
	.loc 1 48 9 is_stmt 1 view .LVU140
	movl	%ebx, %edi	# <retval>,
	call	close@PLT	#
.LVL44:
	.loc 1 48 20 discriminator 1 view .LVU141
.L25:
# net.c:41:     if (fd < 0) return -1;
	.loc 1 41 24 is_stmt 0 discriminator 1 view .LVU142
	movl	$-1, %ebx	#, <retval>
	jmp	.L24	#
.L31:
# net.c:53: }
	.loc 1 53 1 view .LVU143
	call	__stack_chk_fail@PLT	#
.LVL45:
	.cfi_endproc
.LFE69:
	.size	tcp_connect, .-tcp_connect
	.section	.rodata.str1.1,"aMS",@progbits,1
.LC1:
	.string	"%u"
	.text
	.p2align 4
	.globl	tcp_connect_str
	.type	tcp_connect_str, @function
tcp_connect_str:
.LVL46:
.LFB70:
	.loc 1 55 54 is_stmt 1 view -0
	.cfi_startproc
	.loc 1 55 54 is_stmt 0 view .LVU145
	endbr64	
	pushq	%r12	#
	.cfi_def_cfa_offset 16
	.cfi_offset 12, -16
.LBB65:
.LBB66:
# /usr/include/x86_64-linux-gnu/bits/string_fortified.h:59:   return __builtin___memset_chk (__dest, __ch, __len,
	.loc 2 59 10 discriminator 1 view .LVU146
	pxor	%xmm0, %xmm0	# tmp97
.LBE66:
.LBE65:
.LBB70:
.LBB71:
# /usr/include/x86_64-linux-gnu/bits/stdio2.h:54:   return __builtin___snprintf_chk (__s, __n, __USE_FORTIFY_LEVEL - 1,
	.file 4 "/usr/include/x86_64-linux-gnu/bits/stdio2.h"
	.loc 4 54 10 discriminator 1 view .LVU147
	movzwl	%si, %r9d	# tmp111,
	movl	$16, %ecx	#,
.LBE71:
.LBE70:
# net.c:55: int tcp_connect_str(const char *host, uint16_t port) {
	.loc 1 55 54 view .LVU148
	pushq	%rbp	#
	.cfi_def_cfa_offset 24
	.cfi_offset 6, -24
.LBB77:
.LBB72:
# /usr/include/x86_64-linux-gnu/bits/stdio2.h:54:   return __builtin___snprintf_chk (__s, __n, __USE_FORTIFY_LEVEL - 1,
	.loc 4 54 10 discriminator 1 view .LVU149
	movl	$2, %edx	#,
	movl	$16, %esi	#,
.LVL47:
	.loc 4 54 10 discriminator 1 view .LVU150
	leaq	.LC1(%rip), %r8	#,
.LBE72:
.LBE77:
# net.c:55: int tcp_connect_str(const char *host, uint16_t port) {
	.loc 1 55 54 view .LVU151
	pushq	%rbx	#
	.cfi_def_cfa_offset 32
	.cfi_offset 3, -32
	movq	%rdi, %rbx	# tmp110, host
	subq	$96, %rsp	#,
	.cfi_def_cfa_offset 128
# net.c:55: int tcp_connect_str(const char *host, uint16_t port) {
	.loc 1 55 54 view .LVU152
	movq	%fs:40, %rax	# MEM[(<address-space-1> long unsigned int *)40B], tmp115
	movq	%rax, 88(%rsp)	# tmp115, D.6242
	xorl	%eax, %eax	# tmp115
	.loc 1 56 5 is_stmt 1 view .LVU153
# net.c:58:     hints.ai_family   = AF_INET;
	.loc 1 58 23 is_stmt 0 view .LVU154
	movq	.LC0(%rip), %rax	#, tmp98
.LBB78:
.LBB73:
# /usr/include/x86_64-linux-gnu/bits/stdio2.h:54:   return __builtin___snprintf_chk (__s, __n, __USE_FORTIFY_LEVEL - 1,
	.loc 4 54 10 discriminator 1 view .LVU155
	leaq	64(%rsp), %rbp	#, tmp100
.LBE73:
.LBE78:
.LBB79:
.LBB67:
# /usr/include/x86_64-linux-gnu/bits/string_fortified.h:59:   return __builtin___memset_chk (__dest, __ch, __len,
	.loc 2 59 10 discriminator 1 view .LVU156
	movaps	%xmm0, 16(%rsp)	# tmp97, MEM <char[1:48]> [(void *)&hints]
.LBE67:
.LBE79:
.LBB80:
.LBB74:
# /usr/include/x86_64-linux-gnu/bits/stdio2.h:54:   return __builtin___snprintf_chk (__s, __n, __USE_FORTIFY_LEVEL - 1,
	.loc 4 54 10 discriminator 1 view .LVU157
	movq	%rbp, %rdi	# tmp100,
.LVL48:
	.loc 4 54 10 discriminator 1 view .LVU158
.LBE74:
.LBE80:
.LBB81:
.LBB68:
# /usr/include/x86_64-linux-gnu/bits/string_fortified.h:59:   return __builtin___memset_chk (__dest, __ch, __len,
	.loc 2 59 10 discriminator 1 view .LVU159
	leaq	16(%rsp), %r12	#, tmp96
	movaps	%xmm0, 32(%rsp)	# tmp97, MEM <char[1:48]> [(void *)&hints]
.LBE68:
.LBE81:
# net.c:58:     hints.ai_family   = AF_INET;
	.loc 1 58 23 view .LVU160
	movq	%rax, 20(%rsp)	# tmp98, MEM <vector(2) int> [(int *)&hints + 4B]
.LBB82:
.LBB75:
# /usr/include/x86_64-linux-gnu/bits/stdio2.h:54:   return __builtin___snprintf_chk (__s, __n, __USE_FORTIFY_LEVEL - 1,
	.loc 4 54 10 discriminator 1 view .LVU161
	xorl	%eax, %eax	#
.LBE75:
.LBE82:
# net.c:56:     struct addrinfo hints, *res = NULL, *r;
	.loc 1 56 29 view .LVU162
	movq	$0, 8(%rsp)	#, res
	.loc 1 57 5 is_stmt 1 view .LVU163
.LVL49:
.LBB83:
.LBI65:
	.loc 2 57 1 view .LVU164
.LBB69:
	.loc 2 59 3 view .LVU165
# /usr/include/x86_64-linux-gnu/bits/string_fortified.h:59:   return __builtin___memset_chk (__dest, __ch, __len,
	.loc 2 59 10 is_stmt 0 discriminator 1 view .LVU166
	movaps	%xmm0, 48(%rsp)	# tmp97, MEM <char[1:48]> [(void *)&hints]
.LVL50:
	.loc 2 59 10 discriminator 1 view .LVU167
.LBE69:
.LBE83:
	.loc 1 58 5 is_stmt 1 view .LVU168
	.loc 1 59 5 view .LVU169
	.loc 1 60 5 view .LVU170
	.loc 1 61 5 view .LVU171
.LBB84:
.LBI70:
	.loc 4 51 1 view .LVU172
.LBB76:
	.loc 4 54 3 view .LVU173
# /usr/include/x86_64-linux-gnu/bits/stdio2.h:54:   return __builtin___snprintf_chk (__s, __n, __USE_FORTIFY_LEVEL - 1,
	.loc 4 54 10 is_stmt 0 discriminator 1 view .LVU174
	call	__snprintf_chk@PLT	#
.LVL51:
	.loc 4 54 10 discriminator 1 view .LVU175
.LBE76:
.LBE84:
	.loc 1 62 5 is_stmt 1 view .LVU176
# net.c:62:     if (getaddrinfo(host, portstr, &hints, &res) != 0) return -1;
	.loc 1 62 9 is_stmt 0 view .LVU177
	leaq	8(%rsp), %rcx	#, tmp101
	movq	%r12, %rdx	# tmp96,
	movq	%rbp, %rsi	# tmp100,
	movq	%rbx, %rdi	# host,
	call	getaddrinfo@PLT	#
.LVL52:
# net.c:62:     if (getaddrinfo(host, portstr, &hints, &res) != 0) return -1;
	.loc 1 62 8 discriminator 1 view .LVU178
	testl	%eax, %eax	# tmp112
	jne	.L39	#,
	.loc 1 63 5 is_stmt 1 view .LVU179
.LVL53:
	.loc 1 64 5 view .LVU180
# net.c:64:     for (r = res; r; r = r->ai_next) {
	.loc 1 64 12 is_stmt 0 view .LVU181
	movq	8(%rsp), %rbx	# res, r
.LVL54:
	.loc 1 64 19 is_stmt 1 discriminator 1 view .LVU182
	testq	%rbx, %rbx	# r
	je	.L40	#,
.LVL55:
	.p2align 4,,10
	.p2align 3
.L37:
	.loc 1 65 9 view .LVU183
# net.c:65:         fd = socket(r->ai_family, r->ai_socktype, 0);
	.loc 1 65 14 is_stmt 0 view .LVU184
	movl	8(%rbx), %esi	# r_44->ai_socktype, r_44->ai_socktype
	movl	4(%rbx), %edi	# r_44->ai_family, r_44->ai_family
	xorl	%edx, %edx	#
	call	socket@PLT	#
.LVL56:
	movl	%eax, %ebp	# tmp113, <retval>
.LVL57:
	.loc 1 66 9 is_stmt 1 view .LVU185
# net.c:66:         if (fd < 0) continue;
	.loc 1 66 12 is_stmt 0 view .LVU186
	testl	%eax, %eax	# <retval>
	js	.L35	#,
	.loc 1 67 9 is_stmt 1 view .LVU187
# net.c:67:         if (connect(fd, r->ai_addr, r->ai_addrlen) == 0) {
	.loc 1 67 13 is_stmt 0 view .LVU188
	movl	16(%rbx), %edx	# r_44->ai_addrlen, _5
	movq	24(%rbx), %rsi	# r_44->ai_addr, D.6158
	movl	%eax, %edi	# <retval>,
	call	connect@PLT	#
.LVL58:
# net.c:67:         if (connect(fd, r->ai_addr, r->ai_addrlen) == 0) {
	.loc 1 67 12 discriminator 1 view .LVU189
	testl	%eax, %eax	# tmp114
	je	.L43	#,
	.loc 1 72 9 is_stmt 1 view .LVU190
	movl	%ebp, %edi	# <retval>,
# net.c:72:         close(fd); fd = -1;
	.loc 1 72 23 is_stmt 0 discriminator 1 view .LVU191
	movl	$-1, %ebp	#, <retval>
.LVL59:
# net.c:72:         close(fd); fd = -1;
	.loc 1 72 9 view .LVU192
	call	close@PLT	#
.LVL60:
	.loc 1 72 20 is_stmt 1 discriminator 1 view .LVU193
.L35:
	.loc 1 64 24 discriminator 2 view .LVU194
	movq	40(%rbx), %rbx	# r_44->ai_next, r
.LVL61:
	.loc 1 64 19 discriminator 1 view .LVU195
	testq	%rbx, %rbx	# r
	jne	.L37	#,
# net.c:74:     freeaddrinfo(res);
	.loc 1 74 5 is_stmt 0 view .LVU196
	movq	8(%rsp), %rbx	# res, r
.LVL62:
.L34:
	.loc 1 74 5 is_stmt 1 view .LVU197
	movq	%rbx, %rdi	# r,
	call	freeaddrinfo@PLT	#
.LVL63:
	.loc 1 75 5 view .LVU198
.L32:
# net.c:76: }
	.loc 1 76 1 is_stmt 0 view .LVU199
	movq	88(%rsp), %rax	# D.6242, tmp116
	subq	%fs:40, %rax	# MEM[(<address-space-1> long unsigned int *)40B], tmp116
	jne	.L44	#,
	addq	$96, %rsp	#,
	.cfi_remember_state
	.cfi_def_cfa_offset 32
	movl	%ebp, %eax	# <retval>,
	popq	%rbx	#
	.cfi_def_cfa_offset 24
	popq	%rbp	#
	.cfi_def_cfa_offset 16
	popq	%r12	#
	.cfi_def_cfa_offset 8
	ret	
.LVL64:
	.p2align 4,,10
	.p2align 3
.L43:
	.cfi_restore_state
.LBB85:
	.loc 1 68 13 is_stmt 1 view .LVU200
# net.c:69:             setsockopt(fd, IPPROTO_TCP, TCP_NODELAY, &one, sizeof one);
	.loc 1 69 13 is_stmt 0 view .LVU201
	leaq	4(%rsp), %rcx	#, tmp106
	movl	$4, %r8d	#,
	movl	$1, %edx	#,
	movl	%ebp, %edi	# <retval>,
	movl	$6, %esi	#,
# net.c:68:             int one = 1;
	.loc 1 68 17 view .LVU202
	movl	$1, 4(%rsp)	#, one
	.loc 1 69 13 is_stmt 1 view .LVU203
	call	setsockopt@PLT	#
.LVL65:
	.loc 1 70 13 view .LVU204
.LBE85:
# net.c:74:     freeaddrinfo(res);
	.loc 1 74 5 is_stmt 0 view .LVU205
	movq	8(%rsp), %rbx	# res, r
.LVL66:
	.loc 1 74 5 view .LVU206
	jmp	.L34	#
.LVL67:
.L40:
# net.c:63:     int fd = -1;
	.loc 1 63 9 view .LVU207
	movl	$-1, %ebp	#, <retval>
	jmp	.L34	#
.LVL68:
.L39:
# net.c:62:     if (getaddrinfo(host, portstr, &hints, &res) != 0) return -1;
	.loc 1 62 63 discriminator 1 view .LVU208
	movl	$-1, %ebp	#, <retval>
	jmp	.L32	#
.LVL69:
.L44:
# net.c:76: }
	.loc 1 76 1 view .LVU209
	call	__stack_chk_fail@PLT	#
.LVL70:
	.cfi_endproc
.LFE70:
	.size	tcp_connect_str, .-tcp_connect_str
	.p2align 4
	.globl	ip_to_str
	.type	ip_to_str, @function
ip_to_str:
.LVL71:
.LFB71:
	.loc 1 78 36 is_stmt 1 view -0
	.cfi_startproc
	.loc 1 78 36 is_stmt 0 view .LVU211
	endbr64	
	pushq	%rbx	#
	.cfi_def_cfa_offset 16
	.cfi_offset 3, -16
.LBB86:
.LBB87:
# /usr/include/x86_64-linux-gnu/bits/byteswap.h:52:   return __builtin_bswap32 (__bsx);
	.loc 3 52 10 view .LVU212
	bswap	%edi		# _3
.LVL72:
	.loc 3 52 10 view .LVU213
.LBE87:
.LBE86:
# net.c:81:     inet_ntop(AF_INET, &be, buf, sizeof buf);
	.loc 1 81 5 view .LVU214
	movl	$16, %ecx	#,
# net.c:78: const char *ip_to_str(uint32_t ip) {
	.loc 1 78 36 view .LVU215
	subq	$16, %rsp	#,
	.cfi_def_cfa_offset 32
# net.c:78: const char *ip_to_str(uint32_t ip) {
	.loc 1 78 36 view .LVU216
	movq	%fs:40, %rax	# MEM[(<address-space-1> long unsigned int *)40B], tmp93
	movq	%rax, 8(%rsp)	# tmp93, D.6248
	xorl	%eax, %eax	# tmp93
	.loc 1 79 5 is_stmt 1 view .LVU217
	.loc 1 80 5 view .LVU218
.LBB89:
.LBI86:
	.loc 3 49 1 view .LVU219
.LBB88:
	.loc 3 52 3 view .LVU220
.LBE88:
.LBE89:
# net.c:81:     inet_ntop(AF_INET, &be, buf, sizeof buf);
	.loc 1 81 5 is_stmt 0 view .LVU221
	leaq	4(%rsp), %rsi	#, tmp88
# net.c:80:     uint32_t be = htonl(ip);
	.loc 1 80 14 discriminator 1 view .LVU222
	movl	%edi, 4(%rsp)	# _3, be
	.loc 1 81 5 is_stmt 1 view .LVU223
	movl	$2, %edi	#,
	movq	%fs:0, %rax	#, tmp96
	leaq	buf.0@tpoff(%rax), %rbx	#, tmp86
	movq	%rbx, %rdx	# tmp86,
	call	inet_ntop@PLT	#
.LVL73:
	.loc 1 82 5 view .LVU224
# net.c:83: }
	.loc 1 83 1 is_stmt 0 view .LVU225
	movq	8(%rsp), %rax	# D.6248, tmp94
	subq	%fs:40, %rax	# MEM[(<address-space-1> long unsigned int *)40B], tmp94
	jne	.L48	#,
	addq	$16, %rsp	#,
	.cfi_remember_state
	.cfi_def_cfa_offset 16
	movq	%rbx, %rax	# tmp86,
	popq	%rbx	#
	.cfi_def_cfa_offset 8
	ret	
.L48:
	.cfi_restore_state
	call	__stack_chk_fail@PLT	#
.LVL74:
	.cfi_endproc
.LFE71:
	.size	ip_to_str, .-ip_to_str
	.section	.tbss,"awT",@nobits
	.type	buf.0, @object
	.size	buf.0, 16
buf.0:
	.zero	16
	.section	.rodata.cst8,"aM",@progbits,8
	.align 8
.LC0:
	.long	2
	.long	1
	.text
.Letext0:
	.file 5 "/usr/include/x86_64-linux-gnu/bits/types.h"
	.file 6 "/usr/include/x86_64-linux-gnu/bits/stdint-uintn.h"
	.file 7 "/usr/lib/gcc/x86_64-linux-gnu/13/include/stddef.h"
	.file 8 "/usr/include/x86_64-linux-gnu/bits/socket.h"
	.file 9 "/usr/include/x86_64-linux-gnu/bits/sockaddr.h"
	.file 10 "/usr/include/netinet/in.h"
	.file 11 "/usr/include/x86_64-linux-gnu/sys/socket.h"
	.file 12 "/usr/include/netdb.h"
	.file 13 "/usr/include/arpa/inet.h"
	.file 14 "/usr/include/unistd.h"
	.file 15 "/usr/include/x86_64-linux-gnu/bits/socket_type.h"
	.file 16 "<built-in>"
	.section	.note.GNU-stack,"",@progbits
	.section	.note.gnu.property,"a"
	.align 8
	.long	1f - 0f
	.long	4f - 1f
	.long	5
0:
	.string	"GNU"
1:
	.align 8
	.long	0xc0000002
	.long	3f - 2f
2:
	.long	0x3
3:
	.align 8
4:
