	.file	"peer.c"
# GNU C17 (Ubuntu 13.3.0-6ubuntu2~24.04.1) version 13.3.0 (x86_64-linux-gnu)
#	compiled by GNU C version 13.3.0, GMP version 6.3.0, MPFR version 4.2.1, MPC version 1.3.1, isl version isl-0.26-GMP

# GGC heuristics: --param ggc-min-expand=100 --param ggc-min-heapsize=131072
# options passed: -mtune=generic -march=x86-64 -g -O2 -fasynchronous-unwind-tables -fstack-protector-strong -fstack-clash-protection -fcf-protection
	.text
.Ltext0:
	.file 0 "/home/dev/Project/socket" "peer.c"
	.p2align 4
	.type	listener_thread, @function
listener_thread:
.LVL0:
.LFB90:
	.file 1 "peer.c"
	.loc 1 323 41 view -0
	.cfi_startproc
	.loc 1 323 41 is_stmt 0 view .LVU1
	endbr64	
	pushq	%r14	#
	.cfi_def_cfa_offset 16
	.cfi_offset 14, -16
	pushq	%r13	#
	.cfi_def_cfa_offset 24
	.cfi_offset 13, -24
	pushq	%r12	#
	.cfi_def_cfa_offset 32
	.cfi_offset 12, -32
	pushq	%rbp	#
	.cfi_def_cfa_offset 40
	.cfi_offset 6, -40
	pushq	%rbx	#
	.cfi_def_cfa_offset 48
	.cfi_offset 3, -48
	subq	$32, %rsp	#,
	.cfi_def_cfa_offset 80
# peer.c:325:     while (!g_quit) {
	.loc 1 325 12 view .LVU2
	movq	%fs:40, %rax	# MEM[(<address-space-1> long unsigned int *)40B], g_quit.21_25
	movq	%rax, 24(%rsp)	# g_quit.21_25, D.8689
	movl	g_quit(%rip), %eax	# g_quit, g_quit.21_25
	testl	%eax, %eax	# g_quit.21_25
	jne	.L2	#,
	movl	%edi, %ebp	# tmp105, srv
	leaq	10(%rsp), %r13	#, tmp102
	leaq	12(%rsp), %r12	#, tmp103
.LBB199:
# peer.c:330:         if (pthread_create(&th, NULL, server_client_thread,
	.loc 1 330 13 view .LVU3
	leaq	server_client_thread(%rip), %r14	#, tmp104
	jmp	.L6	#
.LVL1:
	.p2align 4,,10
	.p2align 3
.L4:
	.loc 1 334 9 is_stmt 1 view .LVU4
	movq	16(%rsp), %rdi	# th,
	call	pthread_detach@PLT	#
.LVL2:
.L5:
.LBE199:
	.loc 1 325 12 view .LVU5
	movl	g_quit(%rip), %eax	# g_quit, g_quit.21_6
	testl	%eax, %eax	# g_quit.21_6
	jne	.L2	#,
.LVL3:
.L6:
.LBB200:
	.loc 1 326 9 view .LVU6
	.loc 1 326 22 view .LVU7
	.loc 1 327 9 view .LVU8
# peer.c:327:         int cfd = tcp_accept(srv, &ip, &port);
	.loc 1 327 19 is_stmt 0 view .LVU9
	movq	%r13, %rdx	# tmp102,
	movq	%r12, %rsi	# tmp103,
	movl	%ebp, %edi	# srv,
	call	tcp_accept@PLT	#
.LVL4:
	movl	%eax, %ebx	# tmp106, cfd
.LVL5:
	.loc 1 328 9 is_stmt 1 view .LVU10
# peer.c:328:         if (cfd < 0) continue;
	.loc 1 328 12 is_stmt 0 view .LVU11
	testl	%eax, %eax	# cfd
	js	.L5	#,
	.loc 1 329 9 is_stmt 1 view .LVU12
	.loc 1 330 9 view .LVU13
# peer.c:330:         if (pthread_create(&th, NULL, server_client_thread,
	.loc 1 330 13 is_stmt 0 view .LVU14
	xorl	%esi, %esi	#
# peer.c:331:                            (void *)(intptr_t)cfd) != 0) {
	.loc 1 331 36 view .LVU15
	movslq	%eax, %rcx	# cfd, cfd
# peer.c:330:         if (pthread_create(&th, NULL, server_client_thread,
	.loc 1 330 13 view .LVU16
	leaq	16(%rsp), %rdi	#, tmp97
	movq	%r14, %rdx	# tmp104,
	call	pthread_create@PLT	#
.LVL6:
# peer.c:330:         if (pthread_create(&th, NULL, server_client_thread,
	.loc 1 330 12 discriminator 1 view .LVU17
	testl	%eax, %eax	# tmp107
	je	.L4	#,
	.loc 1 332 13 is_stmt 1 view .LVU18
	movl	%ebx, %edi	# cfd,
	call	close@PLT	#
.LVL7:
	.loc 1 332 25 discriminator 1 view .LVU19
.LBE200:
	.loc 1 325 12 view .LVU20
	movl	g_quit(%rip), %eax	# g_quit, g_quit.21_6
	testl	%eax, %eax	# g_quit.21_6
	je	.L6	#,
.LVL8:
	.p2align 4,,10
	.p2align 3
.L2:
	.loc 1 336 5 view .LVU21
# peer.c:337: }
	.loc 1 337 1 is_stmt 0 view .LVU22
	movq	24(%rsp), %rax	# D.8689, tmp109
	subq	%fs:40, %rax	# MEM[(<address-space-1> long unsigned int *)40B], tmp109
	jne	.L12	#,
	addq	$32, %rsp	#,
	.cfi_remember_state
	.cfi_def_cfa_offset 48
	xorl	%eax, %eax	#
	popq	%rbx	#
	.cfi_def_cfa_offset 40
	popq	%rbp	#
	.cfi_def_cfa_offset 32
	popq	%r12	#
	.cfi_def_cfa_offset 24
	popq	%r13	#
	.cfi_def_cfa_offset 16
	popq	%r14	#
	.cfi_def_cfa_offset 8
	ret	
.L12:
	.cfi_restore_state
	call	__stack_chk_fail@PLT	#
.LVL9:
	.cfi_endproc
.LFE90:
	.size	listener_thread, .-listener_thread
	.section	.rodata.str1.8,"aMS",@progbits,1
	.align 8
.LC0:
	.string	"[ERR ] cannot connect to tracker %s:%u\n"
	.text
	.p2align 4
	.type	ensure_tracker, @function
ensure_tracker:
.LFB82:
	.loc 1 74 33 is_stmt 1 view -0
	.cfi_startproc
	pushq	%rbp	#
	.cfi_def_cfa_offset 16
	.cfi_offset 6, -16
	pushq	%rbx	#
	.cfi_def_cfa_offset 24
	.cfi_offset 3, -24
	subq	$72, %rsp	#,
	.cfi_def_cfa_offset 96
# peer.c:74: static int ensure_tracker(void) {
	.loc 1 74 33 is_stmt 0 view .LVU24
	movq	%fs:40, %rax	# MEM[(<address-space-1> long unsigned int *)40B], tmp130
	movq	%rax, 56(%rsp)	# tmp130, D.8694
	xorl	%eax, %eax	# tmp130
	.loc 1 75 5 is_stmt 1 view .LVU25
# peer.c:75:     if (g_tracker_fd >= 0) return 0;
	.loc 1 75 8 is_stmt 0 view .LVU26
	movl	g_tracker_fd(%rip), %eax	# g_tracker_fd,
	testl	%eax, %eax	#
	js	.L14	#,
.L22:
# peer.c:75:     if (g_tracker_fd >= 0) return 0;
	.loc 1 75 35 discriminator 1 view .LVU27
	xorl	%eax, %eax	# <retval>
.L13:
# peer.c:92: }
	.loc 1 92 1 view .LVU28
	movq	56(%rsp), %rdx	# D.8694, tmp131
	subq	%fs:40, %rdx	# MEM[(<address-space-1> long unsigned int *)40B], tmp131
	jne	.L25	#,
	addq	$72, %rsp	#,
	.cfi_remember_state
	.cfi_def_cfa_offset 24
	popq	%rbx	#
	.cfi_def_cfa_offset 16
	popq	%rbp	#
	.cfi_def_cfa_offset 8
	ret	
	.p2align 4,,10
	.p2align 3
.L14:
	.cfi_restore_state
	.loc 1 76 5 is_stmt 1 view .LVU29
# peer.c:76:     g_tracker_fd = tcp_connect_str(g_tracker_host, g_tracker_port);
	.loc 1 76 20 is_stmt 0 view .LVU30
	movzwl	g_tracker_port(%rip), %esi	# g_tracker_port, g_tracker_port
	leaq	g_tracker_host(%rip), %rbx	#, tmp104
	movq	%rbx, %rdi	# tmp104,
	call	tcp_connect_str@PLT	#
.LVL10:
# peer.c:76:     g_tracker_fd = tcp_connect_str(g_tracker_host, g_tracker_port);
	.loc 1 76 18 discriminator 1 view .LVU31
	movl	%eax, g_tracker_fd(%rip)	# _4, g_tracker_fd
	.loc 1 77 5 is_stmt 1 view .LVU32
# peer.c:77:     if (g_tracker_fd < 0) { LOG_ERR("cannot connect to tracker %s:%u",
	.loc 1 77 8 is_stmt 0 view .LVU33
	testl	%eax, %eax	# _4
	js	.L26	#,
	.loc 1 79 5 is_stmt 1 view .LVU34
# peer.c:80:     buf_put_bytes(&w, g_peer_id, PEER_ID_SIZE);
	.loc 1 80 5 is_stmt 0 view .LVU35
	leaq	16(%rsp), %rbp	#, tmp110
# peer.c:79:     uint8_t req[PEER_ID_SIZE + 2], *w = req;
	.loc 1 79 37 view .LVU36
	leaq	32(%rsp), %rbx	#, tmp109
# peer.c:80:     buf_put_bytes(&w, g_peer_id, PEER_ID_SIZE);
	.loc 1 80 5 view .LVU37
	movl	$16, %edx	#,
	leaq	g_peer_id(%rip), %rsi	#, tmp111
	movq	%rbp, %rdi	# tmp110,
# peer.c:79:     uint8_t req[PEER_ID_SIZE + 2], *w = req;
	.loc 1 79 37 view .LVU38
	movq	%rbx, 16(%rsp)	# tmp109, w
	.loc 1 80 5 is_stmt 1 view .LVU39
	call	buf_put_bytes@PLT	#
.LVL11:
	.loc 1 81 5 view .LVU40
	movzwl	g_listen_port(%rip), %esi	# g_listen_port, g_listen_port
	movq	%rbp, %rdi	# tmp110,
	call	buf_put_u16@PLT	#
.LVL12:
	.loc 1 82 5 view .LVU41
# peer.c:82:     if (msg_send(g_tracker_fd, MSG_REGISTER, req, (uint32_t)(w - req)) < 0) goto fail;
	.loc 1 82 9 is_stmt 0 view .LVU42
	movl	16(%rsp), %ecx	# w, tmp119
	movl	g_tracker_fd(%rip), %edi	# g_tracker_fd,
	movq	%rbx, %rdx	# tmp109,
	movl	$1, %esi	#,
	subl	%ebx, %ecx	# tmp109, tmp119
	call	msg_send@PLT	#
.LVL13:
# peer.c:82:     if (msg_send(g_tracker_fd, MSG_REGISTER, req, (uint32_t)(w - req)) < 0) goto fail;
	.loc 1 82 8 discriminator 1 view .LVU43
	testl	%eax, %eax	# tmp128
	js	.L21	#,
	.loc 1 83 5 is_stmt 1 view .LVU44
	.loc 1 83 16 view .LVU45
# peer.c:84:     if (msg_recv(g_tracker_fd, &t, &p, &l) < 0) goto fail;
	.loc 1 84 9 is_stmt 0 view .LVU46
	movl	g_tracker_fd(%rip), %edi	# g_tracker_fd,
	leaq	12(%rsp), %rcx	#, tmp120
	leaq	24(%rsp), %rdx	#, tmp121
# peer.c:83:     uint8_t t; uint8_t *p = NULL; uint32_t l;
	.loc 1 83 25 view .LVU47
	movq	$0, 24(%rsp)	#, p
	.loc 1 83 35 is_stmt 1 view .LVU48
	.loc 1 84 5 view .LVU49
# peer.c:84:     if (msg_recv(g_tracker_fd, &t, &p, &l) < 0) goto fail;
	.loc 1 84 9 is_stmt 0 view .LVU50
	leaq	11(%rsp), %rsi	#, tmp122
	call	msg_recv@PLT	#
.LVL14:
# peer.c:84:     if (msg_recv(g_tracker_fd, &t, &p, &l) < 0) goto fail;
	.loc 1 84 8 discriminator 1 view .LVU51
	testl	%eax, %eax	# tmp129
	js	.L21	#,
	.loc 1 85 5 is_stmt 1 view .LVU52
	movq	24(%rsp), %rdi	# p,
	call	free@PLT	#
.LVL15:
	.loc 1 86 5 view .LVU53
# peer.c:86:     if (t != MSG_REGISTER_ACK) goto fail;
	.loc 1 86 8 is_stmt 0 view .LVU54
	cmpb	$2, 11(%rsp)	#, t
	je	.L22	#,
.L21:
.LDL1:
	.loc 1 89 5 is_stmt 1 view .LVU55
# peer.c:89:     if (g_tracker_fd >= 0) close(g_tracker_fd);
	.loc 1 89 22 is_stmt 0 view .LVU56
	movl	g_tracker_fd(%rip), %edi	# g_tracker_fd, g_tracker_fd.54_20
# peer.c:89:     if (g_tracker_fd >= 0) close(g_tracker_fd);
	.loc 1 89 8 view .LVU57
	testl	%edi, %edi	# g_tracker_fd.54_20
	js	.L20	#,
	.loc 1 89 28 is_stmt 1 discriminator 1 view .LVU58
	call	close@PLT	#
.LVL16:
.L20:
	.loc 1 90 5 view .LVU59
# peer.c:90:     g_tracker_fd = -1;
	.loc 1 90 18 is_stmt 0 view .LVU60
	movl	$-1, g_tracker_fd(%rip)	#, g_tracker_fd
	.loc 1 91 5 is_stmt 1 view .LVU61
.L17:
# peer.c:78:                                     g_tracker_host, g_tracker_port); return -1; }
	.loc 1 78 77 is_stmt 0 view .LVU62
	movl	$-1, %eax	#, <retval>
	jmp	.L13	#
.L26:
	.loc 1 77 29 is_stmt 1 discriminator 1 view .LVU63
.LVL17:
.LBB201:
.LBI201:
	.file 2 "/usr/include/x86_64-linux-gnu/bits/stdio2.h"
	.loc 2 77 1 view .LVU64
.LBB202:
	.loc 2 79 3 view .LVU65
# /usr/include/x86_64-linux-gnu/bits/stdio2.h:79:   return __fprintf_chk (__stream, __USE_FORTIFY_LEVEL - 1, __fmt,
	.loc 2 79 10 is_stmt 0 view .LVU66
	movzwl	g_tracker_port(%rip), %r8d	# g_tracker_port,
	movq	stderr(%rip), %rdi	# stderr,
	movq	%rbx, %rcx	# tmp104,
	xorl	%eax, %eax	#
	leaq	.LC0(%rip), %rdx	#, tmp108
	movl	$2, %esi	#,
	call	__fprintf_chk@PLT	#
.LVL18:
	.loc 2 79 10 view .LVU67
.LBE202:
.LBE201:
	.loc 1 78 70 is_stmt 1 view .LVU68
# peer.c:78:                                     g_tracker_host, g_tracker_port); return -1; }
	.loc 1 78 77 is_stmt 0 view .LVU69
	jmp	.L17	#
.L25:
# peer.c:92: }
	.loc 1 92 1 view .LVU70
	call	__stack_chk_fail@PLT	#
.LVL19:
	.cfi_endproc
.LFE82:
	.size	ensure_tracker, .-ensure_tracker
	.p2align 4
	.type	tracker_announce, @function
tracker_announce:
.LVL20:
.LFB83:
	.loc 1 94 53 is_stmt 1 view -0
	.cfi_startproc
	.loc 1 94 53 is_stmt 0 view .LVU72
	pushq	%r15	#
	.cfi_def_cfa_offset 16
	.cfi_offset 15, -16
	pushq	%r14	#
	.cfi_def_cfa_offset 24
	.cfi_offset 14, -24
	pushq	%r13	#
	.cfi_def_cfa_offset 32
	.cfi_offset 13, -32
	pushq	%r12	#
	.cfi_def_cfa_offset 40
	.cfi_offset 12, -40
	pushq	%rbp	#
	.cfi_def_cfa_offset 48
	.cfi_offset 6, -48
	pushq	%rbx	#
	.cfi_def_cfa_offset 56
	.cfi_offset 3, -56
	movq	%rdi, %rbx	# tmp162, f
	subq	$40, %rsp	#,
	.cfi_def_cfa_offset 96
# peer.c:94: static int tracker_announce(const shared_file_t *f) {
	.loc 1 94 53 view .LVU73
	movq	%fs:40, %rax	# MEM[(<address-space-1> long unsigned int *)40B], tmp169
	movq	%rax, 24(%rsp)	# tmp169, D.8701
	xorl	%eax, %eax	# tmp169
	.loc 1 95 5 is_stmt 1 view .LVU74
# peer.c:95:     if (ensure_tracker() < 0) return -1;
	.loc 1 95 9 is_stmt 0 view .LVU75
	call	ensure_tracker	#
.LVL21:
# peer.c:95:     if (ensure_tracker() < 0) return -1;
	.loc 1 95 8 discriminator 1 view .LVU76
	testl	%eax, %eax	# tmp163
	js	.L29	#,
	.loc 1 96 5 is_stmt 1 view .LVU77
	leaq	g_tracker_lock(%rip), %r15	#, tmp161
# peer.c:97:     size_t cap = HASH_SIZE + 2 + strlen(f->filename) + 8 + 4 + 4
	.loc 1 97 42 is_stmt 0 view .LVU78
	leaq	2080(%rbx), %r14	#, _2
# peer.c:96:     pthread_mutex_lock(&g_tracker_lock);
	.loc 1 96 5 view .LVU79
	movq	%r15, %rdi	# tmp161,
# peer.c:100:     buf_put_bytes(&w, f->file_hash, HASH_SIZE);
	.loc 1 100 5 view .LVU80
	leaq	8(%rsp), %rbp	#, tmp127
# peer.c:96:     pthread_mutex_lock(&g_tracker_lock);
	.loc 1 96 5 view .LVU81
	call	pthread_mutex_lock@PLT	#
.LVL22:
	.loc 1 97 5 is_stmt 1 view .LVU82
# peer.c:97:     size_t cap = HASH_SIZE + 2 + strlen(f->filename) + 8 + 4 + 4
	.loc 1 97 34 is_stmt 0 view .LVU83
	movq	%r14, %rdi	# _2,
	call	strlen@PLT	#
.LVL23:
	movq	%rax, %rdx	#, tmp164
.LVL24:
	.loc 1 99 5 is_stmt 1 view .LVU84
# peer.c:98:                + (size_t)f->chunk_count * HASH_SIZE;
	.loc 1 98 18 is_stmt 0 view .LVU85
	movl	2348(%rbx), %eax	# f_33(D)->chunk_count, f_33(D)->chunk_count
.LVL25:
# peer.c:98:                + (size_t)f->chunk_count * HASH_SIZE;
	.loc 1 98 41 view .LVU86
	salq	$5, %rax	#, tmp123
# peer.c:97:     size_t cap = HASH_SIZE + 2 + strlen(f->filename) + 8 + 4 + 4
	.loc 1 97 12 view .LVU87
	leaq	50(%rax,%rdx), %rdi	#, cap
# peer.c:99:     uint8_t *buf = malloc(cap), *w = buf;
	.loc 1 99 20 view .LVU88
	call	malloc@PLT	#
.LVL26:
# peer.c:100:     buf_put_bytes(&w, f->file_hash, HASH_SIZE);
	.loc 1 100 5 view .LVU89
	movl	$32, %edx	#,
	movq	%rbx, %rsi	# f,
	movq	%rbp, %rdi	# tmp127,
# peer.c:99:     uint8_t *buf = malloc(cap), *w = buf;
	.loc 1 99 34 discriminator 1 view .LVU90
	movq	%rax, 8(%rsp)	# buf, w
# peer.c:99:     uint8_t *buf = malloc(cap), *w = buf;
	.loc 1 99 20 view .LVU91
	movq	%rax, %r12	# tmp165, buf
.LVL27:
	.loc 1 100 5 is_stmt 1 view .LVU92
	call	buf_put_bytes@PLT	#
.LVL28:
	.loc 1 101 5 view .LVU93
# peer.c:101:     uint16_t nl = (uint16_t)strlen(f->filename);
	.loc 1 101 29 is_stmt 0 view .LVU94
	movq	%r14, %rdi	# _2,
	call	strlen@PLT	#
.LVL29:
# peer.c:102:     buf_put_u16  (&w, nl);
	.loc 1 102 5 view .LVU95
	movq	%rbp, %rdi	# tmp127,
# peer.c:101:     uint16_t nl = (uint16_t)strlen(f->filename);
	.loc 1 101 29 view .LVU96
	movq	%rax, %r13	# tmp166, tmp129
.LVL30:
	.loc 1 102 5 is_stmt 1 view .LVU97
	movzwl	%ax, %esi	# tmp129, _9
	call	buf_put_u16@PLT	#
.LVL31:
	.loc 1 103 5 view .LVU98
	movzwl	%r13w, %edx	# tmp129, _9
	movq	%r14, %rsi	# _2,
	movq	%rbp, %rdi	# tmp127,
	call	buf_put_bytes@PLT	#
.LVL32:
	.loc 1 104 5 view .LVU99
	movq	2336(%rbx), %rsi	# f_33(D)->file_size, f_33(D)->file_size
	movq	%rbp, %rdi	# tmp127,
	call	buf_put_u64@PLT	#
.LVL33:
	.loc 1 105 5 view .LVU100
	movl	2344(%rbx), %esi	# f_33(D)->chunk_size, f_33(D)->chunk_size
	movq	%rbp, %rdi	# tmp127,
	call	buf_put_u32@PLT	#
.LVL34:
	.loc 1 106 5 view .LVU101
	movl	2348(%rbx), %esi	# f_33(D)->chunk_count, f_33(D)->chunk_count
	movq	%rbp, %rdi	# tmp127,
	call	buf_put_u32@PLT	#
.LVL35:
	.loc 1 107 5 view .LVU102
# peer.c:107:     if (f->chunk_count > 0)
	.loc 1 107 10 is_stmt 0 view .LVU103
	movl	2348(%rbx), %edx	# f_33(D)->chunk_count,
# peer.c:107:     if (f->chunk_count > 0)
	.loc 1 107 8 view .LVU104
	testl	%edx, %edx	# _14
	jne	.L39	#,
.L30:
	.loc 1 109 5 is_stmt 1 view .LVU105
# peer.c:109:     int rc = msg_send(g_tracker_fd, MSG_ANNOUNCE, buf, (uint32_t)(w - buf));
	.loc 1 109 14 is_stmt 0 view .LVU106
	movl	8(%rsp), %ecx	# w, tmp148
	movl	g_tracker_fd(%rip), %edi	# g_tracker_fd,
	movq	%r12, %rdx	# buf,
	movl	$3, %esi	#,
	subl	%r12d, %ecx	# buf, tmp148
	call	msg_send@PLT	#
.LVL36:
# peer.c:110:     free(buf);
	.loc 1 110 5 view .LVU107
	movq	%r12, %rdi	# buf,
# peer.c:109:     int rc = msg_send(g_tracker_fd, MSG_ANNOUNCE, buf, (uint32_t)(w - buf));
	.loc 1 109 14 view .LVU108
	movl	%eax, %ebx	# tmp167, rc
.LVL37:
	.loc 1 110 5 is_stmt 1 view .LVU109
	call	free@PLT	#
.LVL38:
	.loc 1 111 5 view .LVU110
# peer.c:111:     if (rc < 0) {
	.loc 1 111 8 is_stmt 0 view .LVU111
	testl	%ebx, %ebx	# rc
	js	.L40	#,
	.loc 1 116 5 is_stmt 1 view .LVU112
	.loc 1 116 16 view .LVU113
# peer.c:117:     rc = msg_recv(g_tracker_fd, &t, &p, &l);
	.loc 1 117 10 is_stmt 0 view .LVU114
	movl	g_tracker_fd(%rip), %edi	# g_tracker_fd,
	leaq	4(%rsp), %rcx	#, tmp151
	leaq	16(%rsp), %rdx	#, tmp152
# peer.c:116:     uint8_t t; uint8_t *p = NULL; uint32_t l;
	.loc 1 116 25 view .LVU115
	movq	$0, 16(%rsp)	#, p
	.loc 1 116 35 is_stmt 1 view .LVU116
	.loc 1 117 5 view .LVU117
# peer.c:117:     rc = msg_recv(g_tracker_fd, &t, &p, &l);
	.loc 1 117 10 is_stmt 0 view .LVU118
	leaq	3(%rsp), %rsi	#, tmp153
	call	msg_recv@PLT	#
.LVL39:
# peer.c:118:     free(p);
	.loc 1 118 5 view .LVU119
	movq	16(%rsp), %rdi	# p,
# peer.c:117:     rc = msg_recv(g_tracker_fd, &t, &p, &l);
	.loc 1 117 10 view .LVU120
	movl	%eax, %ebx	# tmp168, rc
.LVL40:
	.loc 1 118 5 is_stmt 1 view .LVU121
	call	free@PLT	#
.LVL41:
	.loc 1 119 5 view .LVU122
	movq	%r15, %rdi	# tmp161,
	call	pthread_mutex_unlock@PLT	#
.LVL42:
	.loc 1 120 5 view .LVU123
# peer.c:120:     return (rc < 0 || t != MSG_ANNOUNCE_ACK) ? -1 : 0;
	.loc 1 120 51 is_stmt 0 view .LVU124
	testl	%ebx, %ebx	# rc
	js	.L29	#,
# peer.c:120:     return (rc < 0 || t != MSG_ANNOUNCE_ACK) ? -1 : 0;
	.loc 1 120 20 discriminator 2 view .LVU125
	xorl	%eax, %eax	# tmp157
	cmpb	$4, 3(%rsp)	#, t
	setne	%al	#, tmp157
	negl	%eax	# <retval>
.LVL43:
.L27:
# peer.c:121: }
	.loc 1 121 1 view .LVU126
	movq	24(%rsp), %rdx	# D.8701, tmp170
	subq	%fs:40, %rdx	# MEM[(<address-space-1> long unsigned int *)40B], tmp170
	jne	.L41	#,
	addq	$40, %rsp	#,
	.cfi_remember_state
	.cfi_def_cfa_offset 56
	popq	%rbx	#
	.cfi_def_cfa_offset 48
	popq	%rbp	#
	.cfi_def_cfa_offset 40
	popq	%r12	#
	.cfi_def_cfa_offset 32
	popq	%r13	#
	.cfi_def_cfa_offset 24
	popq	%r14	#
	.cfi_def_cfa_offset 16
	popq	%r15	#
	.cfi_def_cfa_offset 8
	ret	
.LVL44:
	.p2align 4,,10
	.p2align 3
.L39:
	.cfi_restore_state
	.loc 1 108 9 is_stmt 1 view .LVU127
	movq	2352(%rbx), %rsi	# f_33(D)->chunk_hashes, f_33(D)->chunk_hashes
	salq	$5, %rdx	#, tmp142
	movq	%rbp, %rdi	# tmp127,
	call	buf_put_bytes@PLT	#
.LVL45:
	jmp	.L30	#
.LVL46:
.L40:
	.loc 1 112 9 view .LVU128
	movl	g_tracker_fd(%rip), %edi	# g_tracker_fd,
	call	close@PLT	#
.LVL47:
	.loc 1 112 30 discriminator 1 view .LVU129
# peer.c:113:         pthread_mutex_unlock(&g_tracker_lock);
	.loc 1 113 9 is_stmt 0 view .LVU130
	movq	%r15, %rdi	# tmp161,
# peer.c:112:         close(g_tracker_fd); g_tracker_fd = -1;
	.loc 1 112 43 discriminator 1 view .LVU131
	movl	$-1, g_tracker_fd(%rip)	#, g_tracker_fd
	.loc 1 113 9 is_stmt 1 view .LVU132
	call	pthread_mutex_unlock@PLT	#
.LVL48:
	.loc 1 114 9 view .LVU133
.L29:
# peer.c:95:     if (ensure_tracker() < 0) return -1;
	.loc 1 95 38 is_stmt 0 discriminator 1 view .LVU134
	movl	$-1, %eax	#, <retval>
	jmp	.L27	#
.L41:
# peer.c:121: }
	.loc 1 121 1 view .LVU135
	call	__stack_chk_fail@PLT	#
.LVL49:
	.cfi_endproc
.LFE83:
	.size	tracker_announce, .-tracker_announce
	.section	.rodata.str1.1,"aMS",@progbits,1
.LC1:
	.string	"%s"
	.text
	.p2align 4
	.type	serve_get_chunk, @function
serve_get_chunk:
.LVL50:
.LFB88:
	.loc 1 261 76 is_stmt 1 view -0
	.cfi_startproc
	.loc 1 261 76 is_stmt 0 view .LVU137
	pushq	%r15	#
	.cfi_def_cfa_offset 16
	.cfi_offset 15, -16
# peer.c:262:     const uint8_t *p = payload, *end = payload + plen;
	.loc 1 262 48 view .LVU138
	movl	%edx, %edx	# tmp196, plen
# peer.c:264:     if (buf_get_bytes(&p, end, fhash, HASH_SIZE) < 0 ||
	.loc 1 264 9 view .LVU139
	movl	$32, %ecx	#,
# peer.c:261: static void serve_get_chunk(int fd, const uint8_t *payload, uint32_t plen) {
	.loc 1 261 76 view .LVU140
	pushq	%r14	#
	.cfi_def_cfa_offset 24
	.cfi_offset 14, -24
	pushq	%r13	#
	.cfi_def_cfa_offset 32
	.cfi_offset 13, -32
	pushq	%r12	#
	.cfi_def_cfa_offset 40
	.cfi_offset 12, -40
	pushq	%rbp	#
	.cfi_def_cfa_offset 48
	.cfi_offset 6, -48
	movl	%edi, %ebp	# tmp194, fd
	pushq	%rbx	#
	.cfi_def_cfa_offset 56
	.cfi_offset 3, -56
# peer.c:262:     const uint8_t *p = payload, *end = payload + plen;
	.loc 1 262 34 view .LVU141
	leaq	(%rsi,%rdx), %rbx	#, end
# peer.c:261: static void serve_get_chunk(int fd, const uint8_t *payload, uint32_t plen) {
	.loc 1 261 76 view .LVU142
	subq	$2232, %rsp	#,
	.cfi_def_cfa_offset 2288
# peer.c:261: static void serve_get_chunk(int fd, const uint8_t *payload, uint32_t plen) {
	.loc 1 261 76 view .LVU143
	movq	%fs:40, %rax	# MEM[(<address-space-1> long unsigned int *)40B], tmp210
	movq	%rax, 2216(%rsp)	# tmp210, D.8714
	xorl	%eax, %eax	# tmp210
	.loc 1 262 5 is_stmt 1 view .LVU144
.LVL51:
	.loc 1 263 5 view .LVU145
	.loc 1 263 31 view .LVU146
	.loc 1 264 5 view .LVU147
# peer.c:264:     if (buf_get_bytes(&p, end, fhash, HASH_SIZE) < 0 ||
	.loc 1 264 9 is_stmt 0 view .LVU148
	leaq	48(%rsp), %r13	#, tmp192
	leaq	32(%rsp), %r12	#, tmp131
# peer.c:262:     const uint8_t *p = payload, *end = payload + plen;
	.loc 1 262 20 view .LVU149
	movq	%rsi, 32(%rsp)	# payload, p
# peer.c:264:     if (buf_get_bytes(&p, end, fhash, HASH_SIZE) < 0 ||
	.loc 1 264 9 view .LVU150
	movq	%r13, %rdx	# tmp192,
.LVL52:
	.loc 1 264 9 view .LVU151
	movq	%rbx, %rsi	# end,
.LVL53:
	.loc 1 264 9 view .LVU152
	movq	%r12, %rdi	# tmp131,
.LVL54:
	.loc 1 264 9 view .LVU153
	call	buf_get_bytes@PLT	#
.LVL55:
# peer.c:264:     if (buf_get_bytes(&p, end, fhash, HASH_SIZE) < 0 ||
	.loc 1 264 8 discriminator 1 view .LVU154
	testl	%eax, %eax	# tmp197
	js	.L42	#,
# peer.c:265:         buf_get_u32  (&p, end, &idx)            < 0) return;
	.loc 1 265 9 view .LVU155
	leaq	24(%rsp), %rdx	#, tmp132
	movq	%rbx, %rsi	# end,
	movq	%r12, %rdi	# tmp131,
	call	buf_get_u32@PLT	#
.LVL56:
# peer.c:264:     if (buf_get_bytes(&p, end, fhash, HASH_SIZE) < 0 ||
	.loc 1 264 54 discriminator 1 view .LVU156
	testl	%eax, %eax	# tmp198
	js	.L42	#,
	.loc 1 267 5 is_stmt 1 view .LVU157
	leaq	shared_lock(%rip), %r12	#, tmp193
	movq	%r12, %rdi	# tmp193,
	call	pthread_mutex_lock@PLT	#
.LVL57:
	.loc 1 268 5 view .LVU158
.LBB212:
.LBI212:
	.loc 1 66 23 view .LVU159
	.loc 1 67 5 view .LVU160
.LBB213:
	.loc 1 67 10 view .LVU161
# peer.c:67:     for (shared_file_t *f = shared_files; f; f = f->next)
	.loc 1 67 25 is_stmt 0 view .LVU162
	movq	shared_files(%rip), %rbx	# shared_files, f
.LVL58:
	.loc 1 67 43 is_stmt 1 discriminator 1 view .LVU163
	testq	%rbx, %rbx	# f
	jne	.L48	#,
	jmp	.L44	#
	.p2align 4,,10
	.p2align 3
.L57:
	.loc 1 67 48 discriminator 2 view .LVU164
	movq	2368(%rbx), %rbx	# f_103->next, f
.LVL59:
	.loc 1 67 43 discriminator 1 view .LVU165
	testq	%rbx, %rbx	# f
	je	.L44	#,
.L48:
	.loc 1 68 9 view .LVU166
# peer.c:68:         if (memcmp(f->file_hash, hash, HASH_SIZE) == 0) return f;
	.loc 1 68 13 is_stmt 0 view .LVU167
	movq	(%rbx), %rax	# MEM <char[1:32]> [(void *)f_103], tmp207
	movq	8(%rbx), %rdx	# MEM <char[1:32]> [(void *)f_103], tmp209
	xorq	0(%r13), %rax	# MEM <char[1:32]> [(void *)&fhash], tmp206
	xorq	8(%r13), %rdx	# MEM <char[1:32]> [(void *)&fhash], tmp208
	orq	%rdx, %rax	# tmp208, tmp206
	jne	.L57	#,
	.loc 1 68 13 view .LVU168
	movq	16(%rbx), %rax	# MEM <char[1:32]> [(void *)f_103], tmp203
	movq	24(%rbx), %rdx	# MEM <char[1:32]> [(void *)f_103], tmp205
	xorq	16(%r13), %rax	# MEM <char[1:32]> [(void *)&fhash], tmp202
	xorq	24(%r13), %rdx	# MEM <char[1:32]> [(void *)&fhash], tmp204
	orq	%rdx, %rax	# tmp204, tmp202
	jne	.L57	#,
.LVL60:
	.loc 1 68 13 view .LVU169
.LBE213:
.LBE212:
	.loc 1 269 5 is_stmt 1 view .LVU170
# peer.c:269:     if (!f || idx >= f->chunk_count || !BIT_TEST(f->bitfield, idx)) {
	.loc 1 269 19 is_stmt 0 discriminator 1 view .LVU171
	movl	24(%rsp), %eax	# idx, idx.31_5
# peer.c:269:     if (!f || idx >= f->chunk_count || !BIT_TEST(f->bitfield, idx)) {
	.loc 1 269 12 discriminator 1 view .LVU172
	cmpl	2348(%rbx), %eax	# f_103->chunk_count, idx.31_5
	jnb	.L44	#,
# peer.c:269:     if (!f || idx >= f->chunk_count || !BIT_TEST(f->bitfield, idx)) {
	.loc 1 269 41 discriminator 2 view .LVU173
	movl	%eax, %edx	# idx.31_5, tmp138
	movq	2360(%rbx), %rcx	# f_103->bitfield, f_103->bitfield
	andl	$7, %eax	#, tmp142
	shrl	$3, %edx	#,
	movzbl	(%rcx,%rdx), %edx	# *_9, *_9
# peer.c:269:     if (!f || idx >= f->chunk_count || !BIT_TEST(f->bitfield, idx)) {
	.loc 1 269 37 discriminator 2 view .LVU174
	btl	%eax, %edx	# tmp142, *_9
	jc	.L49	#,
.LVL61:
.L44:
	.loc 1 269 5 is_stmt 1 view .LVU175
.LBB214:
	.loc 1 270 9 view .LVU176
	movq	%r12, %rdi	# tmp193,
# peer.c:271:         uint8_t nf[HASH_SIZE + 4]; uint8_t *w = nf;
	.loc 1 271 45 is_stmt 0 view .LVU177
	leaq	160(%rsp), %rbx	#, tmp146
# peer.c:270:         pthread_mutex_unlock(&shared_lock);
	.loc 1 270 9 view .LVU178
	call	pthread_mutex_unlock@PLT	#
.LVL62:
	.loc 1 271 9 is_stmt 1 view .LVU179
	.loc 1 271 36 view .LVU180
.L62:
	.loc 1 271 36 is_stmt 0 view .LVU181
.LBE214:
.LBB215:
# peer.c:289:         buf_put_bytes(&w, fhash, HASH_SIZE);
	.loc 1 289 9 view .LVU182
	leaq	40(%rsp), %r12	#, tmp169
	movl	$32, %edx	#,
	movq	%r13, %rsi	# tmp192,
# peer.c:288:         uint8_t nf[HASH_SIZE + 4]; uint8_t *w = nf;
	.loc 1 288 45 view .LVU183
	movq	%rbx, 40(%rsp)	# tmp167, MEM[(uint8_t * *)_66]
	.loc 1 289 9 is_stmt 1 view .LVU184
	movq	%r12, %rdi	# tmp169,
	call	buf_put_bytes@PLT	#
.LVL63:
	.loc 1 290 9 view .LVU185
	movl	24(%rsp), %esi	# idx,
	movq	%r12, %rdi	# tmp169,
	call	buf_put_u32@PLT	#
.LVL64:
	.loc 1 291 9 view .LVU186
	movl	$36, %ecx	#,
	movq	%rbx, %rdx	# tmp167,
	movl	%ebp, %edi	# fd,
	movl	$36, %esi	#,
	call	msg_send@PLT	#
.LVL65:
	.loc 1 292 9 view .LVU187
.L42:
	.loc 1 292 9 is_stmt 0 view .LVU188
.LBE215:
# peer.c:303: }
	.loc 1 303 1 view .LVU189
	movq	2216(%rsp), %rax	# D.8714, tmp212
	subq	%fs:40, %rax	# MEM[(<address-space-1> long unsigned int *)40B], tmp212
	jne	.L63	#,
	addq	$2232, %rsp	#,
	.cfi_remember_state
	.cfi_def_cfa_offset 56
	popq	%rbx	#
	.cfi_def_cfa_offset 48
	popq	%rbp	#
	.cfi_def_cfa_offset 40
.LVL66:
	.loc 1 303 1 view .LVU190
	popq	%r12	#
	.cfi_def_cfa_offset 32
	popq	%r13	#
	.cfi_def_cfa_offset 24
	popq	%r14	#
	.cfi_def_cfa_offset 16
	popq	%r15	#
	.cfi_def_cfa_offset 8
	ret	
.LVL67:
	.p2align 4,,10
	.p2align 3
.L49:
	.cfi_restore_state
	.loc 1 277 5 is_stmt 1 view .LVU191
	.loc 1 277 31 view .LVU192
.LBB216:
.LBI216:
	.loc 2 51 1 view .LVU193
.LBB217:
	.loc 2 54 3 view .LVU194
# /usr/include/x86_64-linux-gnu/bits/stdio2.h:54:   return __builtin___snprintf_chk (__s, __n, __USE_FORTIFY_LEVEL - 1,
	.loc 2 54 10 is_stmt 0 discriminator 1 view .LVU195
	leaq	160(%rsp), %r15	#, tmp153
.LVL68:
	.loc 2 54 10 discriminator 1 view .LVU196
	movl	$2048, %esi	#,
	leaq	32(%rbx), %rcx	#, tmp152
	xorl	%eax, %eax	#
	leaq	.LC1(%rip), %rdx	#, tmp154
	movq	%r15, %rdi	# tmp153,
	call	snprintf@PLT	#
.LVL69:
	.loc 2 54 10 discriminator 1 view .LVU197
.LBE217:
.LBE216:
	.loc 1 278 5 is_stmt 1 view .LVU198
# peer.c:281:     memcpy(chash, f->chunk_hashes + (size_t)idx * HASH_SIZE, HASH_SIZE);
	.loc 1 281 37 is_stmt 0 view .LVU199
	movl	24(%rsp), %eax	# idx, idx
# peer.c:278:     uint64_t fsize  = f->file_size;
	.loc 1 278 14 view .LVU200
	movq	2336(%rbx), %rcx	# f_103->file_size, fsize
# peer.c:282:     pthread_mutex_unlock(&shared_lock);
	.loc 1 282 5 view .LVU201
	movq	%r12, %rdi	# tmp193,
# peer.c:279:     uint32_t csize  = f->chunk_size;
	.loc 1 279 14 view .LVU202
	movl	2344(%rbx), %r14d	# f_103->chunk_size, csize
.LBB218:
.LBB219:
# /usr/include/x86_64-linux-gnu/bits/string_fortified.h:29:   return __builtin___memcpy_chk (__dest, __src, __len,
	.file 3 "/usr/include/x86_64-linux-gnu/bits/string_fortified.h"
	.loc 3 29 10 discriminator 1 view .LVU203
	salq	$5, %rax	#, tmp157
	addq	2352(%rbx), %rax	# f_103->chunk_hashes, tmp158
.LBE219:
.LBE218:
# peer.c:278:     uint64_t fsize  = f->file_size;
	.loc 1 278 14 view .LVU204
	movq	%rcx, 8(%rsp)	# fsize, %sfp
.LVL70:
	.loc 1 279 5 is_stmt 1 view .LVU205
	.loc 1 280 5 view .LVU206
	.loc 1 281 5 view .LVU207
.LBB222:
.LBI218:
	.loc 3 26 1 view .LVU208
.LBB220:
	.loc 3 29 3 view .LVU209
	.loc 3 29 3 is_stmt 0 view .LVU210
.LBE220:
.LBE222:
	.loc 1 282 5 is_stmt 1 view .LVU211
.LBB223:
.LBB221:
# /usr/include/x86_64-linux-gnu/bits/string_fortified.h:29:   return __builtin___memcpy_chk (__dest, __src, __len,
	.loc 3 29 10 is_stmt 0 discriminator 1 view .LVU212
	movdqu	(%rax), %xmm0	# MEM <unsigned char[32]> [(char * {ref-all})_20], tmp215
	movaps	%xmm0, 80(%rsp)	# tmp215, MEM <unsigned char[32]> [(char * {ref-all})&chash]
	movdqu	16(%rax), %xmm1	# MEM <unsigned char[32]> [(char * {ref-all})_20], tmp216
	movaps	%xmm1, 96(%rsp)	# tmp216, MEM <unsigned char[32]> [(char * {ref-all})&chash]
.LBE221:
.LBE223:
# peer.c:282:     pthread_mutex_unlock(&shared_lock);
	.loc 1 282 5 view .LVU213
	call	pthread_mutex_unlock@PLT	#
.LVL71:
	.loc 1 284 5 is_stmt 1 view .LVU214
# peer.c:284:     uint8_t  *data = malloc(csize);
	.loc 1 284 22 is_stmt 0 view .LVU215
	movl	%r14d, %edi	# csize, csize
	call	malloc@PLT	#
.LVL72:
# peer.c:286:     if (read_chunk(path, idx, csize, fsize, data, &dlen) < 0) {
	.loc 1 286 9 view .LVU216
	movq	8(%rsp), %rcx	# %sfp, fsize
	movl	%r14d, %edx	# csize,
	movq	%r15, %rdi	# tmp153,
	movl	24(%rsp), %esi	# idx,
	leaq	28(%rsp), %r9	#,
	movq	%rax, %r8	# tmp163,
# peer.c:284:     uint8_t  *data = malloc(csize);
	.loc 1 284 22 view .LVU217
	movq	%rax, %rbx	# tmp199, tmp163
.LVL73:
	.loc 1 285 5 is_stmt 1 view .LVU218
# peer.c:285:     uint32_t  dlen = 0;
	.loc 1 285 15 is_stmt 0 view .LVU219
	movl	$0, 28(%rsp)	#, dlen
	.loc 1 286 5 is_stmt 1 view .LVU220
# peer.c:286:     if (read_chunk(path, idx, csize, fsize, data, &dlen) < 0) {
	.loc 1 286 9 is_stmt 0 view .LVU221
	call	read_chunk@PLT	#
.LVL74:
# peer.c:286:     if (read_chunk(path, idx, csize, fsize, data, &dlen) < 0) {
	.loc 1 286 8 discriminator 1 view .LVU222
	testl	%eax, %eax	# tmp200
	js	.L64	#,
	.loc 1 294 5 is_stmt 1 view .LVU223
.LVL75:
	.loc 1 295 5 view .LVU224
# peer.c:294:     size_t cap = HASH_SIZE + 4 + HASH_SIZE + 4 + dlen;
	.loc 1 294 12 is_stmt 0 view .LVU225
	movl	28(%rsp), %eax	# dlen, dlen
# peer.c:296:     buf_put_bytes(&w, fhash, HASH_SIZE);
	.loc 1 296 5 view .LVU226
	leaq	40(%rsp), %r14	#, tmp178
.LVL76:
# peer.c:294:     size_t cap = HASH_SIZE + 4 + HASH_SIZE + 4 + dlen;
	.loc 1 294 12 view .LVU227
	leal	72(%rax), %edi	#, cap
.LVL77:
# peer.c:295:     uint8_t *buf = malloc(cap), *w = buf;
	.loc 1 295 20 view .LVU228
	call	malloc@PLT	#
.LVL78:
# peer.c:296:     buf_put_bytes(&w, fhash, HASH_SIZE);
	.loc 1 296 5 view .LVU229
	movl	$32, %edx	#,
	movq	%r13, %rsi	# tmp192,
	movq	%r14, %rdi	# tmp178,
# peer.c:295:     uint8_t *buf = malloc(cap), *w = buf;
	.loc 1 295 20 view .LVU230
	movq	%rax, %r12	# tmp201, tmp176
.LVL79:
# peer.c:295:     uint8_t *buf = malloc(cap), *w = buf;
	.loc 1 295 34 discriminator 1 view .LVU231
	movq	%rax, 40(%rsp)	# tmp176, MEM[(uint8_t * *)_66]
	.loc 1 296 5 is_stmt 1 view .LVU232
	call	buf_put_bytes@PLT	#
.LVL80:
	.loc 1 297 5 view .LVU233
	movl	24(%rsp), %esi	# idx,
	movq	%r14, %rdi	# tmp178,
	call	buf_put_u32@PLT	#
.LVL81:
	.loc 1 298 5 view .LVU234
	movl	$32, %edx	#,
	leaq	80(%rsp), %rsi	#, tmp181
	movq	%r14, %rdi	# tmp178,
	call	buf_put_bytes@PLT	#
.LVL82:
	.loc 1 299 5 view .LVU235
	movl	28(%rsp), %esi	# dlen,
	movq	%r14, %rdi	# tmp178,
	call	buf_put_u32@PLT	#
.LVL83:
	.loc 1 300 5 view .LVU236
	movl	28(%rsp), %edx	# dlen, dlen
	movq	%rbx, %rsi	# tmp163,
	movq	%r14, %rdi	# tmp178,
	call	buf_put_bytes@PLT	#
.LVL84:
	.loc 1 301 5 view .LVU237
	movl	40(%rsp), %ecx	# MEM[(uint8_t * *)_66], tmp189
	movl	%ebp, %edi	# fd,
	movq	%r12, %rdx	# tmp176,
	movl	$35, %esi	#,
	subl	%r12d, %ecx	# tmp176, tmp189
	call	msg_send@PLT	#
.LVL85:
	.loc 1 302 5 view .LVU238
	movq	%r12, %rdi	# tmp176,
	call	free@PLT	#
.LVL86:
	.loc 1 302 16 discriminator 1 view .LVU239
	movq	2216(%rsp), %rax	# D.8714, tmp211
	subq	%fs:40, %rax	# MEM[(<address-space-1> long unsigned int *)40B], tmp211
	jne	.L63	#,
# peer.c:303: }
	.loc 1 303 1 is_stmt 0 view .LVU240
	addq	$2232, %rsp	#,
	.cfi_remember_state
	.cfi_def_cfa_offset 56
# peer.c:302:     free(buf); free(data);
	.loc 1 302 16 discriminator 1 view .LVU241
	movq	%rbx, %rdi	# tmp163,
# peer.c:303: }
	.loc 1 303 1 view .LVU242
	popq	%rbx	#
	.cfi_def_cfa_offset 48
.LVL87:
	.loc 1 303 1 view .LVU243
	popq	%rbp	#
	.cfi_def_cfa_offset 40
.LVL88:
	.loc 1 303 1 view .LVU244
	popq	%r12	#
	.cfi_def_cfa_offset 32
.LVL89:
	.loc 1 303 1 view .LVU245
	popq	%r13	#
	.cfi_def_cfa_offset 24
	popq	%r14	#
	.cfi_def_cfa_offset 16
	popq	%r15	#
	.cfi_def_cfa_offset 8
# peer.c:302:     free(buf); free(data);
	.loc 1 302 16 discriminator 1 view .LVU246
	jmp	free@PLT	#
.LVL90:
.L64:
	.cfi_restore_state
.LBB224:
	.loc 1 287 9 is_stmt 1 view .LVU247
	movq	%rbx, %rdi	# tmp163,
# peer.c:288:         uint8_t nf[HASH_SIZE + 4]; uint8_t *w = nf;
	.loc 1 288 45 is_stmt 0 view .LVU248
	leaq	112(%rsp), %rbx	#, tmp167
.LVL91:
# peer.c:287:         free(data);
	.loc 1 287 9 view .LVU249
	call	free@PLT	#
.LVL92:
	.loc 1 288 9 is_stmt 1 view .LVU250
	.loc 1 288 36 view .LVU251
	jmp	.L62	#
.LVL93:
.L63:
	.loc 1 288 36 is_stmt 0 view .LVU252
.LBE224:
# peer.c:303: }
	.loc 1 303 1 view .LVU253
	call	__stack_chk_fail@PLT	#
.LVL94:
	.cfi_endproc
.LFE88:
	.size	serve_get_chunk, .-serve_get_chunk
	.section	.rodata.str1.8
	.align 8
.LC2:
	.string	"[ERR ] [w%d] no peer could serve chunk %u \342\200\224 giving up\n"
	.align 8
.LC3:
	.string	"[WARN] [w%d] hash mismatch from %s:%u for chunk %u\n"
	.align 8
.LC4:
	.string	"[INFO] [w%d] chunk %u/%u from %s:%u (%u bytes)\n"
	.text
	.p2align 4
	.type	download_worker, @function
download_worker:
.LVL95:
.LFB94:
	.loc 1 438 41 is_stmt 1 view -0
	.cfi_startproc
	.loc 1 438 41 is_stmt 0 view .LVU255
	endbr64	
	pushq	%r15	#
	.cfi_def_cfa_offset 16
	.cfi_offset 15, -16
	pushq	%r14	#
	.cfi_def_cfa_offset 24
	.cfi_offset 14, -24
	pushq	%r13	#
	.cfi_def_cfa_offset 32
	.cfi_offset 13, -32
	pushq	%r12	#
	.cfi_def_cfa_offset 40
	.cfi_offset 12, -40
	pushq	%rbp	#
	.cfi_def_cfa_offset 48
	.cfi_offset 6, -48
	pushq	%rbx	#
	.cfi_def_cfa_offset 56
	.cfi_offset 3, -56
	subq	$280, %rsp	#,
	.cfi_def_cfa_offset 336
# peer.c:440:     dl_ctx_t     *ctx = wa->ctx;
	.loc 1 440 19 view .LVU256
	movq	(%rdi), %r15	# MEM[(struct worker_arg_t *)arg_87(D)].ctx, ctx
# peer.c:438: static void *download_worker(void *arg) {
	.loc 1 438 41 view .LVU257
	movq	%fs:40, %rax	# MEM[(<address-space-1> long unsigned int *)40B], tmp334
	movq	%rax, 264(%rsp)	# tmp334, D.8788
	xorl	%eax, %eax	# tmp334
	.loc 1 439 5 is_stmt 1 view .LVU258
.LVL96:
	.loc 1 440 5 view .LVU259
	.loc 1 441 5 view .LVU260
# peer.c:441:     int           wid = wa->worker_id;
	.loc 1 441 19 is_stmt 0 view .LVU261
	movl	8(%rdi), %eax	# MEM[(struct worker_arg_t *)arg_87(D)].worker_id, wid
	movl	%eax, 8(%rsp)	# wid, %sfp
.LVL97:
	.loc 1 442 5 is_stmt 1 view .LVU262
	call	free@PLT	#
.LVL98:
	.loc 1 443 5 view .LVU263
# peer.c:443:     uint8_t *buf = malloc(ctx->info->chunk_size);
	.loc 1 443 36 is_stmt 0 view .LVU264
	movq	(%r15), %rax	# ctx_90->info, ctx_90->info
# peer.c:443:     uint8_t *buf = malloc(ctx->info->chunk_size);
	.loc 1 443 20 view .LVU265
	movl	296(%rax), %eax	# _1->chunk_size, _3
	movq	%rax, %rdi	# _3,
	movq	%rax, 72(%rsp)	# _3, %sfp
	call	malloc@PLT	#
.LVL99:
	movq	%rax, 64(%rsp)	# tmp307, %sfp
.LVL100:
	.loc 1 443 20 view .LVU266
	leaq	24(%r15), %rax	#, _4
.LVL101:
	.loc 1 443 20 view .LVU267
	movq	%rax, 48(%rsp)	# _4, %sfp
	.p2align 4,,10
	.p2align 3
.L73:
.LBB245:
.LBB246:
.LBB247:
.LBB248:
.LBB249:
# peer.c:370:     uint8_t req[HASH_SIZE + 4], *w = req;
	.loc 1 370 34 view .LVU268
	leaq	224(%rsp), %rax	#, tmp302
	movq	%rax, 32(%rsp)	# tmp302, %sfp
	.p2align 4,,10
	.p2align 3
.L90:
.LBE249:
.LBE248:
.LBE247:
.LBE246:
.LBE245:
	.loc 1 445 5 is_stmt 1 view .LVU269
.LBB299:
	.loc 1 446 9 view .LVU270
	movq	48(%rsp), %rdi	# %sfp,
	call	pthread_mutex_lock@PLT	#
.LVL102:
	.loc 1 447 9 view .LVU271
.LBB282:
.LBI282:
	.loc 1 424 16 view .LVU272
.LBB283:
	.loc 1 425 5 view .LVU273
# peer.c:425:     if (ctx->info->chunk_count == 0) return -1;
	.loc 1 425 18 is_stmt 0 view .LVU274
	movq	(%r15), %rax	# ctx_90->info, ctx_90->info
	movl	300(%rax), %edi	# _129->chunk_count, _130
# peer.c:425:     if (ctx->info->chunk_count == 0) return -1;
	.loc 1 425 8 view .LVU275
	testl	%edi, %edi	# _130
	je	.L101	#,
.LBB284:
.LBB285:
# peer.c:427:         uint32_t idx = (ctx->rr_cursor + i) % ctx->info->chunk_count;
	.loc 1 427 28 view .LVU276
	movl	2132(%r15), %ecx	# ctx_90->rr_cursor, ivtmp.291
# peer.c:428:         if (!BIT_TEST(ctx->bitfield, idx) && !BIT_TEST(ctx->failed, idx)) {
	.loc 1 428 14 view .LVU277
	movq	8(%r15), %r9	# ctx_90->bitfield, _135
	leal	(%rdi,%rcx), %r10d	#, _20
	.p2align 4,,10
	.p2align 3
.L70:
.LVL103:
	.loc 1 427 9 is_stmt 1 view .LVU278
# peer.c:427:         uint32_t idx = (ctx->rr_cursor + i) % ctx->info->chunk_count;
	.loc 1 427 18 is_stmt 0 view .LVU279
	xorl	%edx, %edx	# tmp209
	movl	%ecx, %eax	# ivtmp.291, tmp210
	divl	%edi	# _130
.LVL104:
	.loc 1 428 9 is_stmt 1 view .LVU280
# peer.c:428:         if (!BIT_TEST(ctx->bitfield, idx) && !BIT_TEST(ctx->failed, idx)) {
	.loc 1 428 14 is_stmt 0 view .LVU281
	movl	%edx, %esi	# tmp209, tmp211
	movl	%edx, %ebp	# tmp209, _141
	shrl	$3, %esi	#,
	andl	$7, %ebp	#, _141
	movzbl	(%r9,%rsi), %eax	# *_138, *_138
# peer.c:428:         if (!BIT_TEST(ctx->bitfield, idx) && !BIT_TEST(ctx->failed, idx)) {
	.loc 1 428 12 view .LVU282
	btl	%ebp, %eax	# _141, *_138
	jc	.L68	#,
# peer.c:428:         if (!BIT_TEST(ctx->bitfield, idx) && !BIT_TEST(ctx->failed, idx)) {
	.loc 1 428 47 discriminator 1 view .LVU283
	movq	16(%r15), %rax	# ctx_90->failed, ctx_90->failed
	movzbl	(%rax,%rsi), %eax	# *_145, *_145
# peer.c:428:         if (!BIT_TEST(ctx->bitfield, idx) && !BIT_TEST(ctx->failed, idx)) {
	.loc 1 428 43 discriminator 1 view .LVU284
	btl	%ebp, %eax	# _141, *_145
	jnc	.L107	#,
.L68:
	.loc 1 428 43 discriminator 1 view .LVU285
.LBE285:
	.loc 1 426 55 is_stmt 1 discriminator 2 view .LVU286
.LVL105:
	.loc 1 426 28 discriminator 1 view .LVU287
	addl	$1, %ecx	#, ivtmp.291
	cmpl	%ecx, %r10d	# ivtmp.291, _20
	jne	.L70	#,
.LVL106:
.L101:
	.loc 1 426 28 is_stmt 0 discriminator 1 view .LVU288
.LBE284:
.LBE283:
.LBE282:
	.loc 1 448 9 is_stmt 1 view .LVU289
	movq	48(%rsp), %rdi	# %sfp,
	call	pthread_mutex_unlock@PLT	#
.LVL107:
	.loc 1 449 9 view .LVU290
.L67:
	.loc 1 449 9 is_stmt 0 view .LVU291
.LBE299:
	.loc 1 495 5 is_stmt 1 view .LVU292
	movq	64(%rsp), %rdi	# %sfp,
	call	free@PLT	#
.LVL108:
	.loc 1 496 5 view .LVU293
# peer.c:497: }
	.loc 1 497 1 is_stmt 0 view .LVU294
	movq	264(%rsp), %rax	# D.8788, tmp335
	subq	%fs:40, %rax	# MEM[(<address-space-1> long unsigned int *)40B], tmp335
	jne	.L108	#,
	addq	$280, %rsp	#,
	.cfi_remember_state
	.cfi_def_cfa_offset 56
	xorl	%eax, %eax	#
	popq	%rbx	#
	.cfi_def_cfa_offset 48
	popq	%rbp	#
	.cfi_def_cfa_offset 40
	popq	%r12	#
	.cfi_def_cfa_offset 32
	popq	%r13	#
	.cfi_def_cfa_offset 24
	popq	%r14	#
	.cfi_def_cfa_offset 16
	popq	%r15	#
	.cfi_def_cfa_offset 8
.LVL109:
	.loc 1 497 1 view .LVU295
	ret	
.LVL110:
	.p2align 4,,10
	.p2align 3
.L107:
	.cfi_restore_state
.LBB300:
.LBB292:
.LBB290:
.LBB288:
.LBB286:
# peer.c:429:             ctx->rr_cursor = (idx + 1) % ctx->info->chunk_count;
	.loc 1 429 35 view .LVU296
	movl	%edx, (%rsp)	# tmp209, %sfp
	leal	1(%rdx), %eax	#, tmp219
# peer.c:429:             ctx->rr_cursor = (idx + 1) % ctx->info->chunk_count;
	.loc 1 429 40 view .LVU297
	xorl	%edx, %edx	# tmp220
.LVL111:
	.loc 1 429 40 view .LVU298
	divl	%edi	# _130
.LBE286:
.LBE288:
.LBE290:
.LBE292:
# peer.c:448:         pthread_mutex_unlock(&ctx->lock);
	.loc 1 448 9 view .LVU299
	movq	48(%rsp), %rdi	# %sfp,
.LBB293:
.LBB291:
.LBB289:
.LBB287:
# peer.c:429:             ctx->rr_cursor = (idx + 1) % ctx->info->chunk_count;
	.loc 1 429 35 view .LVU300
	movq	%rsi, 16(%rsp)	# _137, %sfp
	.loc 1 429 13 is_stmt 1 view .LVU301
# peer.c:429:             ctx->rr_cursor = (idx + 1) % ctx->info->chunk_count;
	.loc 1 429 28 is_stmt 0 view .LVU302
	movl	%edx, 2132(%r15)	# tmp220, ctx_90->rr_cursor
	.loc 1 430 13 is_stmt 1 view .LVU303
.LVL112:
	.loc 1 430 13 is_stmt 0 view .LVU304
.LBE287:
.LBE289:
.LBE291:
.LBE293:
	.loc 1 448 9 is_stmt 1 view .LVU305
	call	pthread_mutex_unlock@PLT	#
.LVL113:
	.loc 1 449 9 view .LVU306
# peer.c:449:         if (idx < 0) break;
	.loc 1 449 12 is_stmt 0 view .LVU307
	movl	(%rsp), %r8d	# %sfp, tmp209
	testl	%r8d, %r8d	# tmp209
	js	.L67	#,
.LVL114:
.LBB294:
	.loc 1 452 34 is_stmt 1 discriminator 1 view .LVU308
# peer.c:452:         for (uint32_t pi = 0; pi < ctx->n_peers; pi++) {
	.loc 1 452 39 is_stmt 0 discriminator 1 view .LVU309
	movl	2128(%r15), %edi	# ctx_90->n_peers, _67
# peer.c:452:         for (uint32_t pi = 0; pi < ctx->n_peers; pi++) {
	.loc 1 452 34 discriminator 1 view .LVU310
	testl	%edi, %edi	# _67
	je	.L109	#,
	movl	$1, %eax	#, shifttmp_13
	movl	%ebp, %ecx	# _141, tmp368
.LBB276:
# peer.c:456:             if (BITFIELD_BYTES((uint32_t)idx + 1) > pr->bf_len) continue;
	.loc 1 456 17 view .LVU311
	leal	8(%r8), %r13d	#, tmp227
.LBE276:
# peer.c:452:         for (uint32_t pi = 0; pi < ctx->n_peers; pi++) {
	.loc 1 452 23 view .LVU312
	movl	%ebp, 60(%rsp)	# _141, %sfp
	sall	%cl, %eax	# tmp368, shifttmp_13
.LBB277:
# peer.c:456:             if (BITFIELD_BYTES((uint32_t)idx + 1) > pr->bf_len) continue;
	.loc 1 456 17 view .LVU313
	shrl	$3, %r13d	#, tmp227
.LBE277:
# peer.c:452:         for (uint32_t pi = 0; pi < ctx->n_peers; pi++) {
	.loc 1 452 23 view .LVU314
	movl	%r8d, (%rsp)	# tmp209, %sfp
.LVL115:
	.loc 1 452 23 view .LVU315
	xorl	%r14d, %r14d	# pi
	movl	%eax, 56(%rsp)	# shifttmp_13, %sfp
.LBB278:
# peer.c:461:                                  ctx->info->chunk_hashes + (uint32_t)idx * HASH_SIZE,
	.loc 1 461 74 view .LVU316
	movl	%r8d, %eax	# tmp209, tmp229
	sall	$5, %eax	#,
# peer.c:456:             if (BITFIELD_BYTES((uint32_t)idx + 1) > pr->bf_len) continue;
	.loc 1 456 17 view .LVU317
	movl	%r13d, 12(%rsp)	# tmp227, %sfp
# peer.c:461:                                  ctx->info->chunk_hashes + (uint32_t)idx * HASH_SIZE,
	.loc 1 461 74 view .LVU318
	movq	%rax, 40(%rsp)	# _31, %sfp
	jmp	.L91	#
.LVL116:
	.p2align 4,,10
	.p2align 3
.L84:
.LBB262:
.LBB256:
	.loc 1 388 9 is_stmt 1 view .LVU319
	movq	112(%rsp), %rdi	# p,
	call	free@PLT	#
.LVL117:
	.loc 1 388 18 discriminator 1 view .LVU320
	.loc 1 388 18 is_stmt 0 discriminator 1 view .LVU321
.LBE256:
.LBE262:
	.loc 1 463 13 is_stmt 1 view .LVU322
	movl	2128(%r15), %edi	# ctx_90->n_peers, _67
.LVL118:
	.p2align 4,,10
	.p2align 3
.L76:
	.loc 1 463 13 is_stmt 0 view .LVU323
.LBE278:
	.loc 1 452 52 is_stmt 1 discriminator 2 view .LVU324
	addl	$1, %r14d	#, pi
.LVL119:
	.loc 1 452 34 discriminator 1 view .LVU325
	cmpl	%edi, %r14d	# _67, pi
	jnb	.L110	#,
.LVL120:
.L91:
.LBB279:
	.loc 1 453 13 view .LVU326
	.loc 1 454 13 view .LVU327
# peer.c:453:             uint32_t pidx = (pi + (uint32_t)wid) % ctx->n_peers;
	.loc 1 453 33 is_stmt 0 view .LVU328
	movl	8(%rsp), %eax	# %sfp, wid
# peer.c:454:             dl_peer_t *pr = &ctx->peers[pidx];
	.loc 1 454 40 view .LVU329
	xorl	%edx, %edx	# pidx
# peer.c:453:             uint32_t pidx = (pi + (uint32_t)wid) % ctx->n_peers;
	.loc 1 453 33 view .LVU330
	addl	%r14d, %eax	# pi, tmp230
# peer.c:454:             dl_peer_t *pr = &ctx->peers[pidx];
	.loc 1 454 40 view .LVU331
	divl	%edi	# _67
# peer.c:454:             dl_peer_t *pr = &ctx->peers[pidx];
	.loc 1 454 24 view .LVU332
	movq	2120(%r15), %rax	# ctx_90->peers, ctx_90->peers
# peer.c:454:             dl_peer_t *pr = &ctx->peers[pidx];
	.loc 1 454 40 view .LVU333
	leaq	(%rdx,%rdx,4), %rdx	#, tmp237
# peer.c:454:             dl_peer_t *pr = &ctx->peers[pidx];
	.loc 1 454 24 view .LVU334
	leaq	(%rax,%rdx,8), %r12	#, pr
.LVL121:
	.loc 1 455 13 is_stmt 1 view .LVU335
# peer.c:455:             if (!pr->alive) continue;
	.loc 1 455 16 is_stmt 0 view .LVU336
	movl	36(%r12), %ecx	# pr_101->alive,
	testl	%ecx, %ecx	#
	je	.L76	#,
	.loc 1 456 13 is_stmt 1 view .LVU337
# peer.c:456:             if (BITFIELD_BYTES((uint32_t)idx + 1) > pr->bf_len) continue;
	.loc 1 456 16 is_stmt 0 view .LVU338
	movl	12(%rsp), %eax	# %sfp, _15
	cmpl	%eax, 32(%r12)	# _15, pr_101->bf_len
	jb	.L76	#,
	.loc 1 457 13 is_stmt 1 view .LVU339
# peer.c:457:             if (!BIT_TEST(pr->bitfield, (uint32_t)idx)) continue;
	.loc 1 457 18 is_stmt 0 view .LVU340
	movq	24(%r12), %rax	# pr_101->bitfield, pr_101->bitfield
	movq	16(%rsp), %rbx	# %sfp, _137
	movzbl	(%rax,%rbx), %eax	# *_21, *_21
# peer.c:457:             if (!BIT_TEST(pr->bitfield, (uint32_t)idx)) continue;
	.loc 1 457 16 view .LVU341
	testl	%eax, 56(%rsp)	# *_21, %sfp
	je	.L76	#,
	.loc 1 458 13 is_stmt 1 view .LVU342
.LVL122:
	.loc 1 459 13 view .LVU343
# peer.c:461:                                  ctx->info->chunk_hashes + (uint32_t)idx * HASH_SIZE,
	.loc 1 461 37 is_stmt 0 view .LVU344
	movq	(%r15), %rbp	# ctx_90->info, _27
.LBB263:
.LBB257:
# peer.c:368:     int fd = tcp_connect(ip, port);
	.loc 1 368 14 view .LVU345
	movzwl	20(%r12), %esi	# pr_101->port, pr_101->port
	movl	16(%r12), %edi	# pr_101->ip, pr_101->ip
.LVL123:
	.loc 1 368 14 view .LVU346
.LBE257:
.LBE263:
# peer.c:461:                                  ctx->info->chunk_hashes + (uint32_t)idx * HASH_SIZE,
	.loc 1 461 58 view .LVU347
	movq	40(%rsp), %rax	# %sfp, _32
	addq	304(%rbp), %rax	# _27->chunk_hashes, _32
	movq	%rax, 24(%rsp)	# _32, %sfp
.LVL124:
.LBB264:
.LBI248:
	.loc 1 364 12 is_stmt 1 view .LVU348
.LBB258:
	.loc 1 368 5 view .LVU349
# peer.c:368:     int fd = tcp_connect(ip, port);
	.loc 1 368 14 is_stmt 0 view .LVU350
	call	tcp_connect@PLT	#
.LVL125:
	.loc 1 368 14 view .LVU351
	movl	%eax, %ebx	# tmp308, fd
.LVL126:
	.loc 1 369 5 is_stmt 1 view .LVU352
# peer.c:369:     if (fd < 0) return -1;
	.loc 1 369 8 is_stmt 0 view .LVU353
	testl	%eax, %eax	# fd
	js	.L106	#,
	.loc 1 370 5 is_stmt 1 view .LVU354
# peer.c:370:     uint8_t req[HASH_SIZE + 4], *w = req;
	.loc 1 370 34 is_stmt 0 view .LVU355
	movq	32(%rsp), %rax	# %sfp, tmp302
.LVL127:
# peer.c:371:     buf_put_bytes(&w, fhash, HASH_SIZE);
	.loc 1 371 5 view .LVU356
	leaq	104(%rsp), %r13	#, tmp247
	movl	$32, %edx	#,
	movq	%rbp, %rsi	# _27,
	movq	%r13, %rdi	# tmp247,
# peer.c:370:     uint8_t req[HASH_SIZE + 4], *w = req;
	.loc 1 370 34 view .LVU357
	movq	%rax, 104(%rsp)	# tmp302, w
	.loc 1 371 5 is_stmt 1 view .LVU358
	call	buf_put_bytes@PLT	#
.LVL128:
	.loc 1 372 5 view .LVU359
	movl	(%rsp), %esi	# %sfp,
	movq	%r13, %rdi	# tmp247,
	call	buf_put_u32@PLT	#
.LVL129:
	.loc 1 373 5 view .LVU360
# peer.c:373:     if (msg_send(fd, MSG_GET_CHUNK, req, sizeof req) < 0) { close(fd); return -1; }
	.loc 1 373 9 is_stmt 0 view .LVU361
	movq	32(%rsp), %rdx	# %sfp,
	movl	$36, %ecx	#,
	movl	%ebx, %edi	# fd,
	movl	$34, %esi	#,
	call	msg_send@PLT	#
.LVL130:
# peer.c:373:     if (msg_send(fd, MSG_GET_CHUNK, req, sizeof req) < 0) { close(fd); return -1; }
	.loc 1 373 8 discriminator 1 view .LVU362
	testl	%eax, %eax	# tmp309
	js	.L111	#,
	.loc 1 374 5 is_stmt 1 view .LVU363
	.loc 1 374 16 view .LVU364
# peer.c:375:     int rc = msg_recv(fd, &t, &p, &l);
	.loc 1 375 14 is_stmt 0 view .LVU365
	movl	%ebx, %edi	# fd,
	leaq	92(%rsp), %rcx	#, tmp250
	leaq	112(%rsp), %rdx	#, tmp251
# peer.c:374:     uint8_t t; uint8_t *p = NULL; uint32_t l;
	.loc 1 374 25 view .LVU366
	movq	$0, 112(%rsp)	#, p
	.loc 1 374 35 is_stmt 1 view .LVU367
	.loc 1 375 5 view .LVU368
# peer.c:375:     int rc = msg_recv(fd, &t, &p, &l);
	.loc 1 375 14 is_stmt 0 view .LVU369
	leaq	91(%rsp), %rsi	#, tmp252
	call	msg_recv@PLT	#
.LVL131:
# peer.c:376:     close(fd);
	.loc 1 376 5 view .LVU370
	movl	%ebx, %edi	# fd,
# peer.c:375:     int rc = msg_recv(fd, &t, &p, &l);
	.loc 1 375 14 view .LVU371
	movl	%eax, %r13d	# tmp310, rc
.LVL132:
	.loc 1 376 5 is_stmt 1 view .LVU372
	call	close@PLT	#
.LVL133:
	.loc 1 377 5 view .LVU373
# peer.c:377:     if (rc < 0) { free(p); return -1; }
	.loc 1 377 8 is_stmt 0 view .LVU374
	testl	%r13d, %r13d	# rc
	js	.L84	#,
	.loc 1 378 5 is_stmt 1 view .LVU375
# peer.c:378:     if (t == MSG_CHUNK_NOT_FOUND) { free(p); return -2; }
	.loc 1 378 11 is_stmt 0 view .LVU376
	movzbl	91(%rsp), %eax	# t, t.173_162
# peer.c:377:     if (rc < 0) { free(p); return -1; }
	.loc 1 377 19 discriminator 1 view .LVU377
	movq	112(%rsp), %rbx	# p, pretmp_332
.LVL134:
# peer.c:378:     if (t == MSG_CHUNK_NOT_FOUND) { free(p); return -2; }
	.loc 1 378 8 view .LVU378
	cmpb	$36, %al	#, t.173_162
	je	.L105	#,
	.loc 1 379 5 is_stmt 1 view .LVU379
# peer.c:379:     if (t != MSG_CHUNK_DATA)      { free(p); return -1; }
	.loc 1 379 8 is_stmt 0 view .LVU380
	cmpb	$35, %al	#, t.173_162
	jne	.L105	#,
	.loc 1 380 5 is_stmt 1 view .LVU381
# peer.c:380:     const uint8_t *q = p, *end = p + l;
	.loc 1 380 36 is_stmt 0 view .LVU382
	movl	92(%rsp), %eax	# l, l
# peer.c:380:     const uint8_t *q = p, *end = p + l;
	.loc 1 380 20 view .LVU383
	movq	%rbx, 120(%rsp)	# pretmp_332, q
# peer.c:383:     if (buf_get_bytes(&q, end, got_hash, HASH_SIZE) < 0 ||
	.loc 1 383 9 view .LVU384
	leaq	120(%rsp), %r13	#, tmp297
.LVL135:
	.loc 1 383 9 view .LVU385
	leaq	128(%rsp), %rdx	#, tmp255
	movl	$32, %ecx	#,
	movq	%r13, %rdi	# tmp297,
# peer.c:380:     const uint8_t *q = p, *end = p + l;
	.loc 1 380 28 view .LVU386
	addq	%rax, %rbx	# l, end
.LVL136:
	.loc 1 381 5 is_stmt 1 view .LVU387
	.loc 1 381 34 view .LVU388
	.loc 1 382 5 view .LVU389
	.loc 1 382 31 view .LVU390
	.loc 1 383 5 view .LVU391
# peer.c:383:     if (buf_get_bytes(&q, end, got_hash, HASH_SIZE) < 0 ||
	.loc 1 383 9 is_stmt 0 view .LVU392
	movq	%rbx, %rsi	# end,
	call	buf_get_bytes@PLT	#
.LVL137:
# peer.c:383:     if (buf_get_bytes(&q, end, got_hash, HASH_SIZE) < 0 ||
	.loc 1 383 8 discriminator 1 view .LVU393
	testl	%eax, %eax	# tmp311
	js	.L84	#,
# peer.c:384:         memcmp(got_hash, fhash, HASH_SIZE) != 0 ||
	.loc 1 384 9 view .LVU394
	movq	128(%rsp), %rax	# MEM <char[1:32]> [(void *)&got_hash], tmp331
	movq	136(%rsp), %rdx	# MEM <char[1:32]> [(void *)&got_hash], tmp333
	xorq	0(%rbp), %rax	# MEM <char[1:32]> [(void *)_34], tmp330
	xorq	8(%rbp), %rdx	# MEM <char[1:32]> [(void *)_34], tmp332
	orq	%rdx, %rax	# tmp332, tmp330
	jne	.L84	#,
	movq	144(%rsp), %rax	# MEM <char[1:32]> [(void *)&got_hash], tmp327
	movq	152(%rsp), %rdx	# MEM <char[1:32]> [(void *)&got_hash], tmp329
	xorq	16(%rbp), %rax	# MEM <char[1:32]> [(void *)_34], tmp326
	xorq	24(%rbp), %rdx	# MEM <char[1:32]> [(void *)_34], tmp328
	orq	%rdx, %rax	# tmp328, tmp326
	jne	.L84	#,
# peer.c:385:         buf_get_u32(&q, end, &got_idx) < 0 || got_idx != idx ||
	.loc 1 385 9 view .LVU395
	leaq	96(%rsp), %rdx	#, tmp261
	movq	%rbx, %rsi	# end,
	movq	%r13, %rdi	# tmp297,
	call	buf_get_u32@PLT	#
.LVL138:
# peer.c:384:         memcmp(got_hash, fhash, HASH_SIZE) != 0 ||
	.loc 1 384 49 view .LVU396
	testl	%eax, %eax	# tmp312
	js	.L84	#,
# peer.c:385:         buf_get_u32(&q, end, &got_idx) < 0 || got_idx != idx ||
	.loc 1 385 44 view .LVU397
	movl	(%rsp), %eax	# %sfp, tmp209
	cmpl	96(%rsp), %eax	# got_idx, tmp209
	jne	.L84	#,
# peer.c:386:         buf_get_bytes(&q, end, chash, HASH_SIZE) < 0 ||
	.loc 1 386 9 view .LVU398
	leaq	160(%rsp), %rdx	#, tmp263
	movl	$32, %ecx	#,
	movq	%rbx, %rsi	# end,
	movq	%r13, %rdi	# tmp297,
	call	buf_get_bytes@PLT	#
.LVL139:
# peer.c:385:         buf_get_u32(&q, end, &got_idx) < 0 || got_idx != idx ||
	.loc 1 385 62 discriminator 1 view .LVU399
	testl	%eax, %eax	# tmp313
	js	.L84	#,
# peer.c:387:         buf_get_u32(&q, end, &dlen) < 0 || (size_t)(end - q) < dlen) {
	.loc 1 387 9 view .LVU400
	leaq	100(%rsp), %rdx	#, tmp265
	movq	%rbx, %rsi	# end,
	movq	%r13, %rdi	# tmp297,
	call	buf_get_u32@PLT	#
.LVL140:
# peer.c:386:         buf_get_bytes(&q, end, chash, HASH_SIZE) < 0 ||
	.loc 1 386 54 view .LVU401
	testl	%eax, %eax	# tmp314
	js	.L84	#,
# peer.c:387:         buf_get_u32(&q, end, &dlen) < 0 || (size_t)(end - q) < dlen) {
	.loc 1 387 57 view .LVU402
	movq	120(%rsp), %rdi	# q, q.181_175
# peer.c:387:         buf_get_u32(&q, end, &dlen) < 0 || (size_t)(end - q) < dlen) {
	.loc 1 387 62 view .LVU403
	movl	100(%rsp), %esi	# dlen, _179
# peer.c:387:         buf_get_u32(&q, end, &dlen) < 0 || (size_t)(end - q) < dlen) {
	.loc 1 387 57 view .LVU404
	subq	%rdi, %rbx	# q.181_175, tmp267
.LVL141:
# peer.c:387:         buf_get_u32(&q, end, &dlen) < 0 || (size_t)(end - q) < dlen) {
	.loc 1 387 41 view .LVU405
	cmpq	%rsi, %rbx	# _179, tmp267
	jb	.L84	#,
	.loc 1 390 5 is_stmt 1 view .LVU406
	.loc 1 391 5 view .LVU407
	leaq	192(%rsp), %rdx	#, tmp268
	call	hash_bytes@PLT	#
.LVL142:
	.loc 1 392 5 view .LVU408
# peer.c:392:     if (memcmp(actual, expected_hash, HASH_SIZE) != 0) { free(p); return -3; }
	.loc 1 392 9 is_stmt 0 view .LVU409
	movq	24(%rsp), %rbx	# %sfp, _32
	movq	192(%rsp), %rax	# MEM <char[1:32]> [(void *)&actual], tmp323
	movq	200(%rsp), %rdx	# MEM <char[1:32]> [(void *)&actual], tmp325
	xorq	(%rbx), %rax	# MEM <char[1:32]> [(void *)_32], tmp322
	xorq	8(%rbx), %rdx	# MEM <char[1:32]> [(void *)_32], tmp324
	orq	%rdx, %rax	# tmp324, tmp322
	je	.L112	#,
.L85:
	.loc 1 392 58 is_stmt 1 discriminator 1 view .LVU410
	movq	112(%rsp), %rdi	# p,
	call	free@PLT	#
.LVL143:
	.loc 1 392 67 discriminator 1 view .LVU411
	.loc 1 392 67 is_stmt 0 discriminator 1 view .LVU412
.LBE258:
.LBE264:
	.loc 1 463 13 is_stmt 1 view .LVU413
	.loc 1 481 17 view .LVU414
	movl	16(%r12), %edi	# pr_101->ip, pr_101->ip
	movzwl	20(%r12), %ebx	# pr_101->port, _63
	call	ip_to_str@PLT	#
.LVL144:
.LBB265:
.LBI265:
	.loc 2 77 1 view .LVU415
.LBB266:
	.loc 2 79 3 view .LVU416
# /usr/include/x86_64-linux-gnu/bits/stdio2.h:79:   return __fprintf_chk (__stream, __USE_FORTIFY_LEVEL - 1, __fmt,
	.loc 2 79 10 is_stmt 0 view .LVU417
	subq	$8, %rsp	#,
	.cfi_def_cfa_offset 344
	movl	%ebx, %r9d	# _63,
	movl	$2, %esi	#,
.LBE266:
.LBE265:
# peer.c:481:                 LOG_WARN("[w%d] hash mismatch from %s:%u for chunk %u",
	.loc 1 481 17 view .LVU418
	movq	%rax, %r8	#, tmp316
.LBB268:
.LBB267:
# /usr/include/x86_64-linux-gnu/bits/stdio2.h:79:   return __fprintf_chk (__stream, __USE_FORTIFY_LEVEL - 1, __fmt,
	.loc 2 79 10 view .LVU419
	movl	8(%rsp), %eax	# %sfp, tmp209
	movq	stderr(%rip), %rdi	# stderr,
	leaq	.LC3(%rip), %rdx	#,
	pushq	%rax	# tmp209
	.cfi_def_cfa_offset 352
	movl	24(%rsp), %ecx	# %sfp,
	xorl	%eax, %eax	#
	call	__fprintf_chk@PLT	#
.LVL145:
	.loc 2 79 10 view .LVU420
.LBE267:
.LBE268:
	.loc 1 483 17 is_stmt 1 view .LVU421
	popq	%rax	#
	.cfi_def_cfa_offset 344
	popq	%rdx	#
	.cfi_def_cfa_offset 336
.LVL146:
.L106:
	.loc 1 483 17 is_stmt 0 view .LVU422
	movl	2128(%r15), %edi	# ctx_90->n_peers, _67
.LBE279:
	.loc 1 452 52 is_stmt 1 discriminator 2 view .LVU423
	addl	$1, %r14d	#, pi
.LVL147:
	.loc 1 452 34 discriminator 1 view .LVU424
	cmpl	%edi, %r14d	# _67, pi
	jb	.L91	#,
	.p2align 4,,10
	.p2align 3
.L110:
	.loc 1 452 34 is_stmt 0 discriminator 1 view .LVU425
	movq	16(%rsp), %r11	# %sfp, _137
	movl	60(%rsp), %ebp	# %sfp, _141
	movl	(%rsp), %r13d	# %sfp, tmp209
.LVL148:
.L92:
	.loc 1 452 34 discriminator 1 view .LVU426
.LBE294:
# peer.c:488:             pthread_mutex_lock(&ctx->lock);
	.loc 1 488 13 view .LVU427
	movq	48(%rsp), %rbx	# %sfp, _4
	movq	%r11, (%rsp)	# _137, %sfp
	.loc 1 488 13 is_stmt 1 view .LVU428
	movq	%rbx, %rdi	# _4,
	call	pthread_mutex_lock@PLT	#
.LVL149:
	.loc 1 489 13 view .LVU429
	movl	%ebp, %ecx	# _141, tmp365
	movq	(%rsp), %rsi	# %sfp, _137
	movl	$1, %eax	#, tmp224
	addq	16(%r15), %rsi	# ctx_90->failed, _137
	sall	%cl, %eax	# tmp365, tmp223
# peer.c:490:             pthread_mutex_unlock(&ctx->lock);
	.loc 1 490 13 is_stmt 0 view .LVU430
	movq	%rbx, %rdi	# _4,
# peer.c:489:             BIT_SET(ctx->failed, (uint32_t)idx);
	.loc 1 489 13 view .LVU431
	orb	%al, (%rsi)	# tmp223, *_71
	.loc 1 490 13 is_stmt 1 view .LVU432
	call	pthread_mutex_unlock@PLT	#
.LVL150:
	.loc 1 491 13 view .LVU433
.LBB295:
.LBI295:
	.loc 2 77 1 view .LVU434
.LBB296:
	.loc 2 79 3 view .LVU435
# /usr/include/x86_64-linux-gnu/bits/stdio2.h:79:   return __fprintf_chk (__stream, __USE_FORTIFY_LEVEL - 1, __fmt,
	.loc 2 79 10 is_stmt 0 view .LVU436
	movl	8(%rsp), %ecx	# %sfp,
	movl	%r13d, %r8d	# tmp209,
	xorl	%eax, %eax	#
	movq	stderr(%rip), %rdi	# stderr,
	leaq	.LC2(%rip), %rdx	#,
	movl	$2, %esi	#,
	call	__fprintf_chk@PLT	#
.LVL151:
	.loc 2 79 10 view .LVU437
	jmp	.L73	#
.LVL152:
	.p2align 4,,10
	.p2align 3
.L112:
	.loc 2 79 10 view .LVU438
.LBE296:
.LBE295:
.LBB297:
.LBB280:
.LBB269:
.LBB259:
# peer.c:392:     if (memcmp(actual, expected_hash, HASH_SIZE) != 0) { free(p); return -3; }
	.loc 1 392 9 view .LVU439
	movq	208(%rsp), %rax	# MEM <char[1:32]> [(void *)&actual], tmp319
	movq	216(%rsp), %rdx	# MEM <char[1:32]> [(void *)&actual], tmp321
	xorq	16(%rbx), %rax	# MEM <char[1:32]> [(void *)_32], tmp318
	xorq	24(%rbx), %rdx	# MEM <char[1:32]> [(void *)_32], tmp320
	orq	%rdx, %rax	# tmp320, tmp318
	jne	.L85	#,
	.loc 1 393 5 is_stmt 1 view .LVU440
.LBB250:
.LBB251:
# /usr/include/x86_64-linux-gnu/bits/string_fortified.h:29:   return __builtin___memcpy_chk (__dest, __src, __len,
	.loc 3 29 10 is_stmt 0 discriminator 1 view .LVU441
	movq	64(%rsp), %rbp	# %sfp, buf
.LVL153:
	.loc 3 29 10 discriminator 1 view .LVU442
.LBE251:
.LBE250:
# peer.c:393:     memcpy(dst, q, dlen);
	.loc 1 393 5 view .LVU443
	movl	100(%rsp), %edx	# dlen,
.LBB254:
.LBB252:
# /usr/include/x86_64-linux-gnu/bits/string_fortified.h:29:   return __builtin___memcpy_chk (__dest, __src, __len,
	.loc 3 29 10 discriminator 1 view .LVU444
	movq	72(%rsp), %rcx	# %sfp,
	movq	120(%rsp), %rsi	# q,
	movq	%rbp, %rdi	# buf,
.LBE252:
.LBE254:
# peer.c:393:     memcpy(dst, q, dlen);
	.loc 1 393 5 view .LVU445
	movq	%rdx, %rbx	#,
.LVL154:
.LBB255:
.LBI250:
	.loc 3 26 1 is_stmt 1 view .LVU446
.LBB253:
	.loc 3 29 3 view .LVU447
# /usr/include/x86_64-linux-gnu/bits/string_fortified.h:29:   return __builtin___memcpy_chk (__dest, __src, __len,
	.loc 3 29 10 is_stmt 0 discriminator 1 view .LVU448
	call	__memcpy_chk@PLT	#
.LVL155:
	.loc 3 29 10 discriminator 1 view .LVU449
.LBE253:
.LBE255:
	.loc 1 394 5 is_stmt 1 view .LVU450
	.loc 1 395 5 view .LVU451
	movq	112(%rsp), %rdi	# p,
	call	free@PLT	#
.LVL156:
	.loc 1 396 5 view .LVU452
	.loc 1 396 5 is_stmt 0 view .LVU453
.LBE259:
.LBE269:
	.loc 1 463 13 is_stmt 1 view .LVU454
	.loc 1 464 17 view .LVU455
# peer.c:464:                 if (write_chunk(ctx->out_fd, (uint32_t)idx,
	.loc 1 464 21 is_stmt 0 view .LVU456
	movq	(%r15), %rax	# ctx_90->info, ctx_90->info
	movl	68(%r15), %edi	# ctx_90->out_fd, ctx_90->out_fd
	movl	%ebx, %r8d	# dlen.187_183,
	movl	(%rsp), %esi	# %sfp,
	movq	%rbp, %rcx	# buf,
	movl	296(%rax), %edx	# _39->chunk_size, _39->chunk_size
	call	write_chunk@PLT	#
.LVL157:
# peer.c:464:                 if (write_chunk(ctx->out_fd, (uint32_t)idx,
	.loc 1 464 20 discriminator 1 view .LVU457
	testl	%eax, %eax	# tmp315
	jne	.L106	#,
.LBB270:
# peer.c:466:                     pthread_mutex_lock(&ctx->lock);
	.loc 1 466 21 view .LVU458
	movq	48(%rsp), %rdi	# %sfp,
	movl	60(%rsp), %ebp	# %sfp, _141
	.loc 1 466 21 is_stmt 1 view .LVU459
	movq	%r12, %r13	# pr, pr
	call	pthread_mutex_lock@PLT	#
.LVL158:
	.loc 1 467 21 view .LVU460
# peer.c:467:                     if (!BIT_TEST(ctx->bitfield, (uint32_t)idx)) {
	.loc 1 467 26 is_stmt 0 view .LVU461
	movq	16(%rsp), %rsi	# %sfp, _137
	addq	8(%r15), %rsi	# ctx_90->bitfield, _137
	movzbl	(%rsi), %edx	# *_44,
# peer.c:467:                     if (!BIT_TEST(ctx->bitfield, (uint32_t)idx)) {
	.loc 1 467 24 view .LVU462
	btl	%ebp, %edx	# _141, _45
# peer.c:467:                     if (!BIT_TEST(ctx->bitfield, (uint32_t)idx)) {
	.loc 1 467 26 view .LVU463
	movl	%edx, %eax	#,
# peer.c:467:                     if (!BIT_TEST(ctx->bitfield, (uint32_t)idx)) {
	.loc 1 467 24 view .LVU464
	jnc	.L88	#,
# peer.c:472:                     uint32_t got = ctx->fetched;
	.loc 1 472 30 view .LVU465
	movl	2136(%r15), %ebp	# ctx_90->fetched, prephitmp_220
.L89:
	.loc 1 472 21 is_stmt 1 view .LVU466
.LVL159:
	.loc 1 473 21 view .LVU467
# peer.c:474:                     pthread_mutex_unlock(&ctx->lock);
	.loc 1 474 21 is_stmt 0 view .LVU468
	movq	48(%rsp), %rdi	# %sfp,
# peer.c:473:                     uint32_t tot = ctx->info->chunk_count;
	.loc 1 473 30 view .LVU469
	movq	(%r15), %rax	# ctx_90->info, ctx_90->info
	movl	300(%rax), %r12d	# _55->chunk_count, tot
.LVL160:
	.loc 1 474 21 is_stmt 1 view .LVU470
	call	pthread_mutex_unlock@PLT	#
.LVL161:
	.loc 1 475 21 view .LVU471
	movl	16(%r13), %edi	# pr_101->ip, pr_101->ip
	movzwl	20(%r13), %r14d	# pr_101->port, _57
.LVL162:
	.loc 1 475 21 is_stmt 0 view .LVU472
	call	ip_to_str@PLT	#
.LVL163:
.LBB271:
.LBI271:
	.loc 2 77 1 is_stmt 1 view .LVU473
.LBB272:
	.loc 2 79 3 view .LVU474
# /usr/include/x86_64-linux-gnu/bits/stdio2.h:79:   return __fprintf_chk (__stream, __USE_FORTIFY_LEVEL - 1, __fmt,
	.loc 2 79 10 is_stmt 0 view .LVU475
	subq	$8, %rsp	#,
	.cfi_def_cfa_offset 344
	movl	%r12d, %r9d	# tot,
	movl	%ebp, %r8d	# prephitmp_220,
	pushq	%rbx	# dlen.187_183
	.cfi_def_cfa_offset 352
	movq	stderr(%rip), %rdi	# stderr,
	movl	$2, %esi	#,
	leaq	.LC4(%rip), %rdx	#,
	pushq	%r14	# _57
	.cfi_def_cfa_offset 360
	pushq	%rax	# tmp317
	.cfi_def_cfa_offset 368
	movl	40(%rsp), %ecx	# %sfp,
	xorl	%eax, %eax	#
	call	__fprintf_chk@PLT	#
.LVL164:
	.loc 2 79 10 view .LVU476
.LBE272:
.LBE271:
	.loc 1 477 21 is_stmt 1 view .LVU477
	.loc 1 478 21 view .LVU478
	.loc 1 478 21 is_stmt 0 view .LVU479
.LBE270:
.LBE280:
.LBE297:
	.loc 1 487 9 is_stmt 1 view .LVU480
	addq	$32, %rsp	#,
	.cfi_def_cfa_offset 336
	jmp	.L90	#
.LVL165:
.L105:
.LBB298:
.LBB281:
.LBB273:
.LBB260:
	.loc 1 379 37 discriminator 1 view .LVU481
	movq	%rbx, %rdi	# pretmp_332,
	call	free@PLT	#
.LVL166:
	.loc 1 379 46 discriminator 1 view .LVU482
	.loc 1 379 46 is_stmt 0 discriminator 1 view .LVU483
.LBE260:
.LBE273:
	.loc 1 463 13 is_stmt 1 view .LVU484
	movl	2128(%r15), %edi	# ctx_90->n_peers, _67
	jmp	.L76	#
.LVL167:
.L109:
	.loc 1 463 13 is_stmt 0 view .LVU485
	movq	16(%rsp), %r11	# %sfp, _137
	movl	%r8d, %r13d	# tmp209, tmp209
	jmp	.L92	#
.LVL168:
.L88:
.LBB274:
	.loc 1 468 25 is_stmt 1 view .LVU486
	movl	%ebp, %ecx	# _141, tmp384
	movl	$1, %edx	#, tmp287
	sall	%cl, %edx	# tmp384, tmp286
	orl	%edx, %eax	# tmp286, tmp288
	movb	%al, (%rsi)	# tmp288, *_44
	.loc 1 469 25 view .LVU487
# peer.c:470:                         ctx->fetched++;
	.loc 1 470 37 is_stmt 0 view .LVU488
	movl	2136(%r15), %eax	# ctx_90->fetched, tmp385
# peer.c:469:                         ctx->remaining--;
	.loc 1 469 39 view .LVU489
	subl	$1, 64(%r15)	#, ctx_90->remaining
	.loc 1 470 25 is_stmt 1 view .LVU490
# peer.c:470:                         ctx->fetched++;
	.loc 1 470 37 is_stmt 0 view .LVU491
	leal	1(%rax), %ebp	#, prephitmp_220
	movl	%ebp, 2136(%r15)	# prephitmp_220, ctx_90->fetched
	jmp	.L89	#
.LVL169:
.L111:
	.loc 1 470 37 view .LVU492
.LBE274:
.LBB275:
.LBB261:
	.loc 1 373 61 is_stmt 1 discriminator 1 view .LVU493
	movl	%ebx, %edi	# fd,
	call	close@PLT	#
.LVL170:
	.loc 1 373 72 discriminator 1 view .LVU494
	.loc 1 373 72 is_stmt 0 discriminator 1 view .LVU495
.LBE261:
.LBE275:
	.loc 1 463 13 is_stmt 1 view .LVU496
	movl	2128(%r15), %edi	# ctx_90->n_peers, _67
	jmp	.L76	#
.LVL171:
.L108:
	.loc 1 463 13 is_stmt 0 view .LVU497
.LBE281:
.LBE298:
.LBE300:
# peer.c:497: }
	.loc 1 497 1 view .LVU498
	call	__stack_chk_fail@PLT	#
.LVL172:
	.cfi_endproc
.LFE94:
	.size	download_worker, .-download_worker
	.p2align 4
	.type	tracker_get_peers.constprop.0, @function
tracker_get_peers.constprop.0:
.LVL173:
.LFB110:
	.loc 1 214 12 is_stmt 1 view -0
	.cfi_startproc
	.loc 1 214 12 is_stmt 0 view .LVU500
	pushq	%r15	#
	.cfi_def_cfa_offset 16
	.cfi_offset 15, -16
	movq	%rsi, %r15	# tmp147, out
	pushq	%r14	#
	.cfi_def_cfa_offset 24
	.cfi_offset 14, -24
	pushq	%r13	#
	.cfi_def_cfa_offset 32
	.cfi_offset 13, -32
	pushq	%r12	#
	.cfi_def_cfa_offset 40
	.cfi_offset 12, -40
	pushq	%rbp	#
	.cfi_def_cfa_offset 48
	.cfi_offset 6, -48
	pushq	%rbx	#
	.cfi_def_cfa_offset 56
	.cfi_offset 3, -56
	movq	%rdi, %rbx	# tmp146, fhash
	subq	$72, %rsp	#,
	.cfi_def_cfa_offset 128
# peer.c:214: static int tracker_get_peers(const uint8_t fhash[HASH_SIZE],
	.loc 1 214 12 view .LVU501
	movq	%rdx, 8(%rsp)	# tmp148, %sfp
	movq	%fs:40, %rax	# MEM[(<address-space-1> long unsigned int *)40B], tmp157
	movq	%rax, 56(%rsp)	# tmp157, D.8819
	xorl	%eax, %eax	# tmp157
	.loc 1 216 5 is_stmt 1 view .LVU502
# peer.c:216:     if (ensure_tracker() < 0) return -1;
	.loc 1 216 9 is_stmt 0 view .LVU503
	call	ensure_tracker	#
.LVL174:
# peer.c:216:     if (ensure_tracker() < 0) return -1;
	.loc 1 216 8 discriminator 1 view .LVU504
	testl	%eax, %eax	# tmp149
	js	.L114	#,
	.loc 1 217 5 is_stmt 1 view .LVU505
	leaq	g_tracker_lock(%rip), %rbp	#, tmp118
	movq	%rbp, %rdi	# tmp118,
	call	pthread_mutex_lock@PLT	#
.LVL175:
	.loc 1 218 5 view .LVU506
# peer.c:218:     int rc = msg_send(g_tracker_fd, MSG_GET_PEERS, fhash, HASH_SIZE);
	.loc 1 218 14 is_stmt 0 view .LVU507
	movl	g_tracker_fd(%rip), %edi	# g_tracker_fd,
	movl	$32, %ecx	#,
	movq	%rbx, %rdx	# fhash,
	movl	$7, %esi	#,
	call	msg_send@PLT	#
.LVL176:
	.loc 1 219 5 is_stmt 1 view .LVU508
# peer.c:219:     if (rc < 0) { close(g_tracker_fd); g_tracker_fd = -1;
	.loc 1 219 8 is_stmt 0 view .LVU509
	testl	%eax, %eax	# tmp150
	js	.L132	#,
	.loc 1 221 5 is_stmt 1 view .LVU510
	.loc 1 221 16 view .LVU511
# peer.c:222:     rc = msg_recv(g_tracker_fd, &t, &payload, &plen);
	.loc 1 222 10 is_stmt 0 view .LVU512
	movl	g_tracker_fd(%rip), %edi	# g_tracker_fd,
	leaq	32(%rsp), %rcx	#, tmp122
	leaq	40(%rsp), %rdx	#, tmp123
# peer.c:221:     uint8_t t; uint8_t *payload = NULL; uint32_t plen;
	.loc 1 221 25 view .LVU513
	movq	$0, 40(%rsp)	#, payload
	.loc 1 221 41 is_stmt 1 view .LVU514
	.loc 1 222 5 view .LVU515
# peer.c:222:     rc = msg_recv(g_tracker_fd, &t, &payload, &plen);
	.loc 1 222 10 is_stmt 0 view .LVU516
	leaq	31(%rsp), %rsi	#, tmp124
	call	msg_recv@PLT	#
.LVL177:
# peer.c:223:     pthread_mutex_unlock(&g_tracker_lock);
	.loc 1 223 5 view .LVU517
	movq	%rbp, %rdi	# tmp118,
# peer.c:222:     rc = msg_recv(g_tracker_fd, &t, &payload, &plen);
	.loc 1 222 10 view .LVU518
	movl	%eax, %ebx	# tmp151, rc
.LVL178:
	.loc 1 223 5 is_stmt 1 view .LVU519
	call	pthread_mutex_unlock@PLT	#
.LVL179:
	.loc 1 224 5 view .LVU520
	movq	40(%rsp), %rbp	# payload, payload
# peer.c:224:     if (rc < 0 || t != MSG_GET_PEERS_RESP) { free(payload); return -1; }
	.loc 1 224 8 is_stmt 0 view .LVU521
	testl	%ebx, %ebx	# rc
	js	.L117	#,
# peer.c:224:     if (rc < 0 || t != MSG_GET_PEERS_RESP) { free(payload); return -1; }
	.loc 1 224 16 discriminator 2 view .LVU522
	cmpb	$8, 31(%rsp)	#, t
	jne	.L117	#,
	.loc 1 225 5 is_stmt 1 view .LVU523
# peer.c:225:     const uint8_t *p = payload, *end = payload + plen;
	.loc 1 225 48 is_stmt 0 view .LVU524
	movl	32(%rsp), %eax	# plen, plen
# peer.c:225:     const uint8_t *p = payload, *end = payload + plen;
	.loc 1 225 20 view .LVU525
	movq	%rbp, 48(%rsp)	# payload, p
# peer.c:227:     if (buf_get_u32(&p, end, &n) < 0) { free(payload); return -1; }
	.loc 1 227 9 view .LVU526
	leaq	48(%rsp), %r12	#, tmp145
	leaq	36(%rsp), %rdx	#, tmp129
	movq	%r12, %rdi	# tmp145,
# peer.c:225:     const uint8_t *p = payload, *end = payload + plen;
	.loc 1 225 34 view .LVU527
	addq	%rax, %rbp	# plen, end
.LVL180:
	.loc 1 226 5 is_stmt 1 view .LVU528
	.loc 1 227 5 view .LVU529
# peer.c:227:     if (buf_get_u32(&p, end, &n) < 0) { free(payload); return -1; }
	.loc 1 227 9 is_stmt 0 view .LVU530
	movq	%rbp, %rsi	# end,
	call	buf_get_u32@PLT	#
.LVL181:
# peer.c:227:     if (buf_get_u32(&p, end, &n) < 0) { free(payload); return -1; }
	.loc 1 227 8 discriminator 1 view .LVU531
	testl	%eax, %eax	# tmp152
	js	.L131	#,
	.loc 1 228 5 is_stmt 1 view .LVU532
# peer.c:228:     peer_addr_t *arr = n ? calloc(n, sizeof *arr) : NULL;
	.loc 1 228 26 is_stmt 0 view .LVU533
	movl	36(%rsp), %edi	# n,
# peer.c:228:     peer_addr_t *arr = n ? calloc(n, sizeof *arr) : NULL;
	.loc 1 228 51 discriminator 2 view .LVU534
	xorl	%r14d, %r14d	# iftmp.122_18
# peer.c:228:     peer_addr_t *arr = n ? calloc(n, sizeof *arr) : NULL;
	.loc 1 228 51 view .LVU535
	testl	%edi, %edi	# n.123_16
	jne	.L133	#,
.LVL182:
.L120:
	.loc 1 236 5 is_stmt 1 view .LVU536
	movq	40(%rsp), %rdi	# payload,
	call	free@PLT	#
.LVL183:
	.loc 1 237 5 view .LVU537
# peer.c:237:     *out = arr; *out_n = n;
	.loc 1 237 24 is_stmt 0 view .LVU538
	movl	36(%rsp), %eax	# n, n
	movq	8(%rsp), %rcx	# %sfp, out_n
# peer.c:237:     *out = arr; *out_n = n;
	.loc 1 237 10 view .LVU539
	movq	%r14, (%r15)	# iftmp.122_18, *out_34(D)
	.loc 1 237 17 is_stmt 1 view .LVU540
# peer.c:237:     *out = arr; *out_n = n;
	.loc 1 237 24 is_stmt 0 view .LVU541
	movl	%eax, (%rcx)	# n, *out_n_36(D)
	.loc 1 238 5 is_stmt 1 view .LVU542
# peer.c:238:     return 0;
	.loc 1 238 12 is_stmt 0 view .LVU543
	xorl	%eax, %eax	# <retval>
.LVL184:
.L113:
# peer.c:239: }
	.loc 1 239 1 view .LVU544
	movq	56(%rsp), %rdx	# D.8819, tmp158
	subq	%fs:40, %rdx	# MEM[(<address-space-1> long unsigned int *)40B], tmp158
	jne	.L134	#,
	addq	$72, %rsp	#,
	.cfi_remember_state
	.cfi_def_cfa_offset 56
	popq	%rbx	#
	.cfi_def_cfa_offset 48
	popq	%rbp	#
	.cfi_def_cfa_offset 40
	popq	%r12	#
	.cfi_def_cfa_offset 32
	popq	%r13	#
	.cfi_def_cfa_offset 24
	popq	%r14	#
	.cfi_def_cfa_offset 16
	popq	%r15	#
	.cfi_def_cfa_offset 8
.LVL185:
	.loc 1 239 1 view .LVU545
	ret	
.LVL186:
	.p2align 4,,10
	.p2align 3
.L133:
	.cfi_restore_state
# peer.c:228:     peer_addr_t *arr = n ? calloc(n, sizeof *arr) : NULL;
	.loc 1 228 28 discriminator 1 view .LVU546
	movl	$24, %esi	#,
.LBB302:
# peer.c:229:     for (uint32_t i = 0; i < n; i++) {
	.loc 1 229 19 view .LVU547
	xorl	%r13d, %r13d	# i
.LBE302:
# peer.c:228:     peer_addr_t *arr = n ? calloc(n, sizeof *arr) : NULL;
	.loc 1 228 28 discriminator 1 view .LVU548
	call	calloc@PLT	#
.LVL187:
	movq	%rax, %r14	# tmp153, iftmp.122_18
.LVL188:
	.loc 1 229 5 is_stmt 1 view .LVU549
.LBB303:
	.loc 1 229 10 view .LVU550
	.loc 1 229 28 discriminator 1 view .LVU551
	movq	%rax, %rbx	# iftmp.122_18, ivtmp.299
.LVL189:
	.loc 1 229 28 is_stmt 0 discriminator 1 view .LVU552
	jmp	.L123	#
.LVL190:
	.p2align 4,,10
	.p2align 3
.L121:
# peer.c:231:             buf_get_u32  (&p, end, &arr[i].ip) < 0 ||
	.loc 1 231 13 view .LVU553
	leaq	16(%rbx), %rdx	#, tmp136
	movq	%rbp, %rsi	# end,
	movq	%r12, %rdi	# tmp145,
	call	buf_get_u32@PLT	#
.LVL191:
# peer.c:230:         if (buf_get_bytes(&p, end, arr[i].peer_id, PEER_ID_SIZE) < 0 ||
	.loc 1 230 70 discriminator 1 view .LVU554
	testl	%eax, %eax	# tmp155
	js	.L122	#,
# peer.c:232:             buf_get_u16  (&p, end, &arr[i].port) < 0) {
	.loc 1 232 13 view .LVU555
	leaq	20(%rbx), %rdx	#, tmp138
	movq	%rbp, %rsi	# end,
	movq	%r12, %rdi	# tmp145,
	call	buf_get_u16@PLT	#
.LVL192:
# peer.c:231:             buf_get_u32  (&p, end, &arr[i].ip) < 0 ||
	.loc 1 231 52 view .LVU556
	testl	%eax, %eax	# tmp156
	js	.L122	#,
	.loc 1 229 34 is_stmt 1 discriminator 2 view .LVU557
	addl	$1, %r13d	#, i
.LVL193:
	.loc 1 229 28 discriminator 1 view .LVU558
	addq	$24, %rbx	#, ivtmp.299
	cmpl	36(%rsp), %r13d	# n, i
	jnb	.L120	#,
.LVL194:
.L123:
	.loc 1 230 9 view .LVU559
# peer.c:230:         if (buf_get_bytes(&p, end, arr[i].peer_id, PEER_ID_SIZE) < 0 ||
	.loc 1 230 13 is_stmt 0 view .LVU560
	movl	$16, %ecx	#,
	movq	%rbx, %rdx	# ivtmp.299,
	movq	%rbp, %rsi	# end,
	movq	%r12, %rdi	# tmp145,
	call	buf_get_bytes@PLT	#
.LVL195:
# peer.c:230:         if (buf_get_bytes(&p, end, arr[i].peer_id, PEER_ID_SIZE) < 0 ||
	.loc 1 230 12 discriminator 1 view .LVU561
	testl	%eax, %eax	# tmp154
	jns	.L121	#,
.L122:
	.loc 1 233 13 is_stmt 1 view .LVU562
	movq	%r14, %rdi	# iftmp.122_18,
	call	free@PLT	#
.LVL196:
.L131:
	.loc 1 233 24 discriminator 1 view .LVU563
	movq	40(%rsp), %rdi	# payload,
	call	free@PLT	#
.LVL197:
	.loc 1 233 39 discriminator 2 view .LVU564
.L114:
	.loc 1 233 39 is_stmt 0 discriminator 2 view .LVU565
.LBE303:
# peer.c:216:     if (ensure_tracker() < 0) return -1;
	.loc 1 216 38 discriminator 1 view .LVU566
	movl	$-1, %eax	#, <retval>
	jmp	.L113	#
.LVL198:
.L117:
	.loc 1 224 46 is_stmt 1 discriminator 3 view .LVU567
	movq	%rbp, %rdi	# payload,
	call	free@PLT	#
.LVL199:
	.loc 1 224 61 discriminator 1 view .LVU568
# peer.c:224:     if (rc < 0 || t != MSG_GET_PEERS_RESP) { free(payload); return -1; }
	.loc 1 224 68 is_stmt 0 view .LVU569
	jmp	.L114	#
.LVL200:
.L132:
	.loc 1 219 19 is_stmt 1 discriminator 1 view .LVU570
	movl	g_tracker_fd(%rip), %edi	# g_tracker_fd,
	call	close@PLT	#
.LVL201:
	.loc 1 219 40 discriminator 1 view .LVU571
# peer.c:220:                   pthread_mutex_unlock(&g_tracker_lock); return -1; }
	.loc 1 220 19 is_stmt 0 view .LVU572
	movq	%rbp, %rdi	# tmp118,
# peer.c:219:     if (rc < 0) { close(g_tracker_fd); g_tracker_fd = -1;
	.loc 1 219 53 discriminator 1 view .LVU573
	movl	$-1, g_tracker_fd(%rip)	#, g_tracker_fd
	.loc 1 220 19 is_stmt 1 view .LVU574
	call	pthread_mutex_unlock@PLT	#
.LVL202:
	.loc 1 220 58 discriminator 1 view .LVU575
# peer.c:220:                   pthread_mutex_unlock(&g_tracker_lock); return -1; }
	.loc 1 220 65 is_stmt 0 view .LVU576
	jmp	.L114	#
.LVL203:
.L134:
# peer.c:239: }
	.loc 1 239 1 view .LVU577
	call	__stack_chk_fail@PLT	#
.LVL204:
	.cfi_endproc
.LFE110:
	.size	tracker_get_peers.constprop.0, .-tracker_get_peers.constprop.0
	.section	.rodata.str1.1
.LC6:
	.string	"p2p> "
.LC7:
	.string	">>> %s\n"
.LC8:
	.string	"help"
	.section	.rodata.str1.8
	.align 8
.LC9:
	.ascii	"Commands:\n  share <file>                Hash, register, and"
	.ascii	" serve a local file\n  list                        Show all "
	.ascii	"files known to the tracker\n  peers <hash>                Li"
	.ascii	"st peers that have a given file\n  get   <hash> [--out PATH]"
	.ascii	"   Downl"
	.string	"oad a file by hash (parallel + resume)\n  mine                        Show files we currently serve\n  id                          Print our peer id and listen port\n  help                        Show this help\n  quit                        Exit (also Ctrl-D)"
	.section	.rodata.str1.1
.LC10:
	.string	"share"
.LC11:
	.string	"[ERR ] cannot hash '%s': %s\n"
	.section	.rodata.str1.8
	.align 8
.LC12:
	.string	"[ERR ] tracker announce failed\n"
	.align 8
.LC13:
	.string	"Shared '%s' (%llu bytes, %u chunks)\n"
	.section	.rodata.str1.1
.LC14:
	.string	"  hash: %s\n"
.LC15:
	.string	"list"
.LC16:
	.string	"[ERR ] tracker list failed\n"
.LC17:
	.string	"(no files announced)"
.LC18:
	.string	"CHUNKS"
.LC19:
	.string	"SIZE"
.LC20:
	.string	"NAME"
.LC21:
	.string	"HASH (short)"
.LC22:
	.string	"%-16s  %-28s  %12s  %7s  %5s\n"
.LC23:
	.string	"PEERS"
	.section	.rodata.str1.8
	.align 8
.LC24:
	.string	"%-16s  %-28s  %12llu  %7u  %5u\n"
	.section	.rodata.str1.1
.LC25:
	.string	"peers"
.LC26:
	.string	"invalid hash"
.LC27:
	.string	"[ERR ] get peers failed\n"
.LC28:
	.string	"(no peers)"
.LC29:
	.string	"%02x"
.LC30:
	.string	"  %s  %s:%u\n"
.LC31:
	.string	"get"
.LC32:
	.string	"--out"
	.section	.rodata.str1.8
	.align 8
.LC33:
	.string	"[ERR ] file not known to tracker\n"
	.section	.rodata.str1.1
.LC34:
	.string	"%s/%s"
.LC35:
	.string	"[ERR ] open '%s': %s\n"
.LC36:
	.string	"[ERR ] ftruncate '%s': %s\n"
	.section	.rodata.str1.8
	.align 8
.LC37:
	.string	"[INFO] resume: %d/%u chunks already valid on disk\n"
	.section	.rodata.str1.1
.LC38:
	.string	"[ERR ] no peers available\n"
	.section	.rodata.str1.8
	.align 8
.LC39:
	.string	"[INFO] peer %s:%u online (bitfield %u bytes)\n"
	.align 8
.LC40:
	.string	"[WARN] peer %s:%u not reachable\n"
	.section	.rodata.str1.1
.LC41:
	.string	"[ERR ] no reachable peers\n"
	.section	.rodata.str1.8
	.align 8
.LC42:
	.string	"Downloading %u chunks from %u peer(s) using %d workers...\n"
	.align 8
.LC44:
	.string	"Download complete: '%s' (%llu B) in %.2fs (%.2f MB/s)\n"
	.align 8
.LC45:
	.string	"Nothing to download \342\200\224 already have full file at '%s'\n"
	.section	.rodata.str1.1
.LC46:
	.string	"mine"
.LC47:
	.string	"(nothing shared)"
	.section	.rodata.str1.8
	.align 8
.LC48:
	.string	"  %s  %-28s  %12llu B  %u/%u chunks  (%s)\n"
	.align 8
.LC49:
	.string	"peer_id=%s listen_port=%u tracker=%s:%u\n"
	.section	.rodata.str1.1
.LC50:
	.string	"quit"
.LC51:
	.string	"exit"
	.section	.rodata.str1.8
	.align 8
.LC52:
	.string	"unknown command '%s' \342\200\224 type 'help'\n"
	.align 8
.LC53:
	.string	"Download incomplete (some chunks could not be fetched)"
	.text
	.p2align 4
	.type	cli_loop, @function
cli_loop:
.LFB107:
	.loc 1 828 28 is_stmt 1 view -0
	.cfi_startproc
	pushq	%r15	#
	.cfi_def_cfa_offset 16
	.cfi_offset 15, -16
	pushq	%r14	#
	.cfi_def_cfa_offset 24
	.cfi_offset 14, -24
	pushq	%r13	#
	.cfi_def_cfa_offset 32
	.cfi_offset 13, -32
	pushq	%r12	#
	.cfi_def_cfa_offset 40
	.cfi_offset 12, -40
	pushq	%rbp	#
	.cfi_def_cfa_offset 48
	.cfi_offset 6, -48
	pushq	%rbx	#
	.cfi_def_cfa_offset 56
	.cfi_offset 3, -56
	subq	$4096, %rsp	#,
	.cfi_def_cfa_offset 4152
	orq	$0, (%rsp)	#,
	subq	$4096, %rsp	#,
	.cfi_def_cfa_offset 8248
	orq	$0, (%rsp)	#,
	subq	$840, %rsp	#,
	.cfi_def_cfa_offset 9088
# peer.c:830:     int interactive = isatty(fileno(stdin));
	.loc 1 830 23 is_stmt 0 view .LVU579
	movq	stdin(%rip), %rdi	# stdin,
# peer.c:828: static void cli_loop(void) {
	.loc 1 828 28 view .LVU580
	movq	%fs:40, %rax	# MEM[(<address-space-1> long unsigned int *)40B], tmp1052
	movq	%rax, 9016(%rsp)	# tmp1052, D.9226
	xorl	%eax, %eax	# tmp1052
	.loc 1 829 5 is_stmt 1 view .LVU581
	.loc 1 830 5 view .LVU582
# peer.c:830:     int interactive = isatty(fileno(stdin));
	.loc 1 830 23 is_stmt 0 view .LVU583
	call	fileno@PLT	#
.LVL205:
	movl	%eax, %edi	# tmp966, _2
# peer.c:830:     int interactive = isatty(fileno(stdin));
	.loc 1 830 23 discriminator 1 view .LVU584
	call	isatty@PLT	#
.LVL206:
	leaq	4912(%rsp), %rsi	#, tmp939
	movl	%eax, %r13d	# tmp967, interactive
.LVL207:
	.loc 1 831 5 is_stmt 1 view .LVU585
	.loc 1 831 12 view .LVU586
	movl	g_quit(%rip), %eax	# g_quit, g_quit.62_973
.LVL208:
	.loc 1 831 12 is_stmt 0 view .LVU587
	movq	%rsi, 8(%rsp)	# tmp939, %sfp
.LBB461:
.LBB462:
.LBB463:
.LBB464:
.LBB465:
.LBB466:
.LBB467:
# peer.c:149:             buf_get_u16  (&p, end, &nl) < 0 || nl > MAX_FILENAME ||
	.loc 1 149 13 view .LVU588
	leaq	192(%rsp), %rsi	#, tmp964
	movq	%rsi, 152(%rsp)	# tmp964, %sfp
.LBE467:
.LBE466:
.LBE465:
.LBE464:
.LBE463:
.LBE462:
.LBE461:
# peer.c:831:     while (!g_quit) {
	.loc 1 831 12 view .LVU589
	testl	%eax, %eax	# g_quit.62_973
	jne	.L135	#,
.LVL209:
	.p2align 4,,10
	.p2align 3
.L136:
.LBB795:
	.loc 1 832 9 is_stmt 1 view .LVU590
# peer.c:832:         if (interactive) { printf("p2p> "); fflush(stdout); }
	.loc 1 832 12 is_stmt 0 view .LVU591
	testl	%r13d, %r13d	# interactive
	jne	.L372	#,
.L138:
	.loc 1 833 9 is_stmt 1 view .LVU592
.LVL210:
.LBB510:
.LBI510:
	.loc 2 196 1 view .LVU593
.LBB511:
	.loc 2 198 3 view .LVU594
	.loc 2 199 3 view .LVU595
	.loc 2 200 5 view .LVU596
# /usr/include/x86_64-linux-gnu/bits/stdio2.h:200:     return __fgets_alias (__s, __n, __stream);
	.loc 2 200 12 is_stmt 0 view .LVU597
	movq	8(%rsp), %rbp	# %sfp, tmp939
	movq	stdin(%rip), %rdx	# stdin,
	movl	$4096, %esi	#,
	movq	%rbp, %rdi	# tmp939,
	call	fgets@PLT	#
.LVL211:
	.loc 2 200 12 view .LVU598
.LBE511:
.LBE510:
# peer.c:833:         if (!fgets(line, sizeof line, stdin)) break;
	.loc 1 833 12 discriminator 1 view .LVU599
	testq	%rax, %rax	# tmp968
	je	.L135	#,
.LVL212:
.LBB512:
.LBB513:
	.loc 1 809 15 is_stmt 1 discriminator 1 view .LVU600
# peer.c:809:     while (*s && isspace((unsigned char)*s)) s++;
	.loc 1 809 12 is_stmt 0 discriminator 1 view .LVU601
	movzbl	4912(%rsp), %ebx	# MEM[(char *)&line],
# peer.c:809:     while (*s && isspace((unsigned char)*s)) s++;
	.loc 1 809 15 discriminator 1 view .LVU602
	testb	%bl, %bl	# _71
	je	.L266	#,
# peer.c:809:     while (*s && isspace((unsigned char)*s)) s++;
	.loc 1 809 18 discriminator 2 view .LVU603
	call	__ctype_b_loc@PLT	#
.LVL213:
# peer.c:809:     while (*s && isspace((unsigned char)*s)) s++;
	.loc 1 809 18 discriminator 1 view .LVU604
	movq	(%rax), %rax	# *_72, _73
	jmp	.L141	#
.LVL214:
	.p2align 4,,10
	.p2align 3
.L142:
	.loc 1 809 46 is_stmt 1 discriminator 3 view .LVU605
# peer.c:809:     while (*s && isspace((unsigned char)*s)) s++;
	.loc 1 809 12 is_stmt 0 discriminator 1 view .LVU606
	movzbl	1(%rbp), %ebx	# MEM[(char *)s_70],
# peer.c:809:     while (*s && isspace((unsigned char)*s)) s++;
	.loc 1 809 47 discriminator 3 view .LVU607
	addq	$1, %rbp	#, s
.LVL215:
	.loc 1 809 15 is_stmt 1 discriminator 1 view .LVU608
	testb	%bl, %bl	# _71
	je	.L140	#,
.LVL216:
.L141:
	.loc 1 809 15 is_stmt 0 discriminator 1 view .LVU609
	testb	$32, 1(%rax,%rbx,2)	#, *_77
	jne	.L142	#,
.LVL217:
.L140:
	.loc 1 810 5 is_stmt 1 view .LVU610
# peer.c:810:     char *end = s + strlen(s);
	.loc 1 810 21 is_stmt 0 view .LVU611
	movq	%rbp, %rdi	# s,
	call	strlen@PLT	#
.LVL218:
# peer.c:810:     char *end = s + strlen(s);
	.loc 1 810 11 discriminator 1 view .LVU612
	leaq	0(%rbp,%rax), %rbx	#, end
.LVL219:
	.loc 1 811 5 is_stmt 1 view .LVU613
	.loc 1 811 20 discriminator 1 view .LVU614
	cmpq	%rbx, %rbp	# end, s
	jnb	.L143	#,
# peer.c:811:     while (end > s && isspace((unsigned char)end[-1])) --end;
	.loc 1 811 23 is_stmt 0 discriminator 2 view .LVU615
	call	__ctype_b_loc@PLT	#
.LVL220:
# peer.c:811:     while (end > s && isspace((unsigned char)end[-1])) --end;
	.loc 1 811 23 discriminator 1 view .LVU616
	movq	(%rax), %rdx	# *_85, _86
	jmp	.L144	#
	.p2align 4,,10
	.p2align 3
.L145:
	.loc 1 811 56 is_stmt 1 discriminator 3 view .LVU617
	subq	$1, %rbx	#, end
.LVL221:
	.loc 1 811 20 discriminator 1 view .LVU618
	cmpq	%rbp, %rbx	# s, end
	je	.L143	#,
.L144:
# peer.c:811:     while (end > s && isspace((unsigned char)end[-1])) --end;
	.loc 1 811 23 is_stmt 0 discriminator 1 view .LVU619
	movzbl	-1(%rbx), %eax	# MEM[(char *)end_955 + -1B], MEM[(char *)end_955 + -1B]
# peer.c:811:     while (end > s && isspace((unsigned char)end[-1])) --end;
	.loc 1 811 20 discriminator 1 view .LVU620
	testb	$32, 1(%rdx,%rax,2)	#, *_91
	jne	.L145	#,
.L143:
	.loc 1 812 5 is_stmt 1 view .LVU621
# peer.c:812:     *end = '\0';
	.loc 1 812 10 is_stmt 0 view .LVU622
	movb	$0, (%rbx)	#, *end_956
	.loc 1 813 5 is_stmt 1 view .LVU623
.LVL222:
	.loc 1 813 5 is_stmt 0 view .LVU624
.LBE513:
.LBE512:
	.loc 1 835 9 is_stmt 1 view .LVU625
# peer.c:835:         if (!*cmd || cmd[0] == '#') continue;
	.loc 1 835 14 is_stmt 0 view .LVU626
	movzbl	0(%rbp), %r14d	# *s_595,
# peer.c:835:         if (!*cmd || cmd[0] == '#') continue;
	.loc 1 835 12 view .LVU627
	testb	%r14b, %r14b	# _97
	je	.L159	#,
	cmpb	$35, %r14b	#, _97
	je	.L159	#,
	.loc 1 836 9 is_stmt 1 view .LVU628
# peer.c:836:         if (!interactive) fprintf(stderr, ">>> %s\n", cmd);
	.loc 1 836 12 is_stmt 0 view .LVU629
	testl	%r13d, %r13d	# interactive
	je	.L373	#,
.L147:
.LVL223:
.LBB515:
.LBB516:
	.loc 1 819 19 is_stmt 1 discriminator 1 view .LVU630
# peer.c:823:         if (*p) *p++ = '\0';
	.loc 1 823 19 is_stmt 0 discriminator 1 view .LVU631
	xorl	%ebx, %ebx	# n
	xorl	%r15d, %r15d	# ivtmp.428
	xorl	%r12d, %r12d	# _11
.LVL224:
	.p2align 4,,10
	.p2align 3
.L148:
# peer.c:819:         while (*p && isspace((unsigned char)*p)) p++;
	.loc 1 819 22 discriminator 2 view .LVU632
	call	__ctype_b_loc@PLT	#
.LVL225:
# peer.c:819:         while (*p && isspace((unsigned char)*p)) p++;
	.loc 1 819 22 discriminator 1 view .LVU633
	movq	(%rax), %rdx	# *_98, _99
	jmp	.L157	#
	.p2align 4,,10
	.p2align 3
.L150:
	.loc 1 819 50 is_stmt 1 discriminator 3 view .LVU634
# peer.c:819:         while (*p && isspace((unsigned char)*p)) p++;
	.loc 1 819 16 is_stmt 0 discriminator 1 view .LVU635
	movzbl	1(%rbp), %r14d	# MEM[(char *)p_96],
# peer.c:819:         while (*p && isspace((unsigned char)*p)) p++;
	.loc 1 819 51 discriminator 3 view .LVU636
	addq	$1, %rbp	#, s
.LVL226:
	.loc 1 819 19 is_stmt 1 discriminator 1 view .LVU637
	testb	%r14b, %r14b	# _97
	je	.L149	#,
.L157:
	.loc 1 819 19 is_stmt 0 discriminator 1 view .LVU638
	testb	$32, 1(%rdx,%r14,2)	#, *_103
	jne	.L150	#,
	.loc 1 820 9 is_stmt 1 view .LVU639
	.loc 1 821 9 view .LVU640
# peer.c:822:         while (*p && !isspace((unsigned char)*p)) p++;
	.loc 1 822 16 is_stmt 0 discriminator 1 view .LVU641
	movzbl	0(%rbp), %eax	# *p_972,
# peer.c:821:         argv[n++] = p;
	.loc 1 821 19 view .LVU642
	movq	%rbp, 272(%rsp,%r15,8)	# s, MEM[(char * *)&argv + ivtmp.428_957 * 8]
# peer.c:821:         argv[n++] = p;
	.loc 1 821 15 view .LVU643
	leal	1(%r12), %ebx	#, n
.LVL227:
	.loc 1 822 9 is_stmt 1 view .LVU644
	.loc 1 822 19 discriminator 1 view .LVU645
	testb	%al, %al	# _115
	jne	.L151	#,
	jmp	.L264	#
	.p2align 4,,10
	.p2align 3
.L154:
	.loc 1 822 51 discriminator 3 view .LVU646
# peer.c:822:         while (*p && !isspace((unsigned char)*p)) p++;
	.loc 1 822 16 is_stmt 0 discriminator 1 view .LVU647
	movzbl	1(%rbp), %eax	# MEM[(char *)p_114],
# peer.c:822:         while (*p && !isspace((unsigned char)*p)) p++;
	.loc 1 822 52 discriminator 3 view .LVU648
	addq	$1, %rbp	#, s
.LVL228:
	.loc 1 822 19 is_stmt 1 discriminator 1 view .LVU649
	testb	%al, %al	# _115
	je	.L153	#,
.L151:
	.loc 1 822 19 is_stmt 0 discriminator 1 view .LVU650
	testb	$32, 1(%rdx,%rax,2)	#, *_121
	je	.L154	#,
	.loc 1 823 9 is_stmt 1 view .LVU651
	.loc 1 823 17 discriminator 1 view .LVU652
.LVL229:
# peer.c:823:         if (*p) *p++ = '\0';
	.loc 1 823 22 is_stmt 0 discriminator 1 view .LVU653
	movb	$0, 0(%rbp)	#, *p_946
# peer.c:823:         if (*p) *p++ = '\0';
	.loc 1 823 19 discriminator 1 view .LVU654
	addq	$1, %rbp	#, s
.LVL230:
.L153:
	.loc 1 818 15 is_stmt 1 view .LVU655
# peer.c:818:     while (*p && n < max) {
	.loc 1 818 12 is_stmt 0 view .LVU656
	movzbl	0(%rbp), %r14d	# *p_131,
# peer.c:818:     while (*p && n < max) {
	.loc 1 818 15 view .LVU657
	testb	%r14b, %r14b	# _97
	je	.L264	#,
# peer.c:818:     while (*p && n < max) {
	.loc 1 818 15 discriminator 1 view .LVU658
	addq	$1, %r15	#, ivtmp.428
	cmpq	$8, %r15	#, ivtmp.428
	je	.L268	#,
	movl	%r15d, %r12d	# ivtmp.428, _11
	movl	%r15d, %ebx	# ivtmp.428, n
.LVL231:
	.loc 1 819 19 is_stmt 1 discriminator 1 view .LVU659
	jmp	.L148	#
.LVL232:
	.p2align 4,,10
	.p2align 3
.L149:
	.loc 1 825 5 view .LVU660
	.loc 1 825 5 is_stmt 0 view .LVU661
.LBE516:
.LBE515:
	.loc 1 839 9 is_stmt 1 view .LVU662
# peer.c:839:         if (argc == 0) continue;
	.loc 1 839 12 is_stmt 0 view .LVU663
	testl	%ebx, %ebx	# n
	jne	.L264	#,
.LVL233:
.L159:
	.loc 1 839 12 view .LVU664
.LBE795:
	.loc 1 831 12 is_stmt 1 view .LVU665
	movl	g_quit(%rip), %eax	# g_quit, g_quit.62_31
	testl	%eax, %eax	# g_quit.62_31
	je	.L136	#,
.LVL234:
.L135:
# peer.c:861: }
	.loc 1 861 1 is_stmt 0 view .LVU666
	movq	9016(%rsp), %rax	# D.9226, tmp1053
	subq	%fs:40, %rax	# MEM[(<address-space-1> long unsigned int *)40B], tmp1053
	jne	.L374	#,
	addq	$9032, %rsp	#,
	.cfi_remember_state
	.cfi_def_cfa_offset 56
	popq	%rbx	#
	.cfi_def_cfa_offset 48
	popq	%rbp	#
	.cfi_def_cfa_offset 40
	popq	%r12	#
	.cfi_def_cfa_offset 32
	popq	%r13	#
	.cfi_def_cfa_offset 24
	popq	%r14	#
	.cfi_def_cfa_offset 16
	popq	%r15	#
	.cfi_def_cfa_offset 8
	ret	
.LVL235:
.L268:
	.cfi_restore_state
.LBB796:
.LBB519:
.LBB517:
# peer.c:818:     while (*p && n < max) {
	.loc 1 818 15 discriminator 1 view .LVU667
	movl	$8, %ebx	#, n
.LVL236:
	.loc 1 825 5 is_stmt 1 view .LVU668
	.loc 1 825 5 is_stmt 0 view .LVU669
.LBE517:
.LBE519:
	.loc 1 839 9 is_stmt 1 view .LVU670
.L264:
	.loc 1 841 9 view .LVU671
# peer.c:841:         if      (strcmp(argv[0], "help")  == 0) cmd_help();
	.loc 1 841 29 is_stmt 0 view .LVU672
	movq	272(%rsp), %rbp	# argv[0], _9
# peer.c:841:         if      (strcmp(argv[0], "help")  == 0) cmd_help();
	.loc 1 841 18 view .LVU673
	leaq	.LC8(%rip), %rsi	#,
	movq	%rbp, %rdi	# _9,
	call	strcmp@PLT	#
.LVL237:
# peer.c:841:         if      (strcmp(argv[0], "help")  == 0) cmd_help();
	.loc 1 841 17 discriminator 1 view .LVU674
	testl	%eax, %eax	# tmp973
	je	.L375	#,
	.loc 1 842 14 is_stmt 1 view .LVU675
# peer.c:842:         else if (strcmp(argv[0], "share") == 0 && argc >= 2) cmd_share(argv[1]);
	.loc 1 842 18 is_stmt 0 view .LVU676
	leaq	.LC10(%rip), %rsi	#, tmp536
	movq	%rbp, %rdi	# _9,
	call	strcmp@PLT	#
.LVL238:
# peer.c:842:         else if (strcmp(argv[0], "share") == 0 && argc >= 2) cmd_share(argv[1]);
	.loc 1 842 48 discriminator 1 view .LVU677
	cmpl	$1, %ebx	#, n
	setne	%r12b	#, tmp537
	testl	%eax, %eax	# tmp974
	jne	.L160	#,
	testb	%r12b, %r12b	# tmp537
	jne	.L376	#,
.L160:
	.loc 1 843 14 is_stmt 1 view .LVU678
# peer.c:843:         else if (strcmp(argv[0], "list")  == 0) cmd_list();
	.loc 1 843 18 is_stmt 0 view .LVU679
	leaq	.LC15(%rip), %rsi	#, tmp585
	movq	%rbp, %rdi	# _9,
	call	strcmp@PLT	#
.LVL239:
# peer.c:843:         else if (strcmp(argv[0], "list")  == 0) cmd_list();
	.loc 1 843 17 discriminator 1 view .LVU680
	testl	%eax, %eax	# tmp981
	je	.L377	#,
	.loc 1 844 14 is_stmt 1 view .LVU681
# peer.c:844:         else if (strcmp(argv[0], "peers") == 0 && argc >= 2) cmd_peers(argv[1]);
	.loc 1 844 18 is_stmt 0 view .LVU682
	leaq	.LC25(%rip), %rsi	#, tmp638
	movq	%rbp, %rdi	# _9,
	call	strcmp@PLT	#
.LVL240:
# peer.c:844:         else if (strcmp(argv[0], "peers") == 0 && argc >= 2) cmd_peers(argv[1]);
	.loc 1 844 17 discriminator 1 view .LVU683
	testl	%eax, %eax	# tmp994
	jne	.L181	#,
# peer.c:844:         else if (strcmp(argv[0], "peers") == 0 && argc >= 2) cmd_peers(argv[1]);
	.loc 1 844 48 discriminator 1 view .LVU684
	cmpl	$1, %ebx	#, n
	jne	.L378	#,
.L182:
	.loc 1 851 14 is_stmt 1 view .LVU685
# peer.c:851:         else if (strcmp(argv[0], "mine") == 0) cmd_mine();
	.loc 1 851 18 is_stmt 0 view .LVU686
	leaq	.LC46(%rip), %rsi	#, tmp883
	movq	%rbp, %rdi	# _9,
	call	strcmp@PLT	#
.LVL241:
# peer.c:851:         else if (strcmp(argv[0], "mine") == 0) cmd_mine();
	.loc 1 851 17 discriminator 1 view .LVU687
	testl	%eax, %eax	# tmp1039
	je	.L379	#,
	.loc 1 852 14 is_stmt 1 view .LVU688
# peer.c:852:         else if (strcmp(argv[0], "id")   == 0)
	.loc 1 852 18 is_stmt 0 view .LVU689
	cmpb	$105, 0(%rbp)	#, MEM <char[1:3]> [(void *)_9]
	jne	.L257	#,
	cmpb	$100, 1(%rbp)	#, MEM <char[1:3]> [(void *)_9]
	je	.L380	#,
.L257:
	.loc 1 856 14 is_stmt 1 view .LVU690
# peer.c:856:         else if (strcmp(argv[0], "quit") == 0 || strcmp(argv[0], "exit") == 0) {
	.loc 1 856 18 is_stmt 0 view .LVU691
	leaq	.LC50(%rip), %rsi	#, tmp908
	movq	%rbp, %rdi	# _9,
	call	strcmp@PLT	#
.LVL242:
# peer.c:856:         else if (strcmp(argv[0], "quit") == 0 || strcmp(argv[0], "exit") == 0) {
	.loc 1 856 17 discriminator 1 view .LVU692
	testl	%eax, %eax	# tmp1040
	je	.L258	#,
# peer.c:856:         else if (strcmp(argv[0], "quit") == 0 || strcmp(argv[0], "exit") == 0) {
	.loc 1 856 50 discriminator 1 view .LVU693
	leaq	.LC51(%rip), %rsi	#, tmp910
	movq	%rbp, %rdi	# _9,
	call	strcmp@PLT	#
.LVL243:
# peer.c:856:         else if (strcmp(argv[0], "quit") == 0 || strcmp(argv[0], "exit") == 0) {
	.loc 1 856 47 discriminator 1 view .LVU694
	testl	%eax, %eax	# tmp1041
	je	.L258	#,
	.loc 1 859 14 is_stmt 1 view .LVU695
.LVL244:
.LBB520:
.LBI520:
	.loc 2 84 1 view .LVU696
.LBB521:
	.loc 2 86 3 view .LVU697
# /usr/include/x86_64-linux-gnu/bits/stdio2.h:86:   return __printf_chk (__USE_FORTIFY_LEVEL - 1, __fmt, __va_arg_pack ());
	.loc 2 86 10 is_stmt 0 view .LVU698
	movq	%rbp, %rdx	# _9,
	leaq	.LC52(%rip), %rsi	#, tmp911
	movl	$2, %edi	#,
	xorl	%eax, %eax	#
	call	__printf_chk@PLT	#
.LVL245:
	.loc 2 86 10 view .LVU699
.LBE521:
.LBE520:
.LBE796:
	.loc 1 831 12 is_stmt 1 view .LVU700
	movl	g_quit(%rip), %eax	# g_quit, g_quit.62_31
	testl	%eax, %eax	# g_quit.62_31
	je	.L136	#,
	jmp	.L135	#
.LVL246:
	.p2align 4,,10
	.p2align 3
.L372:
.LBB797:
	.loc 1 832 28 discriminator 1 view .LVU701
.LBB522:
.LBI522:
	.loc 2 84 1 view .LVU702
.LBB523:
	.loc 2 86 3 view .LVU703
# /usr/include/x86_64-linux-gnu/bits/stdio2.h:86:   return __printf_chk (__USE_FORTIFY_LEVEL - 1, __fmt, __va_arg_pack ());
	.loc 2 86 10 is_stmt 0 view .LVU704
	leaq	.LC6(%rip), %rsi	#,
	movl	$2, %edi	#,
	xorl	%eax, %eax	#
	call	__printf_chk@PLT	#
.LVL247:
	.loc 2 86 10 view .LVU705
.LBE523:
.LBE522:
	.loc 1 832 45 is_stmt 1 discriminator 1 view .LVU706
	movq	stdout(%rip), %rdi	# stdout,
	call	fflush@PLT	#
.LVL248:
	jmp	.L138	#
.LVL249:
.L373:
	.loc 1 836 27 discriminator 1 view .LVU707
.LBB524:
.LBI524:
	.loc 2 77 1 view .LVU708
.LBB525:
	.loc 2 79 3 view .LVU709
# /usr/include/x86_64-linux-gnu/bits/stdio2.h:79:   return __fprintf_chk (__stream, __USE_FORTIFY_LEVEL - 1, __fmt,
	.loc 2 79 10 is_stmt 0 view .LVU710
	movq	stderr(%rip), %rdi	# stderr,
	movq	%rbp, %rcx	# s,
	movl	$2, %esi	#,
	xorl	%eax, %eax	#
	leaq	.LC7(%rip), %rdx	#, tmp524
	call	__fprintf_chk@PLT	#
.LVL250:
	.loc 2 79 10 view .LVU711
.LBE525:
.LBE524:
.LBB526:
.LBB518:
# peer.c:818:     while (*p && n < max) {
	.loc 1 818 12 view .LVU712
	movzbl	0(%rbp), %r14d	# *s_595,
.LVL251:
	.loc 1 818 15 is_stmt 1 view .LVU713
	testb	%r14b, %r14b	# _97
	jne	.L147	#,
	jmp	.L159	#
.LVL252:
.L375:
	.loc 1 818 15 is_stmt 0 view .LVU714
.LBE518:
.LBE526:
	.loc 1 841 49 is_stmt 1 discriminator 1 view .LVU715
.LBB527:
.LBI527:
	.loc 1 760 13 view .LVU716
.LBB528:
	.loc 1 761 5 view .LVU717
.LBB529:
.LBI529:
	.loc 2 84 1 view .LVU718
.LBB530:
	.loc 2 86 3 view .LVU719
# /usr/include/x86_64-linux-gnu/bits/stdio2.h:86:   return __printf_chk (__USE_FORTIFY_LEVEL - 1, __fmt, __va_arg_pack ());
	.loc 2 86 10 is_stmt 0 view .LVU720
	leaq	.LC9(%rip), %rdi	#, tmp534
	call	puts@PLT	#
.LVL253:
	.loc 2 86 10 view .LVU721
.LBE530:
.LBE529:
.LBE528:
.LBE527:
.LBE797:
	.loc 1 831 12 is_stmt 1 view .LVU722
	movl	g_quit(%rip), %eax	# g_quit, g_quit.62_31
	testl	%eax, %eax	# g_quit.62_31
	je	.L136	#,
	jmp	.L135	#
	.p2align 4,,10
	.p2align 3
.L181:
.LBB798:
	.loc 1 845 14 view .LVU723
# peer.c:845:         else if (strcmp(argv[0], "get")   == 0 && argc >= 2) {
	.loc 1 845 18 is_stmt 0 view .LVU724
	leaq	.LC31(%rip), %rsi	#, tmp661
	movq	%rbp, %rdi	# _9,
	call	strcmp@PLT	#
.LVL254:
# peer.c:845:         else if (strcmp(argv[0], "get")   == 0 && argc >= 2) {
	.loc 1 845 48 discriminator 1 view .LVU725
	testl	%eax, %eax	# tmp998
	jne	.L182	#,
	movl	$3, %r15d	#, ivtmp.412
.LBB531:
.LBB532:
# peer.c:848:                 if (strcmp(argv[i], "--out") == 0) { out = argv[i + 1]; break; }
	.loc 1 848 21 view .LVU726
	leaq	.LC32(%rip), %r14	#, tmp961
.LBE532:
.LBE531:
# peer.c:845:         else if (strcmp(argv[0], "get")   == 0 && argc >= 2) {
	.loc 1 845 48 discriminator 1 view .LVU727
	testb	%r12b, %r12b	# tmp537
	jne	.L190	#,
	jmp	.L182	#
.LVL255:
.L193:
.LBB695:
.LBB533:
	.loc 1 848 17 is_stmt 1 view .LVU728
# peer.c:848:                 if (strcmp(argv[i], "--out") == 0) { out = argv[i + 1]; break; }
	.loc 1 848 21 is_stmt 0 view .LVU729
	movq	264(%rsp,%r15,8), %rdi	# MEM[(char * *)&argv + -8B + ivtmp.412_962 * 8], MEM[(char * *)&argv + -8B + ivtmp.412_962 * 8]
	movq	%r14, %rsi	# tmp961,
	call	strcmp@PLT	#
.LVL256:
	movl	%eax, %edx	#, tmp999
# peer.c:848:                 if (strcmp(argv[i], "--out") == 0) { out = argv[i + 1]; break; }
	.loc 1 848 20 discriminator 1 view .LVU730
	leaq	1(%r15), %rax	#, ivtmp.412
	testl	%edx, %edx	# tmp999
	je	.L381	#,
	movq	%rax, %r15	# ivtmp.412, ivtmp.412
.LVL257:
.L190:
	.loc 1 847 35 is_stmt 1 discriminator 1 view .LVU731
	cmpl	%r15d, %ebx	# ivtmp.412, n
	jg	.L193	#,
.LBE533:
# peer.c:846:             const char *out = NULL;
	.loc 1 846 25 is_stmt 0 view .LVU732
	xorl	%r12d, %r12d	# out
.LVL258:
.L192:
	.loc 1 849 13 is_stmt 1 view .LVU733
.LBB534:
.LBI534:
	.loc 1 618 13 view .LVU734
.LBB535:
	.loc 1 619 5 view .LVU735
	.loc 1 620 5 view .LVU736
# peer.c:620:     if (hex_to_hash(hex, fhash) < 0) { printf("invalid hash\n"); return; }
	.loc 1 620 9 is_stmt 0 view .LVU737
	leaq	2800(%rsp), %rax	#, tmp923
	movq	280(%rsp), %rdi	# argv[1],
	movq	%rax, %rsi	# tmp923,
	movq	%rax, 72(%rsp)	# tmp923, %sfp
	call	hex_to_hash@PLT	#
.LVL259:
# peer.c:620:     if (hex_to_hash(hex, fhash) < 0) { printf("invalid hash\n"); return; }
	.loc 1 620 8 discriminator 1 view .LVU738
	testl	%eax, %eax	# tmp1000
	js	.L371	#,
	.loc 1 621 5 is_stmt 1 view .LVU739
	.loc 1 621 23 view .LVU740
.LVL260:
.LBB536:
.LBI536:
	.loc 3 57 1 view .LVU741
.LBB537:
	.loc 3 59 3 view .LVU742
# /usr/include/x86_64-linux-gnu/bits/string_fortified.h:59:   return __builtin___memset_chk (__dest, __ch, __len,
	.loc 3 59 10 is_stmt 0 discriminator 1 view .LVU743
	leaq	336(%rsp), %rdi	#, tmp942
.LVL261:
	.loc 3 59 10 discriminator 1 view .LVU744
	xorl	%eax, %eax	# tmp676
	movl	$39, %ecx	#, tmp677
	movq	%rdi, 96(%rsp)	# tmp942, %sfp
	rep stosq
.LVL262:
	.loc 3 59 10 discriminator 1 view .LVU745
.LBE537:
.LBE536:
	.loc 1 622 5 is_stmt 1 view .LVU746
.LBB538:
.LBI538:
	.loc 1 173 12 view .LVU747
.LBB539:
	.loc 1 174 5 view .LVU748
# peer.c:174:     if (ensure_tracker() < 0) return -1;
	.loc 1 174 9 is_stmt 0 view .LVU749
	call	ensure_tracker	#
.LVL263:
# peer.c:174:     if (ensure_tracker() < 0) return -1;
	.loc 1 174 8 discriminator 1 view .LVU750
	testl	%eax, %eax	# tmp1001
	js	.L196	#,
	.loc 1 175 5 is_stmt 1 view .LVU751
	leaq	g_tracker_lock(%rip), %rbx	#, tmp678
.LVL264:
	.loc 1 175 5 is_stmt 0 view .LVU752
	movq	%rbx, %rdi	# tmp678,
	call	pthread_mutex_lock@PLT	#
.LVL265:
	.loc 1 176 5 is_stmt 1 view .LVU753
# peer.c:176:     int rc = msg_send(g_tracker_fd, MSG_GET_FILE_INFO, fhash, HASH_SIZE);
	.loc 1 176 14 is_stmt 0 view .LVU754
	movq	72(%rsp), %rdx	# %sfp,
	movl	g_tracker_fd(%rip), %edi	# g_tracker_fd,
	movl	$32, %ecx	#,
	movl	$9, %esi	#,
	call	msg_send@PLT	#
.LVL266:
	.loc 1 177 5 is_stmt 1 view .LVU755
# peer.c:177:     if (rc < 0) { close(g_tracker_fd); g_tracker_fd = -1;
	.loc 1 177 8 is_stmt 0 view .LVU756
	testl	%eax, %eax	# tmp1002
	js	.L382	#,
	.loc 1 179 5 is_stmt 1 view .LVU757
	.loc 1 179 16 view .LVU758
# peer.c:179:     uint8_t t; uint8_t *payload = NULL; uint32_t plen;
	.loc 1 179 25 is_stmt 0 view .LVU759
	xorl	%eax, %eax	#
.LVL267:
# peer.c:180:     rc = msg_recv(g_tracker_fd, &t, &payload, &plen);
	.loc 1 180 10 view .LVU760
	movl	g_tracker_fd(%rip), %edi	# g_tracker_fd,
	leaq	200(%rsp), %rcx	#, tmp934
	leaq	208(%rsp), %rdx	#, tmp935
# peer.c:179:     uint8_t t; uint8_t *payload = NULL; uint32_t plen;
	.loc 1 179 25 view .LVU761
	movq	%rax, 208(%rsp)	#, MEM[(uint8_t * *)_924]
	.loc 1 179 41 is_stmt 1 view .LVU762
	.loc 1 180 5 view .LVU763
# peer.c:180:     rc = msg_recv(g_tracker_fd, &t, &payload, &plen);
	.loc 1 180 10 is_stmt 0 view .LVU764
	leaq	188(%rsp), %rax	#, tmp931
	movq	%rax, %rsi	# tmp931,
	movq	%rcx, 120(%rsp)	# tmp934, %sfp
	movq	%rdx, 88(%rsp)	# tmp935, %sfp
	movq	%rax, 112(%rsp)	# tmp931, %sfp
	call	msg_recv@PLT	#
.LVL268:
# peer.c:181:     pthread_mutex_unlock(&g_tracker_lock);
	.loc 1 181 5 view .LVU765
	movq	%rbx, %rdi	# tmp678,
# peer.c:180:     rc = msg_recv(g_tracker_fd, &t, &payload, &plen);
	.loc 1 180 10 view .LVU766
	movl	%eax, %ebp	# tmp1003, rc
.LVL269:
	.loc 1 181 5 is_stmt 1 view .LVU767
	call	pthread_mutex_unlock@PLT	#
.LVL270:
	.loc 1 182 5 view .LVU768
	movq	208(%rsp), %rdi	# MEM[(uint8_t * *)_924], MEM[(uint8_t * *)_924]
# peer.c:182:     if (rc < 0 || t != MSG_GET_FILE_INFO_RESP) { free(payload); return -1; }
	.loc 1 182 8 is_stmt 0 view .LVU769
	testl	%ebp, %ebp	# rc
	js	.L368	#,
# peer.c:182:     if (rc < 0 || t != MSG_GET_FILE_INFO_RESP) { free(payload); return -1; }
	.loc 1 182 16 discriminator 2 view .LVU770
	cmpb	$10, 188(%rsp)	#, MEM[(unsigned char *)_316]
	jne	.L368	#,
	.loc 1 183 5 is_stmt 1 view .LVU771
# peer.c:183:     const uint8_t *p = payload, *end = payload + plen;
	.loc 1 183 48 is_stmt 0 view .LVU772
	movl	200(%rsp), %eax	# MEM[(unsigned int *)_735], MEM[(unsigned int *)_735]
# peer.c:185:     if (buf_get_u8(&p, end, &present) < 0 || !present) { free(payload); return -1; }
	.loc 1 185 9 view .LVU773
	leaq	224(%rsp), %rbp	#, tmp936
.LVL271:
# peer.c:183:     const uint8_t *p = payload, *end = payload + plen;
	.loc 1 183 20 view .LVU774
	movq	%rdi, 224(%rsp)	# MEM[(uint8_t * *)_924], MEM[(const uint8_t * *)_900]
# peer.c:183:     const uint8_t *p = payload, *end = payload + plen;
	.loc 1 183 34 view .LVU775
	leaq	(%rdi,%rax), %rbx	#, end
.LVL272:
	.loc 1 184 5 is_stmt 1 view .LVU776
	.loc 1 185 5 view .LVU777
# peer.c:185:     if (buf_get_u8(&p, end, &present) < 0 || !present) { free(payload); return -1; }
	.loc 1 185 9 is_stmt 0 view .LVU778
	leaq	192(%rsp), %rax	#, tmp932
	movq	%rbp, %rdi	# tmp936,
	movq	%rax, %rdx	# tmp932,
	movq	%rbx, %rsi	# end,
	movq	%rax, 128(%rsp)	# tmp932, %sfp
	call	buf_get_u8@PLT	#
.LVL273:
# peer.c:185:     if (buf_get_u8(&p, end, &present) < 0 || !present) { free(payload); return -1; }
	.loc 1 185 8 discriminator 1 view .LVU779
	testl	%eax, %eax	# tmp1004
	js	.L200	#,
# peer.c:185:     if (buf_get_u8(&p, end, &present) < 0 || !present) { free(payload); return -1; }
	.loc 1 185 43 discriminator 2 view .LVU780
	cmpb	$0, 192(%rsp)	#, MEM[(unsigned char *)_736]
	je	.L200	#,
	.loc 1 186 5 is_stmt 1 view .LVU781
	.loc 1 187 5 view .LVU782
# peer.c:187:     if (buf_get_bytes(&p, end, out->file_hash, HASH_SIZE) < 0 ||
	.loc 1 187 9 is_stmt 0 view .LVU783
	movq	96(%rsp), %rdx	# %sfp,
	movl	$32, %ecx	#,
	movq	%rbx, %rsi	# end,
	movq	%rbp, %rdi	# tmp936,
	call	buf_get_bytes@PLT	#
.LVL274:
# peer.c:187:     if (buf_get_bytes(&p, end, out->file_hash, HASH_SIZE) < 0 ||
	.loc 1 187 8 discriminator 1 view .LVU784
	testl	%eax, %eax	# tmp1005
	js	.L200	#,
# peer.c:188:         buf_get_u16  (&p, end, &nl) < 0 || nl > MAX_FILENAME ||
	.loc 1 188 9 view .LVU785
	leaq	196(%rsp), %rax	#, tmp933
	movq	%rbx, %rsi	# end,
	movq	%rbp, %rdi	# tmp936,
	movq	%rax, %rdx	# tmp933,
	movq	%rax, 136(%rsp)	# tmp933, %sfp
	call	buf_get_u16@PLT	#
.LVL275:
# peer.c:187:     if (buf_get_bytes(&p, end, out->file_hash, HASH_SIZE) < 0 ||
	.loc 1 187 63 discriminator 1 view .LVU786
	testl	%eax, %eax	# tmp1006
	js	.L200	#,
# peer.c:188:         buf_get_u16  (&p, end, &nl) < 0 || nl > MAX_FILENAME ||
	.loc 1 188 47 view .LVU787
	movzwl	196(%rsp), %eax	# MEM[(short unsigned int *)_934], nl.201_397
# peer.c:188:         buf_get_u16  (&p, end, &nl) < 0 || nl > MAX_FILENAME ||
	.loc 1 188 41 view .LVU788
	cmpw	$255, %ax	#, nl.201_397
	ja	.L200	#,
# peer.c:189:         buf_get_bytes(&p, end, out->filename, nl) < 0 ||
	.loc 1 189 9 view .LVU789
	movzwl	%ax, %ecx	# nl.201_397, nl.201_397
	leaq	368(%rsp), %rax	#, tmp943
	movq	%rbx, %rsi	# end,
	movq	%rbp, %rdi	# tmp936,
	movq	%rax, %rdx	# tmp943,
	movq	%rax, 48(%rsp)	# tmp943, %sfp
	call	buf_get_bytes@PLT	#
.LVL276:
# peer.c:188:         buf_get_u16  (&p, end, &nl) < 0 || nl > MAX_FILENAME ||
	.loc 1 188 62 discriminator 1 view .LVU790
	testl	%eax, %eax	# tmp1007
	js	.L200	#,
# peer.c:190:         buf_get_u64  (&p, end, &out->file_size) < 0 ||
	.loc 1 190 9 view .LVU791
	leaq	624(%rsp), %rdx	#, tmp703
	movq	%rbx, %rsi	# end,
	movq	%rbp, %rdi	# tmp936,
	call	buf_get_u64@PLT	#
.LVL277:
# peer.c:189:         buf_get_bytes(&p, end, out->filename, nl) < 0 ||
	.loc 1 189 55 view .LVU792
	testl	%eax, %eax	# tmp1008
	js	.L200	#,
# peer.c:191:         buf_get_u32  (&p, end, &out->chunk_size) < 0 ||
	.loc 1 191 9 view .LVU793
	leaq	632(%rsp), %rdx	#, tmp706
	movq	%rbx, %rsi	# end,
	movq	%rbp, %rdi	# tmp936,
	call	buf_get_u32@PLT	#
.LVL278:
# peer.c:190:         buf_get_u64  (&p, end, &out->file_size) < 0 ||
	.loc 1 190 53 view .LVU794
	testl	%eax, %eax	# tmp1009
	js	.L200	#,
# peer.c:192:         buf_get_u32  (&p, end, &out->chunk_count) < 0) {
	.loc 1 192 9 view .LVU795
	leaq	636(%rsp), %rdx	#, tmp709
	movq	%rbx, %rsi	# end,
	movq	%rbp, %rdi	# tmp936,
	call	buf_get_u32@PLT	#
.LVL279:
# peer.c:191:         buf_get_u32  (&p, end, &out->chunk_size) < 0 ||
	.loc 1 191 54 view .LVU796
	testl	%eax, %eax	# tmp1010
	js	.L200	#,
	.loc 1 195 5 is_stmt 1 view .LVU797
# peer.c:195:     out->filename[nl] = '\0';
	.loc 1 195 23 is_stmt 0 view .LVU798
	movzwl	196(%rsp), %eax	# MEM[(short unsigned int *)_934], MEM[(short unsigned int *)_934]
	movb	$0, 368(%rsp,%rax)	#, info.filename[_409]
	.loc 1 196 5 is_stmt 1 view .LVU799
# peer.c:196:     out->chunk_hashes = NULL;
	.loc 1 196 23 is_stmt 0 view .LVU800
	xorl	%eax, %eax	#
	movq	%rax, 640(%rsp)	#, info.chunk_hashes
	.loc 1 197 5 is_stmt 1 view .LVU801
# peer.c:197:     if (out->chunk_count > 0) {
	.loc 1 197 12 is_stmt 0 view .LVU802
	movl	636(%rsp), %eax	# info.chunk_count,
# peer.c:197:     if (out->chunk_count > 0) {
	.loc 1 197 8 view .LVU803
	testl	%eax, %eax	# _410
	je	.L204	#,
	.loc 1 198 9 is_stmt 1 view .LVU804
# peer.c:198:         out->chunk_hashes = malloc((size_t)out->chunk_count * HASH_SIZE);
	.loc 1 198 29 is_stmt 0 view .LVU805
	salq	$5, %rax	#, _410
	movq	%rax, %rdi	# _412,
	movq	%rax, %r14	# _410, _412
	call	malloc@PLT	#
.LVL280:
# peer.c:199:         if (buf_get_bytes(&p, end, out->chunk_hashes,
	.loc 1 199 13 view .LVU806
	movq	%r14, %rcx	# _412,
	movq	%rbx, %rsi	# end,
	movq	%rbp, %rdi	# tmp936,
# peer.c:198:         out->chunk_hashes = malloc((size_t)out->chunk_count * HASH_SIZE);
	.loc 1 198 29 view .LVU807
	movq	%rax, %rdx	# tmp1011, tmp714
# peer.c:198:         out->chunk_hashes = malloc((size_t)out->chunk_count * HASH_SIZE);
	.loc 1 198 27 discriminator 1 view .LVU808
	movq	%rax, 640(%rsp)	# tmp714, info.chunk_hashes
	.loc 1 199 9 is_stmt 1 view .LVU809
# peer.c:199:         if (buf_get_bytes(&p, end, out->chunk_hashes,
	.loc 1 199 13 is_stmt 0 view .LVU810
	call	buf_get_bytes@PLT	#
.LVL281:
# peer.c:199:         if (buf_get_bytes(&p, end, out->chunk_hashes,
	.loc 1 199 12 discriminator 1 view .LVU811
	testl	%eax, %eax	# tmp1012
	js	.L383	#,
.L204:
	.loc 1 204 5 is_stmt 1 view .LVU812
	movq	208(%rsp), %rdi	# MEM[(uint8_t * *)_924],
	call	free@PLT	#
.LVL282:
	.loc 1 205 5 view .LVU813
	.loc 1 205 5 is_stmt 0 view .LVU814
.LBE539:
.LBE538:
	.loc 1 626 5 is_stmt 1 view .LVU815
	.loc 1 627 5 view .LVU816
# peer.c:627:     if (out_opt && *out_opt) snprintf(out_path, sizeof out_path, "%s", out_opt);
	.loc 1 627 8 is_stmt 0 view .LVU817
	testq	%r12, %r12	# out
	je	.L206	#,
# peer.c:627:     if (out_opt && *out_opt) snprintf(out_path, sizeof out_path, "%s", out_opt);
	.loc 1 627 17 discriminator 1 view .LVU818
	cmpb	$0, (%r12)	#, *out_32
	jne	.L384	#,
.L206:
	.loc 1 628 10 is_stmt 1 view .LVU819
.LVL283:
.LBB542:
.LBI542:
	.loc 2 51 1 view .LVU820
.LBB543:
	.loc 2 54 3 view .LVU821
# /usr/include/x86_64-linux-gnu/bits/stdio2.h:54:   return __builtin___snprintf_chk (__s, __n, __USE_FORTIFY_LEVEL - 1,
	.loc 2 54 10 is_stmt 0 discriminator 1 view .LVU822
	movl	$2048, %ecx	#,
	movl	$2, %edx	#,
	movl	$2048, %esi	#,
.LVL284:
	.loc 2 54 10 discriminator 1 view .LVU823
	leaq	2864(%rsp), %rax	#, tmp925
.LVL285:
	.loc 2 54 10 discriminator 1 view .LVU824
	leaq	g_data_dir(%rip), %r9	#,
	movq	%rax, 16(%rsp)	# tmp925, %sfp
	movq	%rax, %rdi	# tmp925,
	leaq	.LC34(%rip), %r8	#,
	xorl	%eax, %eax	#
.LVL286:
	.loc 2 54 10 discriminator 1 view .LVU825
	pushq	%r12	#
	.cfi_def_cfa_offset 9096
	pushq	56(%rsp)	# %sfp
	.cfi_def_cfa_offset 9104
	call	__snprintf_chk@PLT	#
.LVL287:
# /usr/include/x86_64-linux-gnu/bits/stdio2.h:54:   return __builtin___snprintf_chk (__s, __n, __USE_FORTIFY_LEVEL - 1,
	.loc 2 54 10 view .LVU826
	popq	%r14	#
	.cfi_def_cfa_offset 9096
	popq	%r15	#
	.cfi_def_cfa_offset 9088
.L207:
.LBE543:
.LBE542:
	.loc 1 630 5 is_stmt 1 view .LVU827
.LVL288:
.LBB544:
.LBI544:
	.file 4 "/usr/include/x86_64-linux-gnu/bits/fcntl2.h"
	.loc 4 41 1 view .LVU828
.LBB545:
	.loc 4 43 3 view .LVU829
	.loc 4 46 3 view .LVU830
	.loc 4 48 7 view .LVU831
	.loc 4 53 7 view .LVU832
# /usr/include/x86_64-linux-gnu/bits/fcntl2.h:53:       return __open_alias (__path, __oflag, __va_arg_pack ());
	.loc 4 53 14 is_stmt 0 view .LVU833
	movq	16(%rsp), %rdi	# %sfp,
	movl	$420, %edx	#,
	movl	$66, %esi	#,
	xorl	%eax, %eax	#
	call	open@PLT	#
.LVL289:
	movl	%eax, %r14d	# tmp1013, _266
.LVL290:
	.loc 4 53 14 view .LVU834
.LBE545:
.LBE544:
	.loc 1 631 5 is_stmt 1 view .LVU835
# peer.c:631:     if (out_fd < 0) {
	.loc 1 631 8 is_stmt 0 view .LVU836
	testl	%eax, %eax	# _266
	js	.L385	#,
	.loc 1 635 5 is_stmt 1 view .LVU837
# peer.c:635:     if (ftruncate(out_fd, (off_t)info.file_size) < 0) {
	.loc 1 635 9 is_stmt 0 view .LVU838
	movq	624(%rsp), %rsi	# info.file_size,
	movl	%eax, %edi	# _266,
	call	ftruncate@PLT	#
.LVL291:
# peer.c:635:     if (ftruncate(out_fd, (off_t)info.file_size) < 0) {
	.loc 1 635 8 discriminator 1 view .LVU839
	testl	%eax, %eax	# tmp1016
	js	.L386	#,
	.loc 1 640 5 is_stmt 1 view .LVU840
# peer.c:640:     uint32_t bfl       = info.chunk_count ? BITFIELD_BYTES(info.chunk_count) : 1;
	.loc 1 640 30 is_stmt 0 view .LVU841
	movl	636(%rsp), %eax	# info.chunk_count, remaining
	movl	%eax, 64(%rsp)	# remaining, %sfp
# peer.c:640:     uint32_t bfl       = info.chunk_count ? BITFIELD_BYTES(info.chunk_count) : 1;
	.loc 1 640 78 view .LVU842
	testl	%eax, %eax	# remaining
	je	.L210	#,
.LVL292:
	.loc 1 641 5 is_stmt 1 view .LVU843
# peer.c:640:     uint32_t bfl       = info.chunk_count ? BITFIELD_BYTES(info.chunk_count) : 1;
	.loc 1 640 45 is_stmt 0 discriminator 1 view .LVU844
	leal	7(%rax), %r12d	#, tmp736
# peer.c:641:     uint8_t *bitfield  = calloc(1, bfl);
	.loc 1 641 26 view .LVU845
	movl	$1, %edi	#,
.LBB546:
.LBB547:
# peer.c:571:     int verified = 0;
	.loc 1 571 9 view .LVU846
	xorl	%ebx, %ebx	#
.LBE547:
.LBE546:
# peer.c:640:     uint32_t bfl       = info.chunk_count ? BITFIELD_BYTES(info.chunk_count) : 1;
	.loc 1 640 78 discriminator 1 view .LVU847
	shrl	$3, %r12d	#,
# peer.c:641:     uint8_t *bitfield  = calloc(1, bfl);
	.loc 1 641 26 view .LVU848
	movq	%r12, %rsi	# _567,
	call	calloc@PLT	#
.LVL293:
# peer.c:642:     uint8_t *failed_bf = calloc(1, bfl);
	.loc 1 642 26 view .LVU849
	movq	%r12, %rsi	# _567,
	movl	$1, %edi	#,
# peer.c:641:     uint8_t *bitfield  = calloc(1, bfl);
	.loc 1 641 26 view .LVU850
	movq	%rax, 40(%rsp)	# tmp1019, %sfp
.LVL294:
	.loc 1 642 5 is_stmt 1 view .LVU851
# peer.c:642:     uint8_t *failed_bf = calloc(1, bfl);
	.loc 1 642 26 is_stmt 0 view .LVU852
	call	calloc@PLT	#
.LVL295:
.LBB568:
.LBB563:
# peer.c:570:     uint8_t *buf = malloc(info->chunk_size);
	.loc 1 570 20 view .LVU853
	movl	632(%rsp), %r12d	# info.chunk_size, _421
.LBE563:
.LBE568:
# peer.c:642:     uint8_t *failed_bf = calloc(1, bfl);
	.loc 1 642 26 view .LVU854
	movq	%rax, 32(%rsp)	# tmp1020, %sfp
.LVL296:
	.loc 1 643 5 is_stmt 1 view .LVU855
	.loc 1 644 5 view .LVU856
.LBB569:
.LBI546:
	.loc 1 567 12 view .LVU857
.LBB564:
	.loc 1 569 5 view .LVU858
	.loc 1 570 5 view .LVU859
# peer.c:570:     uint8_t *buf = malloc(info->chunk_size);
	.loc 1 570 20 is_stmt 0 view .LVU860
	movq	%r12, %rdi	# _421,
	call	malloc@PLT	#
.LVL297:
# peer.c:571:     int verified = 0;
	.loc 1 571 9 view .LVU861
	movl	%ebx, 24(%rsp)	#, %sfp
.LBB548:
# peer.c:572:     for (uint32_t i = 0; i < info->chunk_count; i++) {
	.loc 1 572 19 view .LVU862
	xorl	%r9d, %r9d	# i
	movl	%r13d, 56(%rsp)	# interactive, %sfp
.LBE548:
# peer.c:570:     uint8_t *buf = malloc(info->chunk_size);
	.loc 1 570 20 view .LVU863
	movq	%rax, %r15	# tmp1021, buf
.LVL298:
	.loc 1 571 5 is_stmt 1 view .LVU864
	.loc 1 572 5 view .LVU865
.LBB560:
	.loc 1 572 10 view .LVU866
	.loc 1 572 10 is_stmt 0 view .LVU867
	movl	%r9d, %r8d	# i, i
	movq	%rbp, 80(%rsp)	# tmp936, %sfp
	movq	%r12, %rbp	# _421, _421
.LVL299:
.L211:
	.loc 1 572 28 is_stmt 1 discriminator 1 view .LVU868
	cmpl	636(%rsp), %r8d	# info.chunk_count, i
	jnb	.L364	#,
.LBB549:
	.loc 1 573 9 view .LVU869
# peer.c:573:         uint64_t off = (uint64_t)i * info->chunk_size;
	.loc 1 573 42 is_stmt 0 view .LVU870
	movl	632(%rsp), %ebx	# info.chunk_size, want
# peer.c:573:         uint64_t off = (uint64_t)i * info->chunk_size;
	.loc 1 573 24 view .LVU871
	movl	%r8d, %eax	# i, _424
	movq	%rax, 104(%rsp)	# _424, %sfp
# peer.c:573:         uint64_t off = (uint64_t)i * info->chunk_size;
	.loc 1 573 18 view .LVU872
	imulq	%rbx, %rax	# want, off
	movq	%rax, %r13	# off, off
.LVL300:
	.loc 1 574 9 is_stmt 1 view .LVU873
	.loc 1 575 9 view .LVU874
# peer.c:575:         if (off + want > info->file_size) want = info->file_size - off;
	.loc 1 575 30 is_stmt 0 view .LVU875
	movq	624(%rsp), %rax	# info.file_size, _429
.LVL301:
# peer.c:575:         if (off + want > info->file_size) want = info->file_size - off;
	.loc 1 575 17 view .LVU876
	leaq	(%rbx,%r13), %rdx	#, tmp741
# peer.c:575:         if (off + want > info->file_size) want = info->file_size - off;
	.loc 1 575 12 view .LVU877
	cmpq	%rdx, %rax	# tmp741, _429
	jnb	.L212	#,
	.loc 1 575 43 is_stmt 1 discriminator 1 view .LVU878
# peer.c:575:         if (off + want > info->file_size) want = info->file_size - off;
	.loc 1 575 48 is_stmt 0 discriminator 1 view .LVU879
	subq	%r13, %rax	# off, _429
	movq	%rax, %rbx	# _429, want
.LVL302:
.L212:
	.loc 1 576 9 is_stmt 1 view .LVU880
	.loc 1 576 27 view .LVU881
	.loc 1 577 9 view .LVU882
	.loc 1 577 20 view .LVU883
	testq	%rbx, %rbx	# want
	je	.L272	#,
	.loc 1 577 20 is_stmt 0 view .LVU884
	movl	%r8d, 144(%rsp)	# i, %sfp
# peer.c:576:         uint32_t got = 0; int err = 0;
	.loc 1 576 18 view .LVU885
	xorl	%r12d, %r12d	# got
# peer.c:577:         while (got < want) {
	.loc 1 577 20 view .LVU886
	xorl	%esi, %esi	# _431
	jmp	.L215	#
.LVL303:
.L388:
.LBB550:
	.loc 1 580 13 is_stmt 1 view .LVU887
# peer.c:580:             got += (uint32_t)r;
	.loc 1 580 17 is_stmt 0 view .LVU888
	leal	(%r12,%rax), %esi	#,
	movq	%rsi, %r12	#,
.LVL304:
	.loc 1 580 17 view .LVU889
.LBE550:
	.loc 1 577 20 is_stmt 1 view .LVU890
	cmpq	%rbx, %rsi	# want, _431
	jnb	.L387	#,
.LVL305:
.L215:
.LBB557:
	.loc 1 578 13 view .LVU891
.LBB551:
.LBI551:
	.file 5 "/usr/include/x86_64-linux-gnu/bits/unistd.h"
	.loc 5 36 1 view .LVU892
.LBB552:
	.loc 5 38 3 view .LVU893
# /usr/include/x86_64-linux-gnu/bits/unistd.h:38:   return __glibc_fortify (pread, __nbytes, sizeof (char),
	.loc 5 38 10 is_stmt 0 discriminator 1 view .LVU894
	cmpq	%rsi, %rbp	# _431, _421
	movq	%rsi, %r8	# _431, tmp742
.LBE552:
.LBE551:
# peer.c:578:             ssize_t r = pread(fd, buf + got, want - got, (off_t)(off + got));
	.loc 1 578 25 view .LVU895
	movq	%rbx, %rdx	# want, tmp745
.LBB555:
.LBB553:
# /usr/include/x86_64-linux-gnu/bits/unistd.h:38:   return __glibc_fortify (pread, __nbytes, sizeof (char),
	.loc 5 38 10 discriminator 1 view .LVU896
	movl	%r14d, %edi	# _266,
	cmovnb	%rbp, %r8	# _421,, tmp742
.LBE553:
.LBE555:
# peer.c:578:             ssize_t r = pread(fd, buf + got, want - got, (off_t)(off + got));
	.loc 1 578 39 view .LVU897
	leaq	(%r15,%rsi), %rax	#, tmp746
.LVL306:
# peer.c:578:             ssize_t r = pread(fd, buf + got, want - got, (off_t)(off + got));
	.loc 1 578 70 view .LVU898
	leaq	0(%r13,%rsi), %rcx	#, tmp744
.LVL307:
# peer.c:578:             ssize_t r = pread(fd, buf + got, want - got, (off_t)(off + got));
	.loc 1 578 25 view .LVU899
	subq	%rsi, %rdx	# _431, tmp745
.LVL308:
.LBB556:
.LBB554:
# /usr/include/x86_64-linux-gnu/bits/unistd.h:38:   return __glibc_fortify (pread, __nbytes, sizeof (char),
	.loc 5 38 10 discriminator 1 view .LVU900
	subq	%rsi, %r8	# _431,
	movq	%rax, %rsi	# tmp746,
	call	__pread_chk@PLT	#
.LVL309:
	.loc 5 38 10 discriminator 1 view .LVU901
.LBE554:
.LBE556:
	.loc 1 579 13 is_stmt 1 view .LVU902
# peer.c:579:             if (r <= 0) { err = 1; break; }
	.loc 1 579 16 is_stmt 0 view .LVU903
	testq	%rax, %rax	# iftmp.208_444
	jg	.L388	#,
.LVL310:
.L364:
	.loc 1 579 16 view .LVU904
.LBE557:
.LBE549:
.LBE560:
# peer.c:591:     free(buf);
	.loc 1 591 5 view .LVU905
	movq	%r15, %rdi	# buf,
	movl	56(%rsp), %r13d	# %sfp, interactive
	movq	80(%rsp), %rbp	# %sfp, tmp936
	.loc 1 591 5 is_stmt 1 view .LVU906
	call	free@PLT	#
.LVL311:
	.loc 1 592 5 view .LVU907
	.loc 1 592 5 is_stmt 0 view .LVU908
.LBE564:
.LBE569:
	.loc 1 645 5 is_stmt 1 view .LVU909
# peer.c:645:     if (verified > 0)
	.loc 1 645 8 is_stmt 0 view .LVU910
	movl	24(%rsp), %eax	# %sfp, verified
	testl	%eax, %eax	# verified
	jle	.L220	#,
	.loc 1 646 9 is_stmt 1 view .LVU911
.LVL312:
.LBB570:
.LBI570:
	.loc 2 77 1 view .LVU912
.LBB571:
	.loc 2 79 3 view .LVU913
# /usr/include/x86_64-linux-gnu/bits/stdio2.h:79:   return __fprintf_chk (__stream, __USE_FORTIFY_LEVEL - 1, __fmt,
	.loc 2 79 10 is_stmt 0 view .LVU914
	movl	636(%rsp), %r8d	# info.chunk_count,
	movq	stderr(%rip), %rdi	# stderr,
	movl	%eax, %ecx	# verified,
	xorl	%eax, %eax	#
	leaq	.LC37(%rip), %rdx	#, tmp765
	movl	$2, %esi	#,
	call	__fprintf_chk@PLT	#
.LVL313:
.L220:
	.loc 2 79 10 view .LVU915
.LBE571:
.LBE570:
	.loc 1 650 5 is_stmt 1 view .LVU916
.LBB572:
.LBI572:
	.loc 1 595 23 view .LVU917
.LBB573:
	.loc 1 598 5 view .LVU918
# peer.c:598:     shared_file_t *sf = calloc(1, sizeof *sf);
	.loc 1 598 25 is_stmt 0 view .LVU919
	movl	$2376, %esi	#,
	movl	$1, %edi	#,
	call	calloc@PLT	#
.LVL314:
.LBB574:
.LBB575:
# /usr/include/x86_64-linux-gnu/bits/stdio2.h:54:   return __builtin___snprintf_chk (__s, __n, __USE_FORTIFY_LEVEL - 1,
	.loc 2 54 10 discriminator 1 view .LVU920
	movq	16(%rsp), %rcx	# %sfp,
	movl	$2048, %esi	#,
.LBE575:
.LBE574:
.LBB578:
.LBB579:
# /usr/include/x86_64-linux-gnu/bits/string_fortified.h:29:   return __builtin___memcpy_chk (__dest, __src, __len,
	.loc 3 29 10 discriminator 1 view .LVU921
	movdqa	336(%rsp), %xmm7	# MEM <unsigned char[32]> [(char * {ref-all})&info], tmp1198
	movdqa	352(%rsp), %xmm4	# MEM <unsigned char[32]> [(char * {ref-all})&info], tmp1199
.LBE579:
.LBE578:
# peer.c:598:     shared_file_t *sf = calloc(1, sizeof *sf);
	.loc 1 598 25 view .LVU922
	movq	%rax, %r15	# tmp1024, sf
.LVL315:
	.loc 1 599 5 is_stmt 1 view .LVU923
.LBB582:
.LBI578:
	.loc 3 26 1 view .LVU924
.LBB580:
	.loc 3 29 3 view .LVU925
.LBE580:
.LBE582:
.LBB583:
.LBB576:
# /usr/include/x86_64-linux-gnu/bits/stdio2.h:54:   return __builtin___snprintf_chk (__s, __n, __USE_FORTIFY_LEVEL - 1,
	.loc 2 54 10 is_stmt 0 discriminator 1 view .LVU926
	leaq	32(%rax), %rdi	#, tmp770
	leaq	.LC1(%rip), %rdx	#,
.LBE576:
.LBE583:
.LBB584:
.LBB581:
# /usr/include/x86_64-linux-gnu/bits/string_fortified.h:29:   return __builtin___memcpy_chk (__dest, __src, __len,
	.loc 3 29 10 discriminator 1 view .LVU927
	movups	%xmm7, (%rax)	# tmp1198, MEM <unsigned char[32]> [(char * {ref-all})sf_473]
	movups	%xmm4, 16(%rax)	# tmp1199, MEM <unsigned char[32]> [(char * {ref-all})sf_473]
.LVL316:
	.loc 3 29 10 discriminator 1 view .LVU928
.LBE581:
.LBE584:
	.loc 1 600 5 is_stmt 1 view .LVU929
.LBB585:
.LBI574:
	.loc 2 51 1 view .LVU930
.LBB577:
	.loc 2 54 3 view .LVU931
# /usr/include/x86_64-linux-gnu/bits/stdio2.h:54:   return __builtin___snprintf_chk (__s, __n, __USE_FORTIFY_LEVEL - 1,
	.loc 2 54 10 is_stmt 0 discriminator 1 view .LVU932
	xorl	%eax, %eax	#
.LVL317:
	.loc 2 54 10 discriminator 1 view .LVU933
	call	snprintf@PLT	#
.LVL318:
	.loc 2 54 10 discriminator 1 view .LVU934
.LBE577:
.LBE585:
	.loc 1 601 5 is_stmt 1 view .LVU935
.LBB586:
.LBI586:
	.loc 2 51 1 view .LVU936
.LBB587:
	.loc 2 54 3 view .LVU937
# /usr/include/x86_64-linux-gnu/bits/stdio2.h:54:   return __builtin___snprintf_chk (__s, __n, __USE_FORTIFY_LEVEL - 1,
	.loc 2 54 10 is_stmt 0 discriminator 1 view .LVU938
	movq	48(%rsp), %rcx	# %sfp,
	movl	$256, %esi	#,
	xorl	%eax, %eax	#
	leaq	2080(%r15), %rdi	#, tmp774
.LVL319:
	.loc 2 54 10 discriminator 1 view .LVU939
	leaq	.LC1(%rip), %rdx	#,
	call	snprintf@PLT	#
.LVL320:
	.loc 2 54 10 discriminator 1 view .LVU940
.LBE587:
.LBE586:
	.loc 1 602 5 is_stmt 1 view .LVU941
# peer.c:602:     sf->file_size    = info->file_size;
	.loc 1 602 22 is_stmt 0 view .LVU942
	movq	624(%rsp), %rax	# info.file_size, info.file_size
# peer.c:605:     sf->chunk_hashes = NULL;
	.loc 1 605 22 view .LVU943
	xorl	%r11d, %r11d	#
# peer.c:603:     sf->chunk_size   = info->chunk_size;
	.loc 1 603 28 view .LVU944
	movq	632(%rsp), %xmm0	# MEM <const vector(2) unsigned int> [(unsigned int *)&info + 296B], vect__485.328
# peer.c:605:     sf->chunk_hashes = NULL;
	.loc 1 605 22 view .LVU945
	movq	%r11, 2352(%r15)	#, sf_473->chunk_hashes
# peer.c:602:     sf->file_size    = info->file_size;
	.loc 1 602 22 view .LVU946
	movq	%rax, 2336(%r15)	# info.file_size, sf_473->file_size
	.loc 1 603 5 is_stmt 1 view .LVU947
	pshufd	$0xe5, %xmm0, %xmm5	# vect__485.328, _908
	movd	%xmm5, %eax	# _908,
	.loc 1 604 5 view .LVU948
# peer.c:603:     sf->chunk_size   = info->chunk_size;
	.loc 1 603 22 is_stmt 0 view .LVU949
	movq	%xmm0, 2344(%r15)	# vect__485.328, MEM <vector(2) unsigned int> [(unsigned int *)sf_473 + 2344B]
	.loc 1 605 5 is_stmt 1 view .LVU950
	.loc 1 606 5 view .LVU951
# peer.c:606:     if (info->chunk_count > 0) {
	.loc 1 606 8 is_stmt 0 view .LVU952
	testl	%eax, %eax	# _908
	jne	.L389	#,
.L222:
	.loc 1 611 5 is_stmt 1 view .LVU953
# peer.c:611:     sf->bitfield = bitfield_owned;  /* takes ownership */
	.loc 1 611 18 is_stmt 0 view .LVU954
	movq	40(%rsp), %rax	# %sfp, bitfield
# peer.c:612:     pthread_mutex_lock(&shared_lock);
	.loc 1 612 5 view .LVU955
	leaq	shared_lock(%rip), %r12	#, tmp780
	movq	%r12, %rdi	# tmp780,
# peer.c:611:     sf->bitfield = bitfield_owned;  /* takes ownership */
	.loc 1 611 18 view .LVU956
	movq	%rax, 2360(%r15)	# bitfield, sf_473->bitfield
	.loc 1 612 5 is_stmt 1 view .LVU957
	call	pthread_mutex_lock@PLT	#
.LVL321:
	.loc 1 613 5 view .LVU958
# peer.c:613:     sf->next = shared_files; shared_files = sf;
	.loc 1 613 14 is_stmt 0 view .LVU959
	movq	shared_files(%rip), %rax	# shared_files, shared_files
# peer.c:614:     pthread_mutex_unlock(&shared_lock);
	.loc 1 614 5 view .LVU960
	movq	%r12, %rdi	# tmp780,
# peer.c:613:     sf->next = shared_files; shared_files = sf;
	.loc 1 613 43 view .LVU961
	movq	%r15, shared_files(%rip)	# sf, shared_files
# peer.c:613:     sf->next = shared_files; shared_files = sf;
	.loc 1 613 14 view .LVU962
	movq	%rax, 2368(%r15)	# shared_files, sf_473->next
	.loc 1 613 30 is_stmt 1 view .LVU963
	.loc 1 614 5 view .LVU964
	call	pthread_mutex_unlock@PLT	#
.LVL322:
	.loc 1 615 5 view .LVU965
	.loc 1 615 5 is_stmt 0 view .LVU966
.LBE573:
.LBE572:
	.loc 1 651 5 is_stmt 1 view .LVU967
# peer.c:651:     if (verified > 0 || remaining == 0) tracker_announce(sf);
	.loc 1 651 22 is_stmt 0 discriminator 2 view .LVU968
	cmpl	$0, 64(%rsp)	#, %sfp
	je	.L223	#,
	cmpl	$0, 24(%rsp)	#, %sfp
	jle	.L226	#,
.L223:
	.loc 1 651 41 is_stmt 1 discriminator 3 view .LVU969
	movq	%r15, %rdi	# sf,
	call	tracker_announce	#
.LVL323:
	.loc 1 653 5 view .LVU970
# peer.c:653:     if (remaining > 0) {
	.loc 1 653 8 is_stmt 0 view .LVU971
	cmpl	$0, 64(%rsp)	#, %sfp
	jne	.L226	#,
	.loc 1 734 9 is_stmt 1 view .LVU972
.LVL324:
.LBB593:
.LBI593:
	.loc 2 84 1 view .LVU973
.LBB594:
	.loc 2 86 3 view .LVU974
# /usr/include/x86_64-linux-gnu/bits/stdio2.h:86:   return __printf_chk (__USE_FORTIFY_LEVEL - 1, __fmt, __va_arg_pack ());
	.loc 2 86 10 is_stmt 0 view .LVU975
	movq	16(%rsp), %rdx	# %sfp,
	leaq	.LC45(%rip), %rsi	#, tmp880
	movl	$2, %edi	#,
	xorl	%eax, %eax	#
	call	__printf_chk@PLT	#
.LVL325:
.L250:
	.loc 2 86 10 view .LVU976
.LBE594:
.LBE593:
	.loc 1 737 5 is_stmt 1 view .LVU977
	movl	%r14d, %edi	# _266,
	call	close@PLT	#
.LVL326:
	.loc 1 738 5 view .LVU978
	movq	640(%rsp), %rdi	# info.chunk_hashes,
	call	free@PLT	#
.LVL327:
	.loc 1 739 5 view .LVU979
	movq	32(%rsp), %rdi	# %sfp,
	call	free@PLT	#
.LVL328:
	jmp	.L159	#
.LVL329:
	.p2align 4,,10
	.p2align 3
.L377:
	.loc 1 739 5 is_stmt 0 view .LVU980
.LBE535:
.LBE534:
.LBE695:
	.loc 1 843 49 is_stmt 1 discriminator 1 view .LVU981
.LBB696:
.LBI462:
	.loc 1 535 13 view .LVU982
.LBB505:
	.loc 1 536 5 view .LVU983
	.loc 1 536 31 view .LVU984
	.loc 1 537 5 view .LVU985
.LBB478:
.LBI464:
	.loc 1 132 12 view .LVU986
.LBB474:
	.loc 1 133 5 view .LVU987
# peer.c:133:     if (ensure_tracker() < 0) return -1;
	.loc 1 133 9 is_stmt 0 view .LVU988
	call	ensure_tracker	#
.LVL330:
# peer.c:133:     if (ensure_tracker() < 0) return -1;
	.loc 1 133 8 discriminator 1 view .LVU989
	testl	%eax, %eax	# tmp982
	js	.L169	#,
	.loc 1 134 5 is_stmt 1 view .LVU990
	leaq	g_tracker_lock(%rip), %rbp	#, tmp586
	movq	%rbp, %rdi	# tmp586,
	call	pthread_mutex_lock@PLT	#
.LVL331:
	.loc 1 135 5 view .LVU991
# peer.c:135:     int rc = msg_send(g_tracker_fd, MSG_LIST_FILES, NULL, 0);
	.loc 1 135 14 is_stmt 0 view .LVU992
	movl	g_tracker_fd(%rip), %edi	# g_tracker_fd,
	xorl	%ecx, %ecx	#
	xorl	%edx, %edx	#
	movl	$5, %esi	#,
	call	msg_send@PLT	#
.LVL332:
	.loc 1 136 5 is_stmt 1 view .LVU993
# peer.c:136:     if (rc < 0) { close(g_tracker_fd); g_tracker_fd = -1;
	.loc 1 136 8 is_stmt 0 view .LVU994
	testl	%eax, %eax	# tmp983
	js	.L390	#,
	.loc 1 138 5 is_stmt 1 view .LVU995
	.loc 1 138 16 view .LVU996
# peer.c:139:     rc = msg_recv(g_tracker_fd, &t, &payload, &plen);
	.loc 1 139 10 is_stmt 0 view .LVU997
	movl	g_tracker_fd(%rip), %edi	# g_tracker_fd,
	leaq	196(%rsp), %rcx	#, tmp590
	leaq	208(%rsp), %rdx	#, tmp591
# peer.c:138:     uint8_t t; uint8_t *payload = NULL; uint32_t plen;
	.loc 1 138 25 view .LVU998
	movq	$0, 208(%rsp)	#, MEM[(uint8_t * *)_924]
	.loc 1 138 41 is_stmt 1 view .LVU999
	.loc 1 139 5 view .LVU1000
# peer.c:139:     rc = msg_recv(g_tracker_fd, &t, &payload, &plen);
	.loc 1 139 10 is_stmt 0 view .LVU1001
	leaq	188(%rsp), %rsi	#, tmp592
	call	msg_recv@PLT	#
.LVL333:
# peer.c:140:     pthread_mutex_unlock(&g_tracker_lock);
	.loc 1 140 5 view .LVU1002
	movq	%rbp, %rdi	# tmp586,
# peer.c:139:     rc = msg_recv(g_tracker_fd, &t, &payload, &plen);
	.loc 1 139 10 view .LVU1003
	movl	%eax, %ebx	# tmp984, rc
.LVL334:
	.loc 1 140 5 is_stmt 1 view .LVU1004
	call	pthread_mutex_unlock@PLT	#
.LVL335:
	.loc 1 141 5 view .LVU1005
	movq	208(%rsp), %rdi	# MEM[(uint8_t * *)_924], MEM[(uint8_t * *)_924]
# peer.c:141:     if (rc < 0 || t != MSG_LIST_FILES_RESP) { free(payload); return -1; }
	.loc 1 141 8 is_stmt 0 view .LVU1006
	testl	%ebx, %ebx	# rc
	js	.L367	#,
# peer.c:141:     if (rc < 0 || t != MSG_LIST_FILES_RESP) { free(payload); return -1; }
	.loc 1 141 16 discriminator 2 view .LVU1007
	cmpb	$6, 188(%rsp)	#, MEM[(unsigned char *)_316]
	jne	.L367	#,
	.loc 1 142 5 is_stmt 1 view .LVU1008
# peer.c:142:     const uint8_t *p = payload, *end = payload + plen;
	.loc 1 142 48 is_stmt 0 view .LVU1009
	movl	196(%rsp), %eax	# MEM[(unsigned int *)_934], MEM[(unsigned int *)_934]
# peer.c:144:     if (buf_get_u32(&p, end, &n) < 0) { free(payload); return -1; }
	.loc 1 144 9 view .LVU1010
	leaq	224(%rsp), %rbp	#, tmp936
# peer.c:142:     const uint8_t *p = payload, *end = payload + plen;
	.loc 1 142 20 view .LVU1011
	movq	%rdi, 224(%rsp)	# MEM[(uint8_t * *)_924], MEM[(const uint8_t * *)_900]
# peer.c:144:     if (buf_get_u32(&p, end, &n) < 0) { free(payload); return -1; }
	.loc 1 144 9 view .LVU1012
	leaq	200(%rsp), %rdx	#, tmp597
# peer.c:142:     const uint8_t *p = payload, *end = payload + plen;
	.loc 1 142 34 view .LVU1013
	leaq	(%rdi,%rax), %rbx	#, end
.LVL336:
	.loc 1 143 5 is_stmt 1 view .LVU1014
	.loc 1 144 5 view .LVU1015
# peer.c:144:     if (buf_get_u32(&p, end, &n) < 0) { free(payload); return -1; }
	.loc 1 144 9 is_stmt 0 view .LVU1016
	movq	%rbp, %rdi	# tmp936,
	movq	%rbx, %rsi	# end,
	call	buf_get_u32@PLT	#
.LVL337:
# peer.c:144:     if (buf_get_u32(&p, end, &n) < 0) { free(payload); return -1; }
	.loc 1 144 8 discriminator 1 view .LVU1017
	testl	%eax, %eax	# tmp985
	js	.L391	#,
	.loc 1 145 5 is_stmt 1 view .LVU1018
# peer.c:145:     list_entry_t *arr = n ? calloc(n, sizeof *arr) : NULL;
	.loc 1 145 27 is_stmt 0 view .LVU1019
	movl	200(%rsp), %eax	# MEM[(unsigned int *)_735], n.96_203
# peer.c:145:     list_entry_t *arr = n ? calloc(n, sizeof *arr) : NULL;
	.loc 1 145 52 discriminator 2 view .LVU1020
	xorl	%r14d, %r14d	# iftmp.95_205
# peer.c:145:     list_entry_t *arr = n ? calloc(n, sizeof *arr) : NULL;
	.loc 1 145 52 view .LVU1021
	testl	%eax, %eax	# n.96_203
	jne	.L392	#,
.L174:
	.loc 1 159 5 is_stmt 1 view .LVU1022
	movq	208(%rsp), %rdi	# MEM[(uint8_t * *)_924],
	call	free@PLT	#
.LVL338:
	.loc 1 160 5 view .LVU1023
	.loc 1 160 17 view .LVU1024
# peer.c:160:     *out = arr; *out_n = n;
	.loc 1 160 24 is_stmt 0 view .LVU1025
	movl	200(%rsp), %ebp	# MEM[(unsigned int *)_735],
.LVL339:
	.loc 1 161 5 is_stmt 1 view .LVU1026
	.loc 1 161 5 is_stmt 0 view .LVU1027
.LBE474:
.LBE478:
	.loc 1 538 5 is_stmt 1 view .LVU1028
# peer.c:538:     if (n == 0) { printf("(no files announced)\n"); free(arr); return; }
	.loc 1 538 8 is_stmt 0 view .LVU1029
	testl	%ebp, %ebp	# n.104_232
	je	.L393	#,
	.loc 1 539 5 is_stmt 1 view .LVU1030
.LVL340:
.LBB479:
.LBI479:
	.loc 2 84 1 view .LVU1031
.LBB480:
	.loc 2 86 3 view .LVU1032
# /usr/include/x86_64-linux-gnu/bits/stdio2.h:86:   return __printf_chk (__USE_FORTIFY_LEVEL - 1, __fmt, __va_arg_pack ());
	.loc 2 86 10 is_stmt 0 view .LVU1033
	subq	$8, %rsp	#,
	.cfi_def_cfa_offset 9096
	leaq	.LC23(%rip), %rax	#, tmp1165
	leaq	.LC20(%rip), %rcx	#, tmp624
	movl	$2, %edi	#,
	pushq	%rax	# tmp1165
	.cfi_def_cfa_offset 9104
	leaq	.LC22(%rip), %rsi	#, tmp626
	xorl	%eax, %eax	#
	leaq	.LC18(%rip), %r9	#,
	leaq	.LC19(%rip), %r8	#,
	leaq	.LC21(%rip), %rdx	#, tmp625
	movq	%r14, %r15	# iftmp.95_205, ivtmp.343
	imulq	$312, %rbp, %rbp	#, n.104_232, tmp628
.LVL341:
	.loc 2 86 10 view .LVU1034
	leaq	.LC24(%rip), %rbx	#, tmp941
	call	__printf_chk@PLT	#
.LVL342:
	.loc 2 86 10 view .LVU1035
.LBE480:
.LBE479:
	.loc 1 541 5 is_stmt 1 view .LVU1036
.LBB481:
	.loc 1 541 10 view .LVU1037
	.loc 1 541 28 discriminator 1 view .LVU1038
	popq	%rcx	#
	.cfi_def_cfa_offset 9096
	popq	%rsi	#
	.cfi_def_cfa_offset 9088
	leaq	2864(%rsp), %rax	#, tmp925
	leaq	2832(%rsp), %r12	#, tmp924
	movq	%rax, 16(%rsp)	# tmp925, %sfp
	addq	%r14, %rbp	# iftmp.95_205, _906
	movl	%r13d, %r14d	# interactive, interactive
.LVL343:
	.loc 1 541 28 is_stmt 0 discriminator 1 view .LVU1039
	movq	%r15, %r13	# ivtmp.343, ivtmp.343
.LVL344:
.L180:
.LBB482:
	.loc 1 542 9 is_stmt 1 view .LVU1040
	.loc 1 542 38 view .LVU1041
	movq	16(%rsp), %rsi	# %sfp,
	movq	%r13, %rdi	# ivtmp.343,
	call	hash_to_hex@PLT	#
.LVL345:
	.loc 1 543 9 view .LVU1042
	.loc 1 543 26 view .LVU1043
.LBB483:
.LBI483:
	.loc 3 26 1 view .LVU1044
.LBB484:
	.loc 3 29 3 view .LVU1045
.LBE484:
.LBE483:
.LBB487:
.LBB488:
# /usr/include/x86_64-linux-gnu/bits/stdio2.h:86:   return __printf_chk (__USE_FORTIFY_LEVEL - 1, __fmt, __va_arg_pack ());
	.loc 2 86 10 is_stmt 0 view .LVU1046
	subq	$8, %rsp	#,
	.cfi_def_cfa_offset 9096
.LBE488:
.LBE487:
# peer.c:545:                shortx, arr[i].filename,
	.loc 1 545 30 view .LVU1047
	leaq	32(%r13), %rcx	#, tmp633
.LBB492:
.LBB489:
# /usr/include/x86_64-linux-gnu/bits/stdio2.h:86:   return __printf_chk (__USE_FORTIFY_LEVEL - 1, __fmt, __va_arg_pack ());
	.loc 2 86 10 view .LVU1048
	movq	%r12, %rdx	# tmp924,
	movl	304(%r13), %eax	# MEM[(unsigned int *)_181 + 304B], MEM[(unsigned int *)_181 + 304B]
	movq	%rbx, %rsi	# tmp941,
	movl	$2, %edi	#,
.LBE489:
.LBE492:
.LBB493:
.LBB485:
# /usr/include/x86_64-linux-gnu/bits/string_fortified.h:29:   return __builtin___memcpy_chk (__dest, __src, __len,
	.loc 3 29 10 discriminator 1 view .LVU1049
	movdqa	2872(%rsp), %xmm3	# MEM <uint128_t> [(char * {ref-all})_894], tmp1167
.LBE485:
.LBE493:
# peer.c:543:         char shortx[17]; memcpy(shortx, hex, 16); shortx[16] = '\0';
	.loc 1 543 62 discriminator 1 view .LVU1050
	movb	$0, 2856(%rsp)	#, MEM[(char[17] *)_945][16]
.LBB494:
.LBB490:
# /usr/include/x86_64-linux-gnu/bits/stdio2.h:86:   return __printf_chk (__USE_FORTIFY_LEVEL - 1, __fmt, __va_arg_pack ());
	.loc 2 86 10 view .LVU1051
	movl	300(%r13), %r9d	# MEM[(unsigned int *)_181 + 300B], MEM[(unsigned int *)_181 + 300B]
.LBE490:
.LBE494:
.LBE482:
# peer.c:541:     for (uint32_t i = 0; i < n; i++) {
	.loc 1 541 28 discriminator 1 view .LVU1052
	addq	$312, %r13	#, ivtmp.343
.LBB497:
.LBB495:
.LBB486:
# /usr/include/x86_64-linux-gnu/bits/string_fortified.h:29:   return __builtin___memcpy_chk (__dest, __src, __len,
	.loc 3 29 10 discriminator 1 view .LVU1053
	movaps	%xmm3, 2840(%rsp)	# tmp1167, MEM <uint128_t> [(char * {ref-all})_945]
.LVL346:
	.loc 3 29 10 discriminator 1 view .LVU1054
.LBE486:
.LBE495:
	.loc 1 543 51 is_stmt 1 discriminator 1 view .LVU1055
	.loc 1 544 9 view .LVU1056
.LBB496:
.LBI487:
	.loc 2 84 1 view .LVU1057
.LBB491:
	.loc 2 86 3 view .LVU1058
# /usr/include/x86_64-linux-gnu/bits/stdio2.h:86:   return __printf_chk (__USE_FORTIFY_LEVEL - 1, __fmt, __va_arg_pack ());
	.loc 2 86 10 is_stmt 0 view .LVU1059
	movq	-24(%r13), %r8	# MEM[(long unsigned int *)_181 + 288B], MEM[(long unsigned int *)_181 + 288B]
	pushq	%rax	# MEM[(unsigned int *)_181 + 304B]
	.cfi_def_cfa_offset 9104
	xorl	%eax, %eax	#
	call	__printf_chk@PLT	#
.LVL347:
	.loc 2 86 10 view .LVU1060
.LBE491:
.LBE496:
.LBE497:
	.loc 1 541 34 is_stmt 1 discriminator 3 view .LVU1061
	.loc 1 541 28 discriminator 1 view .LVU1062
	popq	%rax	#
	.cfi_def_cfa_offset 9096
	popq	%rdx	#
	.cfi_def_cfa_offset 9088
	cmpq	%rbp, %r13	# _906, ivtmp.343
	jne	.L180	#,
.LBE481:
# peer.c:549:     free(arr);
	.loc 1 549 5 is_stmt 0 view .LVU1063
	movq	%r15, %rdi	# iftmp.95_205,
	movl	%r14d, %r13d	# interactive, interactive
	call	free@PLT	#
.LVL348:
	.loc 1 549 5 view .LVU1064
.LBE505:
.LBE696:
.LBE798:
	.loc 1 831 12 is_stmt 1 view .LVU1065
	movl	g_quit(%rip), %eax	# g_quit, g_quit.62_31
	testl	%eax, %eax	# g_quit.62_31
	je	.L136	#,
	jmp	.L135	#
.LVL349:
	.p2align 4,,10
	.p2align 3
.L392:
.LBB799:
.LBB697:
.LBB506:
.LBB498:
.LBB475:
# peer.c:145:     list_entry_t *arr = n ? calloc(n, sizeof *arr) : NULL;
	.loc 1 145 29 is_stmt 0 discriminator 1 view .LVU1066
	movl	%eax, %edi	# n.96_203, n.96_203
	movl	$312, %esi	#,
.LBB471:
# peer.c:146:     for (uint32_t i = 0; i < n; i++) {
	.loc 1 146 19 view .LVU1067
	xorl	%r15d, %r15d	# i
.LBE471:
# peer.c:145:     list_entry_t *arr = n ? calloc(n, sizeof *arr) : NULL;
	.loc 1 145 29 discriminator 1 view .LVU1068
	call	calloc@PLT	#
.LVL350:
.LBB472:
# peer.c:146:     for (uint32_t i = 0; i < n; i++) {
	.loc 1 146 19 view .LVU1069
	movl	%r13d, 16(%rsp)	# interactive, %sfp
	movq	152(%rsp), %r13	# %sfp, tmp964
.LBE472:
# peer.c:145:     list_entry_t *arr = n ? calloc(n, sizeof *arr) : NULL;
	.loc 1 145 29 discriminator 1 view .LVU1070
	movq	%rax, %r14	# tmp986, iftmp.95_205
.LVL351:
	.loc 1 146 5 is_stmt 1 view .LVU1071
.LBB473:
	.loc 1 146 10 view .LVU1072
	.loc 1 146 28 discriminator 1 view .LVU1073
	movq	%rax, %r12	# iftmp.95_205, ivtmp.350
	jmp	.L177	#
.LVL352:
.L175:
.LBB468:
# peer.c:149:             buf_get_u16  (&p, end, &nl) < 0 || nl > MAX_FILENAME ||
	.loc 1 149 13 is_stmt 0 view .LVU1074
	movq	%r13, %rdx	# tmp964,
	movq	%rbx, %rsi	# end,
	movq	%rbp, %rdi	# tmp936,
	call	buf_get_u16@PLT	#
.LVL353:
# peer.c:148:         if (buf_get_bytes(&p, end, arr[i].file_hash, HASH_SIZE) < 0 ||
	.loc 1 148 69 discriminator 1 view .LVU1075
	testl	%eax, %eax	# tmp988
	js	.L176	#,
# peer.c:149:             buf_get_u16  (&p, end, &nl) < 0 || nl > MAX_FILENAME ||
	.loc 1 149 51 view .LVU1076
	movzwl	192(%rsp), %eax	# MEM[(short unsigned int *)_736], nl.98_214
# peer.c:149:             buf_get_u16  (&p, end, &nl) < 0 || nl > MAX_FILENAME ||
	.loc 1 149 45 view .LVU1077
	cmpw	$255, %ax	#, nl.98_214
	ja	.L176	#,
# peer.c:150:             buf_get_bytes(&p, end, arr[i].filename, nl) < 0 ||
	.loc 1 150 13 view .LVU1078
	movzwl	%ax, %ecx	# nl.98_214, nl.98_214
# peer.c:150:             buf_get_bytes(&p, end, arr[i].filename, nl) < 0 ||
	.loc 1 150 42 view .LVU1079
	leaq	32(%r12), %rdx	#, tmp607
# peer.c:150:             buf_get_bytes(&p, end, arr[i].filename, nl) < 0 ||
	.loc 1 150 13 view .LVU1080
	movq	%rbx, %rsi	# end,
	movq	%rbp, %rdi	# tmp936,
	call	buf_get_bytes@PLT	#
.LVL354:
# peer.c:149:             buf_get_u16  (&p, end, &nl) < 0 || nl > MAX_FILENAME ||
	.loc 1 149 66 discriminator 1 view .LVU1081
	testl	%eax, %eax	# tmp989
	js	.L176	#,
# peer.c:151:             buf_get_u64  (&p, end, &arr[i].file_size) < 0 ||
	.loc 1 151 13 view .LVU1082
	leaq	288(%r12), %rdx	#, tmp609
	movq	%rbx, %rsi	# end,
	movq	%rbp, %rdi	# tmp936,
	call	buf_get_u64@PLT	#
.LVL355:
# peer.c:150:             buf_get_bytes(&p, end, arr[i].filename, nl) < 0 ||
	.loc 1 150 61 view .LVU1083
	testl	%eax, %eax	# tmp990
	js	.L176	#,
# peer.c:152:             buf_get_u32  (&p, end, &arr[i].chunk_size) < 0 ||
	.loc 1 152 13 view .LVU1084
	leaq	296(%r12), %rdx	#, tmp611
	movq	%rbx, %rsi	# end,
	movq	%rbp, %rdi	# tmp936,
	call	buf_get_u32@PLT	#
.LVL356:
# peer.c:151:             buf_get_u64  (&p, end, &arr[i].file_size) < 0 ||
	.loc 1 151 59 view .LVU1085
	testl	%eax, %eax	# tmp991
	js	.L176	#,
# peer.c:153:             buf_get_u32  (&p, end, &arr[i].chunk_count) < 0 ||
	.loc 1 153 13 view .LVU1086
	leaq	300(%r12), %rdx	#, tmp613
	movq	%rbx, %rsi	# end,
	movq	%rbp, %rdi	# tmp936,
	call	buf_get_u32@PLT	#
.LVL357:
# peer.c:152:             buf_get_u32  (&p, end, &arr[i].chunk_size) < 0 ||
	.loc 1 152 60 view .LVU1087
	testl	%eax, %eax	# tmp992
	js	.L176	#,
# peer.c:154:             buf_get_u32  (&p, end, &arr[i].peer_count) < 0) {
	.loc 1 154 13 view .LVU1088
	leaq	304(%r12), %rdx	#, tmp615
	movq	%rbx, %rsi	# end,
	movq	%rbp, %rdi	# tmp936,
	call	buf_get_u32@PLT	#
.LVL358:
# peer.c:153:             buf_get_u32  (&p, end, &arr[i].chunk_count) < 0 ||
	.loc 1 153 61 view .LVU1089
	testl	%eax, %eax	# tmp993
	js	.L176	#,
	.loc 1 157 9 is_stmt 1 view .LVU1090
# peer.c:157:         arr[i].filename[nl] = '\0';
	.loc 1 157 29 is_stmt 0 view .LVU1091
	movzwl	192(%rsp), %eax	# MEM[(short unsigned int *)_736], MEM[(short unsigned int *)_736]
.LBE468:
# peer.c:146:     for (uint32_t i = 0; i < n; i++) {
	.loc 1 146 34 discriminator 2 view .LVU1092
	addl	$1, %r15d	#, i
.LVL359:
# peer.c:146:     for (uint32_t i = 0; i < n; i++) {
	.loc 1 146 28 discriminator 1 view .LVU1093
	addq	$312, %r12	#, ivtmp.350
.LBB469:
# peer.c:157:         arr[i].filename[nl] = '\0';
	.loc 1 157 29 view .LVU1094
	movb	$0, -280(%r12,%rax)	#, _210->filename[_228]
.LBE469:
	.loc 1 146 34 is_stmt 1 discriminator 2 view .LVU1095
.LVL360:
	.loc 1 146 28 discriminator 1 view .LVU1096
	cmpl	200(%rsp), %r15d	# MEM[(unsigned int *)_735], i
	jnb	.L394	#,
.LVL361:
.L177:
.LBB470:
	.loc 1 147 9 view .LVU1097
	.loc 1 148 9 view .LVU1098
# peer.c:148:         if (buf_get_bytes(&p, end, arr[i].file_hash, HASH_SIZE) < 0 ||
	.loc 1 148 13 is_stmt 0 view .LVU1099
	movl	$32, %ecx	#,
	movq	%r12, %rdx	# ivtmp.350,
	movq	%rbx, %rsi	# end,
	movq	%rbp, %rdi	# tmp936,
	call	buf_get_bytes@PLT	#
.LVL362:
# peer.c:148:         if (buf_get_bytes(&p, end, arr[i].file_hash, HASH_SIZE) < 0 ||
	.loc 1 148 12 discriminator 1 view .LVU1100
	testl	%eax, %eax	# tmp987
	jns	.L175	#,
.L176:
# peer.c:155:             free(payload); free(arr); return -1;
	.loc 1 155 13 view .LVU1101
	movq	208(%rsp), %rdi	# MEM[(uint8_t * *)_924],
	movl	16(%rsp), %r13d	# %sfp, interactive
	.loc 1 155 13 is_stmt 1 view .LVU1102
	call	free@PLT	#
.LVL363:
	.loc 1 155 28 discriminator 1 view .LVU1103
	movq	%r14, %rdi	# iftmp.95_205,
	call	free@PLT	#
.LVL364:
	.loc 1 155 39 discriminator 2 view .LVU1104
.L169:
	.loc 1 155 39 is_stmt 0 discriminator 2 view .LVU1105
.LBE470:
.LBE473:
.LBE475:
.LBE498:
	.loc 1 537 39 is_stmt 1 discriminator 1 view .LVU1106
.LBB499:
.LBI499:
	.loc 2 77 1 view .LVU1107
.LBB500:
	.loc 2 79 3 view .LVU1108
# /usr/include/x86_64-linux-gnu/bits/stdio2.h:79:   return __fprintf_chk (__stream, __USE_FORTIFY_LEVEL - 1, __fmt,
	.loc 2 79 10 is_stmt 0 view .LVU1109
	movq	stderr(%rip), %rcx	# stderr,
	movl	$27, %edx	#,
	movl	$1, %esi	#,
	leaq	.LC16(%rip), %rdi	#, tmp621
	call	fwrite@PLT	#
.LVL365:
	.loc 2 79 10 view .LVU1110
.LBE500:
.LBE499:
	.loc 1 537 71 is_stmt 1 discriminator 1 view .LVU1111
# peer.c:537:     if (tracker_list(&arr, &n) < 0) { LOG_ERR("tracker list failed"); return; }
	.loc 1 537 71 is_stmt 0 view .LVU1112
	jmp	.L159	#
.LVL366:
.L376:
	.loc 1 537 71 view .LVU1113
.LBE506:
.LBE697:
	.loc 1 842 62 is_stmt 1 discriminator 2 view .LVU1114
.LBB698:
.LBB699:
.LBB700:
.LBB701:
# /usr/include/x86_64-linux-gnu/bits/string_fortified.h:59:   return __builtin___memset_chk (__dest, __ch, __len,
	.loc 3 59 10 is_stmt 0 discriminator 1 view .LVU1115
	leaq	656(%rsp), %r12	#, tmp928
	xorl	%eax, %eax	# tmp542
	movl	$39, %ecx	#, tmp543
.LBE701:
.LBE700:
.LBE699:
.LBE698:
# peer.c:842:         else if (strcmp(argv[0], "share") == 0 && argc >= 2) cmd_share(argv[1]);
	.loc 1 842 76 discriminator 2 view .LVU1116
	movq	280(%rsp), %rbx	# argv[1], _13
.LVL367:
.LBB737:
.LBI698:
	.loc 1 501 13 is_stmt 1 view .LVU1117
.LBB735:
	.loc 1 502 5 view .LVU1118
	.loc 1 503 5 view .LVU1119
.LBB704:
.LBI700:
	.loc 3 57 1 view .LVU1120
.LBB702:
	.loc 3 59 3 view .LVU1121
# /usr/include/x86_64-linux-gnu/bits/string_fortified.h:59:   return __builtin___memset_chk (__dest, __ch, __len,
	.loc 3 59 10 is_stmt 0 discriminator 1 view .LVU1122
	movq	%r12, %rdi	# tmp928, tmp541
.LBE702:
.LBE704:
# peer.c:504:     if (hash_file(path, &m) < 0) {
	.loc 1 504 9 view .LVU1123
	movq	%r12, %rsi	# tmp928,
.LBB705:
.LBB703:
# /usr/include/x86_64-linux-gnu/bits/string_fortified.h:59:   return __builtin___memset_chk (__dest, __ch, __len,
	.loc 3 59 10 discriminator 1 view .LVU1124
	rep stosq
.LVL368:
	.loc 3 59 10 discriminator 1 view .LVU1125
.LBE703:
.LBE705:
	.loc 1 504 5 is_stmt 1 view .LVU1126
# peer.c:504:     if (hash_file(path, &m) < 0) {
	.loc 1 504 9 is_stmt 0 view .LVU1127
	movq	%rbx, %rdi	# _13,
	call	hash_file@PLT	#
.LVL369:
# peer.c:504:     if (hash_file(path, &m) < 0) {
	.loc 1 504 8 discriminator 1 view .LVU1128
	testl	%eax, %eax	# tmp975
	js	.L395	#,
	.loc 1 508 5 is_stmt 1 view .LVU1129
# peer.c:508:     shared_file_t *sf = calloc(1, sizeof *sf);
	.loc 1 508 25 is_stmt 0 view .LVU1130
	movl	$2376, %esi	#,
	movl	$1, %edi	#,
	call	calloc@PLT	#
.LVL370:
.LBB706:
.LBB707:
# /usr/include/x86_64-linux-gnu/bits/stdio2.h:54:   return __builtin___snprintf_chk (__s, __n, __USE_FORTIFY_LEVEL - 1,
	.loc 2 54 10 discriminator 1 view .LVU1131
	movq	%rbx, %rcx	# _13,
	leaq	.LC1(%rip), %rbx	#, tmp551
.LVL371:
	.loc 2 54 10 discriminator 1 view .LVU1132
.LBE707:
.LBE706:
.LBB710:
.LBB711:
# /usr/include/x86_64-linux-gnu/bits/string_fortified.h:29:   return __builtin___memcpy_chk (__dest, __src, __len,
	.loc 3 29 10 discriminator 1 view .LVU1133
	movdqa	656(%rsp), %xmm4	# MEM <unsigned char[32]> [(char * {ref-all})_364], tmp1158
.LBE711:
.LBE710:
# peer.c:508:     shared_file_t *sf = calloc(1, sizeof *sf);
	.loc 1 508 25 view .LVU1134
	movq	%rax, %r14	# tmp978, sf
.LVL372:
	.loc 1 509 5 is_stmt 1 view .LVU1135
.LBB715:
.LBI710:
	.loc 3 26 1 view .LVU1136
.LBB712:
	.loc 3 29 3 view .LVU1137
.LBE712:
.LBE715:
.LBB716:
.LBB708:
# /usr/include/x86_64-linux-gnu/bits/stdio2.h:54:   return __builtin___snprintf_chk (__s, __n, __USE_FORTIFY_LEVEL - 1,
	.loc 2 54 10 is_stmt 0 discriminator 1 view .LVU1138
	leaq	32(%rax), %rdi	#, tmp550
	movq	%rbx, %rdx	# tmp551,
	movl	$2048, %esi	#,
.LBE708:
.LBE716:
.LBB717:
.LBB713:
# /usr/include/x86_64-linux-gnu/bits/string_fortified.h:29:   return __builtin___memcpy_chk (__dest, __src, __len,
	.loc 3 29 10 discriminator 1 view .LVU1139
	movdqa	672(%rsp), %xmm5	# MEM <unsigned char[32]> [(char * {ref-all})_364], tmp1159
	movups	%xmm4, (%rax)	# tmp1158, MEM <unsigned char[32]> [(char * {ref-all})sf_137]
.LBE713:
.LBE717:
# peer.c:511:     snprintf(sf->filename,   sizeof sf->filename,   "%s", m.filename);
	.loc 1 511 16 view .LVU1140
	leaq	2080(%r14), %rbp	#, _143
.LBB718:
.LBB714:
# /usr/include/x86_64-linux-gnu/bits/string_fortified.h:29:   return __builtin___memcpy_chk (__dest, __src, __len,
	.loc 3 29 10 discriminator 1 view .LVU1141
	movups	%xmm5, 16(%rax)	# tmp1159, MEM <unsigned char[32]> [(char * {ref-all})sf_137]
.LVL373:
	.loc 3 29 10 discriminator 1 view .LVU1142
.LBE714:
.LBE718:
	.loc 1 510 5 is_stmt 1 view .LVU1143
.LBB719:
.LBI706:
	.loc 2 51 1 view .LVU1144
.LBB709:
	.loc 2 54 3 view .LVU1145
# /usr/include/x86_64-linux-gnu/bits/stdio2.h:54:   return __builtin___snprintf_chk (__s, __n, __USE_FORTIFY_LEVEL - 1,
	.loc 2 54 10 is_stmt 0 discriminator 1 view .LVU1146
	xorl	%eax, %eax	#
.LVL374:
	.loc 2 54 10 discriminator 1 view .LVU1147
	call	snprintf@PLT	#
.LVL375:
	.loc 2 54 10 discriminator 1 view .LVU1148
.LBE709:
.LBE719:
	.loc 1 511 5 is_stmt 1 view .LVU1149
.LBB720:
.LBI720:
	.loc 2 51 1 view .LVU1150
.LBB721:
	.loc 2 54 3 view .LVU1151
# /usr/include/x86_64-linux-gnu/bits/stdio2.h:54:   return __builtin___snprintf_chk (__s, __n, __USE_FORTIFY_LEVEL - 1,
	.loc 2 54 10 is_stmt 0 discriminator 1 view .LVU1152
	movq	%rbx, %rdx	# tmp551,
	movl	$256, %esi	#,
	movq	%rbp, %rdi	# _143,
	leaq	688(%rsp), %rcx	#, tmp553
	xorl	%eax, %eax	#
	call	snprintf@PLT	#
.LVL376:
	.loc 2 54 10 discriminator 1 view .LVU1153
.LBE721:
.LBE720:
	.loc 1 512 5 is_stmt 1 view .LVU1154
# peer.c:512:     sf->file_size    = m.file_size;
	.loc 1 512 22 is_stmt 0 view .LVU1155
	movq	944(%rsp), %rax	# MEM[(struct  *)_364].file_size, MEM[(struct  *)_364].file_size
# peer.c:513:     sf->chunk_size   = m.chunk_size;
	.loc 1 513 25 view .LVU1156
	movq	952(%rsp), %xmm0	# MEM <vector(2) unsigned int> [(unsigned int *)_364], vect__147.333
# peer.c:512:     sf->file_size    = m.file_size;
	.loc 1 512 22 view .LVU1157
	movq	%rax, 2336(%r14)	# MEM[(struct  *)_364].file_size, sf_137->file_size
	.loc 1 513 5 is_stmt 1 view .LVU1158
	pshufd	$0xe5, %xmm0, %xmm6	# vect__147.333, _665
# peer.c:515:     sf->chunk_hashes = m.chunk_hashes; m.chunk_hashes = NULL;
	.loc 1 515 22 is_stmt 0 view .LVU1159
	movq	960(%rsp), %rax	# MEM[(struct  *)_364].chunk_hashes, MEM[(struct  *)_364].chunk_hashes
	movd	%xmm6, %ebx	# _665, _665
	.loc 1 514 5 is_stmt 1 view .LVU1160
# peer.c:515:     sf->chunk_hashes = m.chunk_hashes; m.chunk_hashes = NULL;
	.loc 1 515 55 is_stmt 0 view .LVU1161
	movq	$0, 960(%rsp)	#, MEM[(struct  *)_364].chunk_hashes
# peer.c:515:     sf->chunk_hashes = m.chunk_hashes; m.chunk_hashes = NULL;
	.loc 1 515 22 view .LVU1162
	movq	%rax, 2352(%r14)	# MEM[(struct  *)_364].chunk_hashes, sf_137->chunk_hashes
# peer.c:516:     uint32_t bfl = BITFIELD_BYTES(sf->chunk_count);
	.loc 1 516 20 view .LVU1163
	leal	7(%rbx), %eax	#, _150
# peer.c:513:     sf->chunk_size   = m.chunk_size;
	.loc 1 513 22 view .LVU1164
	movq	%xmm0, 2344(%r14)	# vect__147.333, MEM <vector(2) unsigned int> [(unsigned int *)sf_137 + 2344B]
	.loc 1 515 5 is_stmt 1 view .LVU1165
	.loc 1 515 40 view .LVU1166
	.loc 1 516 5 view .LVU1167
.LVL377:
	.loc 1 517 5 view .LVU1168
# peer.c:517:     sf->bitfield = bfl ? calloc(1, bfl) : NULL;
	.loc 1 517 41 is_stmt 0 view .LVU1169
	cmpl	$7, %eax	#, _150
	ja	.L163	#,
# peer.c:517:     sf->bitfield = bfl ? calloc(1, bfl) : NULL;
	.loc 1 517 18 discriminator 4 view .LVU1170
	xorl	%edi, %edi	#
	movq	%rdi, 2360(%r14)	#, sf_137->bitfield
	.loc 1 518 5 is_stmt 1 view .LVU1171
.LBB722:
	.loc 1 518 10 view .LVU1172
.LVL378:
	.loc 1 518 28 discriminator 1 view .LVU1173
	testl	%ebx, %ebx	# _665
	je	.L164	#,
	.loc 1 518 52 discriminator 3 view .LVU1174
	orb	$1, 0	#, MEM[(uint8_t *)0B]
.LVL379:
	.loc 1 518 48 discriminator 3 view .LVU1175
	.loc 1 518 28 discriminator 1 view .LVU1176
.L165:
# peer.c:518:     for (uint32_t i = 0; i < sf->chunk_count; i++) BIT_SET(sf->bitfield, i);
	.loc 1 518 48 is_stmt 0 discriminator 3 view .LVU1177
	movl	$1, %edx	#, i
# peer.c:518:     for (uint32_t i = 0; i < sf->chunk_count; i++) BIT_SET(sf->bitfield, i);
	.loc 1 518 52 discriminator 3 view .LVU1178
	movl	$1, %esi	#, tmp571
.LVL380:
.L166:
	.loc 1 518 52 is_stmt 1 discriminator 3 view .LVU1179
	movl	%edx, %eax	# i, tmp566
	movl	%edx, %ecx	# i, tmp569
	movl	%esi, %edi	# tmp571, tmp570
# peer.c:518:     for (uint32_t i = 0; i < sf->chunk_count; i++) BIT_SET(sf->bitfield, i);
	.loc 1 518 48 is_stmt 0 discriminator 3 view .LVU1180
	addl	$1, %edx	#, i
.LVL381:
# peer.c:518:     for (uint32_t i = 0; i < sf->chunk_count; i++) BIT_SET(sf->bitfield, i);
	.loc 1 518 52 discriminator 3 view .LVU1181
	shrl	$3, %eax	#,
.LVL382:
	.loc 1 518 52 discriminator 3 view .LVU1182
	andl	$7, %ecx	#, tmp569
.LVL383:
	.loc 1 518 52 discriminator 3 view .LVU1183
	addq	2360(%r14), %rax	# sf_137->bitfield, _159
	sall	%cl, %edi	# tmp569, tmp570
	orb	%dil, (%rax)	# tmp570, *_159
	.loc 1 518 48 is_stmt 1 discriminator 3 view .LVU1184
.LVL384:
	.loc 1 518 28 discriminator 1 view .LVU1185
	cmpl	2348(%r14), %edx	# sf_137->chunk_count, i
	jb	.L166	#,
.LVL385:
.L164:
	.loc 1 518 28 is_stmt 0 discriminator 1 view .LVU1186
.LBE722:
	.loc 1 520 5 is_stmt 1 view .LVU1187
	leaq	shared_lock(%rip), %rbx	#, tmp572
	movq	%rbx, %rdi	# tmp572,
	call	pthread_mutex_lock@PLT	#
.LVL386:
	.loc 1 521 5 view .LVU1188
# peer.c:521:     sf->next = shared_files; shared_files = sf;
	.loc 1 521 14 is_stmt 0 view .LVU1189
	movq	shared_files(%rip), %rax	# shared_files, shared_files
# peer.c:522:     pthread_mutex_unlock(&shared_lock);
	.loc 1 522 5 view .LVU1190
	movq	%rbx, %rdi	# tmp572,
# peer.c:521:     sf->next = shared_files; shared_files = sf;
	.loc 1 521 43 view .LVU1191
	movq	%r14, shared_files(%rip)	# sf, shared_files
# peer.c:521:     sf->next = shared_files; shared_files = sf;
	.loc 1 521 14 view .LVU1192
	movq	%rax, 2368(%r14)	# shared_files, sf_137->next
	.loc 1 521 30 is_stmt 1 view .LVU1193
	.loc 1 522 5 view .LVU1194
	call	pthread_mutex_unlock@PLT	#
.LVL387:
	.loc 1 524 5 view .LVU1195
# peer.c:524:     if (tracker_announce(sf) < 0) {
	.loc 1 524 9 is_stmt 0 view .LVU1196
	movq	%r14, %rdi	# sf,
	call	tracker_announce	#
.LVL388:
# peer.c:524:     if (tracker_announce(sf) < 0) {
	.loc 1 524 8 discriminator 1 view .LVU1197
	testl	%eax, %eax	# tmp980
	js	.L396	#,
	.loc 1 528 5 is_stmt 1 view .LVU1198
	.loc 1 528 34 view .LVU1199
	leaq	2864(%rsp), %rbx	#, tmp925
	movq	%r14, %rdi	# sf,
	movq	%rbx, %rsi	# tmp925,
	call	hash_to_hex@PLT	#
.LVL389:
	.loc 1 529 5 view .LVU1200
.LBB723:
.LBI723:
	.loc 2 84 1 view .LVU1201
.LBB724:
	.loc 2 86 3 view .LVU1202
# /usr/include/x86_64-linux-gnu/bits/stdio2.h:86:   return __printf_chk (__USE_FORTIFY_LEVEL - 1, __fmt, __va_arg_pack ());
	.loc 2 86 10 is_stmt 0 view .LVU1203
	movq	%rbp, %rdx	# _143,
	movl	$2, %edi	#,
	xorl	%eax, %eax	#
	movq	2336(%r14), %rcx	# sf_137->file_size, sf_137->file_size
	movl	2348(%r14), %r8d	# sf_137->chunk_count,
	leaq	.LC13(%rip), %rsi	#, tmp580
	call	__printf_chk@PLT	#
.LVL390:
	.loc 2 86 10 view .LVU1204
.LBE724:
.LBE723:
	.loc 1 531 5 is_stmt 1 view .LVU1205
.LBB725:
.LBI725:
	.loc 2 84 1 view .LVU1206
.LBB726:
	.loc 2 86 3 view .LVU1207
# /usr/include/x86_64-linux-gnu/bits/stdio2.h:86:   return __printf_chk (__USE_FORTIFY_LEVEL - 1, __fmt, __va_arg_pack ());
	.loc 2 86 10 is_stmt 0 view .LVU1208
	movq	%rbx, %rdx	# tmp925,
	movl	$2, %edi	#,
	xorl	%eax, %eax	#
	leaq	.LC14(%rip), %rsi	#, tmp582
	call	__printf_chk@PLT	#
.LVL391:
	.loc 2 86 10 view .LVU1209
.LBE726:
.LBE725:
	.loc 1 532 5 is_stmt 1 view .LVU1210
	movq	%r12, %rdi	# tmp928,
	call	file_meta_free@PLT	#
.LVL392:
	jmp	.L159	#
.LVL393:
.L266:
	.loc 1 532 5 is_stmt 0 view .LVU1211
.LBE735:
.LBE737:
.LBB738:
.LBB514:
# peer.c:809:     while (*s && isspace((unsigned char)*s)) s++;
	.loc 1 809 15 discriminator 1 view .LVU1212
	movq	8(%rsp), %rbp	# %sfp, s
	jmp	.L140	#
.LVL394:
.L379:
	.loc 1 809 15 discriminator 1 view .LVU1213
.LBE514:
.LBE738:
	.loc 1 851 48 is_stmt 1 discriminator 1 view .LVU1214
.LBB739:
.LBI739:
	.loc 1 742 13 view .LVU1215
.LBB740:
	.loc 1 743 5 view .LVU1216
	leaq	shared_lock(%rip), %r12	#, tmp930
	leaq	.LC48(%rip), %rbp	#, tmp926
	movq	%r12, %rdi	# tmp930,
	call	pthread_mutex_lock@PLT	#
.LVL395:
	.loc 1 744 5 view .LVU1217
# peer.c:744:     if (!shared_files) {
	.loc 1 744 9 is_stmt 0 view .LVU1218
	movq	shared_files(%rip), %r14	# shared_files, f
	leaq	2864(%rsp), %rax	#, tmp925
	movq	%rax, 16(%rsp)	# tmp925, %sfp
	movq	16(%rsp), %rbx	# %sfp, tmp925
.LVL396:
# peer.c:744:     if (!shared_files) {
	.loc 1 744 8 view .LVU1219
	testq	%r14, %r14	# f
	je	.L397	#,
.L252:
.LVL397:
.LBB741:
.LBB742:
	.loc 1 749 9 is_stmt 1 view .LVU1220
	.loc 1 749 38 view .LVU1221
	movq	%r14, %rdi	# f,
	movq	%rbx, %rsi	# tmp925,
	call	hash_to_hex@PLT	#
.LVL398:
	.loc 1 750 9 view .LVU1222
	.loc 1 751 9 view .LVU1223
.LBB743:
	.loc 1 751 14 view .LVU1224
	.loc 1 751 32 discriminator 1 view .LVU1225
# peer.c:751:         for (uint32_t i = 0; i < f->chunk_count; i++)
	.loc 1 751 35 is_stmt 0 discriminator 1 view .LVU1226
	movl	2348(%r14), %edi	# f_810->chunk_count, _174
# peer.c:751:         for (uint32_t i = 0; i < f->chunk_count; i++)
	.loc 1 751 32 discriminator 1 view .LVU1227
	testl	%edi, %edi	# _174
	je	.L274	#,
# peer.c:752:             if (BIT_TEST(f->bitfield, i)) have++;
	.loc 1 752 17 view .LVU1228
	movq	2360(%r14), %rsi	# f_810->bitfield, _522
.LBE743:
# peer.c:750:         uint32_t have = 0;
	.loc 1 750 18 view .LVU1229
	xorl	%r9d, %r9d	# have
.LBB744:
# peer.c:751:         for (uint32_t i = 0; i < f->chunk_count; i++)
	.loc 1 751 23 view .LVU1230
	xorl	%edx, %edx	# i
.LVL399:
	.p2align 4,,10
	.p2align 3
.L255:
	.loc 1 752 13 is_stmt 1 view .LVU1231
# peer.c:752:             if (BIT_TEST(f->bitfield, i)) have++;
	.loc 1 752 17 is_stmt 0 view .LVU1232
	movl	%edx, %eax	# i, tmp888
	movl	%edx, %ecx	# i, tmp891
	shrl	$3, %eax	#,
	andl	$7, %ecx	#, tmp891
	movzbl	(%rsi,%rax), %eax	# *_129, *_129
	sarl	%cl, %eax	# tmp891, tmp892
# peer.c:752:             if (BIT_TEST(f->bitfield, i)) have++;
	.loc 1 752 16 view .LVU1233
	andl	$1, %eax	#, tmp893
# peer.c:752:             if (BIT_TEST(f->bitfield, i)) have++;
	.loc 1 752 47 discriminator 1 view .LVU1234
	cmpl	$1, %eax	#, tmp893
	sbbl	$-1, %r9d	#, have
.LVL400:
	.loc 1 751 51 is_stmt 1 discriminator 2 view .LVU1235
	addl	$1, %edx	#, i
.LVL401:
	.loc 1 751 32 discriminator 1 view .LVU1236
	cmpl	%edx, %edi	# i, _174
	jne	.L255	#,
.LVL402:
.L253:
	.loc 1 751 32 is_stmt 0 discriminator 1 view .LVU1237
.LBE744:
	.loc 1 753 9 is_stmt 1 view .LVU1238
.LBB745:
.LBI745:
	.loc 2 84 1 view .LVU1239
.LBB746:
	.loc 2 86 3 view .LVU1240
# /usr/include/x86_64-linux-gnu/bits/stdio2.h:86:   return __printf_chk (__USE_FORTIFY_LEVEL - 1, __fmt, __va_arg_pack ());
	.loc 2 86 10 is_stmt 0 view .LVU1241
	leaq	32(%r14), %rax	#, tmp897
	movq	2336(%r14), %r8	# f_810->file_size, f_810->file_size
	movq	%rbx, %rdx	# tmp925,
	movq	%rbp, %rsi	# tmp926,
	pushq	%rax	# tmp897
	.cfi_def_cfa_offset 9096
	leaq	2080(%r14), %rcx	#, tmp895
	xorl	%eax, %eax	#
	pushq	%rdi	# _174
	.cfi_def_cfa_offset 9104
	movl	$2, %edi	#,
	call	__printf_chk@PLT	#
.LVL403:
	.loc 2 86 10 view .LVU1242
.LBE746:
.LBE745:
.LBE742:
	.loc 1 748 48 is_stmt 1 discriminator 2 view .LVU1243
	movq	2368(%r14), %r14	# f_810->next, f
.LVL404:
	.loc 1 748 43 discriminator 1 view .LVU1244
	popq	%rdx	#
	.cfi_def_cfa_offset 9096
	popq	%rcx	#
	.cfi_def_cfa_offset 9088
	testq	%r14, %r14	# f
	jne	.L252	#,
.LBE741:
	.loc 1 757 5 view .LVU1245
	movq	%r12, %rdi	# tmp930,
	call	pthread_mutex_unlock@PLT	#
.LVL405:
	jmp	.L159	#
.LVL406:
.L378:
	.loc 1 757 5 is_stmt 0 view .LVU1246
.LBE740:
.LBE739:
	.loc 1 844 62 is_stmt 1 discriminator 2 view .LVU1247
.LBB753:
.LBI753:
	.loc 1 552 13 view .LVU1248
.LBB754:
	.loc 1 553 5 view .LVU1249
	.loc 1 554 5 view .LVU1250
# peer.c:554:     if (hex_to_hash(hex, fhash) < 0) { printf("invalid hash\n"); return; }
	.loc 1 554 9 is_stmt 0 view .LVU1251
	leaq	2832(%rsp), %r12	#, tmp924
	movq	280(%rsp), %rdi	# argv[1],
	movq	%r12, %rsi	# tmp924,
	call	hex_to_hash@PLT	#
.LVL407:
# peer.c:554:     if (hex_to_hash(hex, fhash) < 0) { printf("invalid hash\n"); return; }
	.loc 1 554 8 discriminator 1 view .LVU1252
	testl	%eax, %eax	# tmp995
	js	.L371	#,
	.loc 1 555 5 is_stmt 1 view .LVU1253
# peer.c:555:     peer_addr_t *pa = NULL; uint32_t n = 0;
	.loc 1 555 18 is_stmt 0 view .LVU1254
	xorl	%eax, %eax	#
# peer.c:556:     if (tracker_get_peers(fhash, &pa, &n) < 0) { LOG_ERR("get peers failed"); return; }
	.loc 1 556 9 view .LVU1255
	leaq	208(%rsp), %rdx	#, tmp642
	leaq	224(%rsp), %rsi	#, tmp643
	movq	%r12, %rdi	# tmp924,
# peer.c:555:     peer_addr_t *pa = NULL; uint32_t n = 0;
	.loc 1 555 18 view .LVU1256
	movq	%rax, 224(%rsp)	#, MEM[(struct peer_addr_t * *)_900]
	.loc 1 555 29 is_stmt 1 view .LVU1257
# peer.c:555:     peer_addr_t *pa = NULL; uint32_t n = 0;
	.loc 1 555 38 is_stmt 0 view .LVU1258
	xorl	%eax, %eax	#
	movl	%eax, 208(%rsp)	#, MEM[(unsigned int *)_924]
	.loc 1 556 5 is_stmt 1 view .LVU1259
# peer.c:556:     if (tracker_get_peers(fhash, &pa, &n) < 0) { LOG_ERR("get peers failed"); return; }
	.loc 1 556 9 is_stmt 0 view .LVU1260
	call	tracker_get_peers.constprop.0	#
.LVL408:
# peer.c:556:     if (tracker_get_peers(fhash, &pa, &n) < 0) { LOG_ERR("get peers failed"); return; }
	.loc 1 556 8 discriminator 1 view .LVU1261
	testl	%eax, %eax	# tmp996
	js	.L398	#,
	.loc 1 557 5 is_stmt 1 view .LVU1262
# peer.c:557:     if (n == 0) { printf("(no peers)\n"); free(pa); return; }
	.loc 1 557 11 is_stmt 0 view .LVU1263
	movl	208(%rsp), %eax	# MEM[(unsigned int *)_924], n.106_237
# peer.c:557:     if (n == 0) { printf("(no peers)\n"); free(pa); return; }
	.loc 1 557 43 discriminator 1 view .LVU1264
	movq	224(%rsp), %r15	# MEM[(struct peer_addr_t * *)_900], pretmp_1010
# peer.c:557:     if (n == 0) { printf("(no peers)\n"); free(pa); return; }
	.loc 1 557 8 view .LVU1265
	testl	%eax, %eax	# n.106_237
	je	.L186	#,
	movl	%eax, %r12d	# n.106_237, n.106_237
	movq	%r15, 24(%rsp)	# pretmp_1010, %sfp
	movq	%r15, %r14	# pretmp_1010, ivtmp.371
	leaq	.LC30(%rip), %rbx	#, tmp944
.LVL409:
	.loc 1 557 8 view .LVU1266
	imulq	$24, %r12, %r12	#, n.106_237, tmp648
	leaq	2864(%rsp), %rax	#, tmp925
	movl	%r13d, 16(%rsp)	# interactive, %sfp
.LBB755:
.LBB756:
.LBB757:
.LBB758:
.LBB759:
# /usr/include/x86_64-linux-gnu/bits/stdio2.h:54:   return __builtin___snprintf_chk (__s, __n, __USE_FORTIFY_LEVEL - 1,
	.loc 2 54 10 discriminator 1 view .LVU1267
	leaq	.LC29(%rip), %rbp	#, tmp955
	addq	%r15, %r12	# pretmp_1010, _531
	movq	%r12, %r13	# _531, _531
	movq	%rax, %r12	# tmp925, tmp925
.L187:
.LVL410:
	.loc 2 54 10 discriminator 1 view .LVU1268
.LBE759:
.LBE758:
	.loc 1 560 27 is_stmt 1 discriminator 1 view .LVU1269
# peer.c:561:             snprintf(pid + j * 2, 3, "%02x", pa[i].peer_id[j]);
	.loc 1 561 48 is_stmt 0 view .LVU1270
	xorl	%r15d, %r15d	# ivtmp.358
.LVL411:
	.p2align 4,,10
	.p2align 3
.L188:
	.loc 1 561 13 is_stmt 1 view .LVU1271
	movq	%r15, %rax	# ivtmp.358, tmp651
.LBB764:
.LBB760:
# /usr/include/x86_64-linux-gnu/bits/stdio2.h:54:   return __builtin___snprintf_chk (__s, __n, __USE_FORTIFY_LEVEL - 1,
	.loc 2 54 10 is_stmt 0 discriminator 1 view .LVU1272
	movzbl	(%r14,%r15), %r9d	# MEM[(unsigned char *)_1006 + ivtmp.358_872 * 1],
.LBE760:
.LBE764:
# peer.c:561:             snprintf(pid + j * 2, 3, "%02x", pa[i].peer_id[j]);
	.loc 1 561 13 view .LVU1273
	movq	%r12, %rdi	# tmp925, tmp656
.LBB765:
.LBB761:
# /usr/include/x86_64-linux-gnu/bits/stdio2.h:54:   return __builtin___snprintf_chk (__s, __n, __USE_FORTIFY_LEVEL - 1,
	.loc 2 54 10 discriminator 1 view .LVU1274
	movq	%rbp, %r8	# tmp955,
	negq	%rax	# tmp651
	movl	$2, %edx	#,
	movl	$3, %esi	#,
.LBE761:
.LBE765:
# peer.c:560:         for (int j = 0; j < PEER_ID_SIZE; j++)
	.loc 1 560 27 discriminator 1 view .LVU1275
	addq	$1, %r15	#, ivtmp.358
.LVL412:
	.loc 1 560 27 discriminator 1 view .LVU1276
	addq	%rax, %rax	# tmp652
.LVL413:
.LBB766:
.LBI758:
	.loc 2 51 1 is_stmt 1 view .LVU1277
.LBB762:
	.loc 2 54 3 view .LVU1278
# /usr/include/x86_64-linux-gnu/bits/stdio2.h:54:   return __builtin___snprintf_chk (__s, __n, __USE_FORTIFY_LEVEL - 1,
	.loc 2 54 10 is_stmt 0 discriminator 1 view .LVU1279
	leaq	33(%rax), %rcx	#, tmp654
.LBE762:
.LBE766:
# peer.c:561:             snprintf(pid + j * 2, 3, "%02x", pa[i].peer_id[j]);
	.loc 1 561 13 view .LVU1280
	subq	%rax, %rdi	# tmp652, tmp656
.LBB767:
.LBB763:
# /usr/include/x86_64-linux-gnu/bits/stdio2.h:54:   return __builtin___snprintf_chk (__s, __n, __USE_FORTIFY_LEVEL - 1,
	.loc 2 54 10 discriminator 1 view .LVU1281
	xorl	%eax, %eax	#
.LVL414:
	.loc 2 54 10 discriminator 1 view .LVU1282
	call	__snprintf_chk@PLT	#
.LVL415:
	.loc 2 54 10 discriminator 1 view .LVU1283
.LBE763:
.LBE767:
	.loc 1 560 44 is_stmt 1 discriminator 3 view .LVU1284
	.loc 1 560 27 discriminator 1 view .LVU1285
	cmpq	$16, %r15	#, ivtmp.358
	jne	.L188	#,
.LBE757:
	.loc 1 562 9 view .LVU1286
	movl	16(%r14), %edi	# MEM[(unsigned int *)_1006 + 16B], MEM[(unsigned int *)_1006 + 16B]
	movzwl	20(%r14), %r15d	# MEM[(short unsigned int *)_1006 + 20B], _257
.LBE756:
# peer.c:558:     for (uint32_t i = 0; i < n; i++) {
	.loc 1 558 28 is_stmt 0 discriminator 1 view .LVU1287
	addq	$24, %r14	#, ivtmp.371
.LBB772:
# peer.c:562:         printf("  %s  %s:%u\n", pid, ip_to_str(pa[i].ip), pa[i].port);
	.loc 1 562 9 view .LVU1288
	call	ip_to_str@PLT	#
.LVL416:
.LBB768:
.LBB769:
# /usr/include/x86_64-linux-gnu/bits/stdio2.h:86:   return __printf_chk (__USE_FORTIFY_LEVEL - 1, __fmt, __va_arg_pack ());
	.loc 2 86 10 view .LVU1289
	movl	%r15d, %r8d	# _257,
	movq	%r12, %rdx	# tmp925,
	movq	%rbx, %rsi	# tmp944,
.LBE769:
.LBE768:
# peer.c:562:         printf("  %s  %s:%u\n", pid, ip_to_str(pa[i].ip), pa[i].port);
	.loc 1 562 9 view .LVU1290
	movq	%rax, %rcx	# tmp997, _259
.LVL417:
.LBB771:
.LBI768:
	.loc 2 84 1 is_stmt 1 view .LVU1291
.LBB770:
	.loc 2 86 3 view .LVU1292
# /usr/include/x86_64-linux-gnu/bits/stdio2.h:86:   return __printf_chk (__USE_FORTIFY_LEVEL - 1, __fmt, __va_arg_pack ());
	.loc 2 86 10 is_stmt 0 view .LVU1293
	movl	$2, %edi	#,
	xorl	%eax, %eax	#
	call	__printf_chk@PLT	#
.LVL418:
	.loc 2 86 10 view .LVU1294
.LBE770:
.LBE771:
.LBE772:
	.loc 1 558 34 is_stmt 1 discriminator 2 view .LVU1295
	.loc 1 558 28 discriminator 1 view .LVU1296
	cmpq	%r14, %r13	# ivtmp.371, _531
	jne	.L187	#,
.LBE755:
# peer.c:564:     free(pa);
	.loc 1 564 5 is_stmt 0 view .LVU1297
	movq	24(%rsp), %rdi	# %sfp,
	movl	16(%rsp), %r13d	# %sfp, interactive
	call	free@PLT	#
.LVL419:
	jmp	.L159	#
.LVL420:
.L380:
	.loc 1 564 5 view .LVU1298
.LBE754:
.LBE753:
# peer.c:852:         else if (strcmp(argv[0], "id")   == 0)
	.loc 1 852 17 discriminator 1 view .LVU1299
	cmpb	$0, 2(%rbp)	#, MEM <char[1:3]> [(void *)_9]
	jne	.L257	#,
	.loc 1 853 13 is_stmt 1 view .LVU1300
.LVL421:
.LBB778:
.LBI778:
	.loc 2 84 1 view .LVU1301
.LBB779:
	.loc 2 86 3 view .LVU1302
.LBE779:
.LBE778:
# peer.c:853:             printf("peer_id=%s listen_port=%u tracker=%s:%u\n",
	.loc 1 853 13 is_stmt 0 view .LVU1303
	movzwl	g_listen_port(%rip), %ecx	# g_listen_port, g_listen_port
.LBB781:
.LBB780:
# /usr/include/x86_64-linux-gnu/bits/stdio2.h:86:   return __printf_chk (__USE_FORTIFY_LEVEL - 1, __fmt, __va_arg_pack ());
	.loc 2 86 10 view .LVU1304
	leaq	g_tracker_host(%rip), %r8	#,
	xorl	%eax, %eax	#
	movzwl	g_tracker_port(%rip), %r9d	# g_tracker_port,
	leaq	g_peer_id_str(%rip), %rdx	#, tmp905
	leaq	.LC49(%rip), %rsi	#, tmp906
	movl	$2, %edi	#,
	call	__printf_chk@PLT	#
.LVL422:
	.loc 2 86 10 view .LVU1305
	jmp	.L159	#
.L371:
.LBE780:
.LBE781:
.LBB782:
.LBB688:
.LBB682:
	.loc 1 620 40 is_stmt 1 discriminator 1 view .LVU1306
.LVL423:
.LBB595:
.LBI595:
	.loc 2 84 1 view .LVU1307
.LBB596:
	.loc 2 86 3 view .LVU1308
# /usr/include/x86_64-linux-gnu/bits/stdio2.h:86:   return __printf_chk (__USE_FORTIFY_LEVEL - 1, __fmt, __va_arg_pack ());
	.loc 2 86 10 is_stmt 0 view .LVU1309
	leaq	.LC26(%rip), %rdi	#, tmp673
	call	puts@PLT	#
.LVL424:
	.loc 2 86 10 view .LVU1310
.LBE596:
.LBE595:
	.loc 1 620 66 is_stmt 1 discriminator 1 view .LVU1311
# peer.c:620:     if (hex_to_hash(hex, fhash) < 0) { printf("invalid hash\n"); return; }
	.loc 1 620 66 is_stmt 0 view .LVU1312
	jmp	.L159	#
.LVL425:
.L274:
	.loc 1 620 66 view .LVU1313
.LBE682:
.LBE688:
.LBE782:
.LBB783:
.LBB751:
.LBB748:
.LBB747:
# peer.c:750:         uint32_t have = 0;
	.loc 1 750 18 view .LVU1314
	xorl	%r9d, %r9d	# have
	jmp	.L253	#
.LVL426:
.L393:
	.loc 1 750 18 view .LVU1315
.LBE747:
.LBE748:
.LBE751:
.LBE783:
.LBB784:
.LBB507:
	.loc 1 538 19 is_stmt 1 discriminator 1 view .LVU1316
.LBB501:
.LBI501:
	.loc 2 84 1 view .LVU1317
.LBB502:
	.loc 2 86 3 view .LVU1318
# /usr/include/x86_64-linux-gnu/bits/stdio2.h:86:   return __printf_chk (__USE_FORTIFY_LEVEL - 1, __fmt, __va_arg_pack ());
	.loc 2 86 10 is_stmt 0 view .LVU1319
	leaq	.LC17(%rip), %rdi	#, tmp622
	call	puts@PLT	#
.LVL427:
	.loc 2 86 10 view .LVU1320
.LBE502:
.LBE501:
	.loc 1 538 53 is_stmt 1 discriminator 1 view .LVU1321
	movq	%r14, %rdi	# iftmp.95_205,
	call	free@PLT	#
.LVL428:
	.loc 1 538 64 discriminator 2 view .LVU1322
# peer.c:538:     if (n == 0) { printf("(no files announced)\n"); free(arr); return; }
	.loc 1 538 64 is_stmt 0 view .LVU1323
	jmp	.L159	#
.LVL429:
.L163:
	.loc 1 538 64 view .LVU1324
.LBE507:
.LBE784:
.LBB785:
.LBB736:
# peer.c:516:     uint32_t bfl = BITFIELD_BYTES(sf->chunk_count);
	.loc 1 516 14 view .LVU1325
	shrl	$3, %eax	#, bfl
.LVL430:
# peer.c:517:     sf->bitfield = bfl ? calloc(1, bfl) : NULL;
	.loc 1 517 26 discriminator 1 view .LVU1326
	movl	$1, %edi	#,
	movl	%eax, %esi	# bfl, bfl
	call	calloc@PLT	#
.LVL431:
.LBB727:
# peer.c:518:     for (uint32_t i = 0; i < sf->chunk_count; i++) BIT_SET(sf->bitfield, i);
	.loc 1 518 28 discriminator 1 view .LVU1327
	subl	$1, %ebx	#, _665
.LVL432:
	.loc 1 518 28 discriminator 1 view .LVU1328
.LBE727:
# peer.c:517:     sf->bitfield = bfl ? calloc(1, bfl) : NULL;
	.loc 1 517 18 discriminator 4 view .LVU1329
	movq	%rax, 2360(%r14)	# tmp565, sf_137->bitfield
	.loc 1 518 5 is_stmt 1 view .LVU1330
.LBB728:
	.loc 1 518 10 view .LVU1331
.LVL433:
	.loc 1 518 28 discriminator 1 view .LVU1332
	.loc 1 518 52 discriminator 3 view .LVU1333
	movb	$1, (%rax)	#, *iftmp.66_922
	.loc 1 518 48 discriminator 3 view .LVU1334
.LVL434:
	.loc 1 518 28 discriminator 1 view .LVU1335
	jne	.L165	#,
	jmp	.L164	#
.LVL435:
.L395:
	.loc 1 518 28 is_stmt 0 discriminator 1 view .LVU1336
.LBE728:
	.loc 1 505 9 is_stmt 1 view .LVU1337
	call	__errno_location@PLT	#
.LVL436:
# peer.c:505:         LOG_ERR("cannot hash '%s': %s", path, strerror(errno));
	.loc 1 505 9 is_stmt 0 discriminator 1 view .LVU1338
	movl	(%rax), %edi	# *_133,
	call	strerror@PLT	#
.LVL437:
.LBB729:
.LBI729:
	.loc 2 77 1 is_stmt 1 view .LVU1339
.LBB730:
	.loc 2 79 3 view .LVU1340
# /usr/include/x86_64-linux-gnu/bits/stdio2.h:79:   return __fprintf_chk (__stream, __USE_FORTIFY_LEVEL - 1, __fmt,
	.loc 2 79 10 is_stmt 0 view .LVU1341
	movq	stderr(%rip), %rdi	# stderr,
	movq	%rbx, %rcx	# _13,
	leaq	.LC11(%rip), %rdx	#, tmp546
.LBE730:
.LBE729:
# peer.c:505:         LOG_ERR("cannot hash '%s': %s", path, strerror(errno));
	.loc 1 505 9 discriminator 1 view .LVU1342
	movq	%rax, %r8	#, tmp977
.LBB732:
.LBB731:
# /usr/include/x86_64-linux-gnu/bits/stdio2.h:79:   return __fprintf_chk (__stream, __USE_FORTIFY_LEVEL - 1, __fmt,
	.loc 2 79 10 view .LVU1343
	movl	$2, %esi	#,
	xorl	%eax, %eax	#
	call	__fprintf_chk@PLT	#
.LVL438:
	.loc 2 79 10 view .LVU1344
.LBE731:
.LBE732:
	.loc 1 506 9 is_stmt 1 view .LVU1345
	jmp	.L159	#
.LVL439:
.L396:
	.loc 1 525 9 view .LVU1346
.LBB733:
.LBI733:
	.loc 2 77 1 view .LVU1347
.LBB734:
	.loc 2 79 3 view .LVU1348
# /usr/include/x86_64-linux-gnu/bits/stdio2.h:79:   return __fprintf_chk (__stream, __USE_FORTIFY_LEVEL - 1, __fmt,
	.loc 2 79 10 is_stmt 0 view .LVU1349
	movq	stderr(%rip), %rcx	# stderr,
	movl	$31, %edx	#,
	movl	$1, %esi	#,
	leaq	.LC12(%rip), %rdi	#, tmp576
	call	fwrite@PLT	#
.LVL440:
	.loc 2 79 10 view .LVU1350
.LBE734:
.LBE733:
	.loc 1 526 9 is_stmt 1 view .LVU1351
	jmp	.L159	#
.LVL441:
.L387:
	.loc 1 526 9 is_stmt 0 view .LVU1352
	movl	144(%rsp), %r8d	# %sfp, i
.LVL442:
.L213:
	.loc 1 526 9 view .LVU1353
.LBE736:
.LBE785:
.LBB786:
.LBB689:
.LBB683:
.LBB597:
.LBB565:
.LBB561:
.LBB558:
# peer.c:584:         hash_bytes(buf, got, h);
	.loc 1 584 9 view .LVU1354
	leaq	2832(%rsp), %r12	#, tmp924
	movq	%r15, %rdi	# buf,
	movl	%r8d, 144(%rsp)	# i, %sfp
.LVL443:
	.loc 1 583 9 is_stmt 1 view .LVU1355
	.loc 1 584 9 view .LVU1356
	movq	%r12, %rdx	# tmp924,
	call	hash_bytes@PLT	#
.LVL444:
	.loc 1 585 9 view .LVU1357
# peer.c:585:         if (memcmp(h, info->chunk_hashes + (size_t)i * HASH_SIZE, HASH_SIZE) == 0) {
	.loc 1 585 54 is_stmt 0 view .LVU1358
	movq	104(%rsp), %rsi	# %sfp, _424
# peer.c:585:         if (memcmp(h, info->chunk_hashes + (size_t)i * HASH_SIZE, HASH_SIZE) == 0) {
	.loc 1 585 13 view .LVU1359
	movl	$32, %edx	#,
	movq	%r12, %rdi	# tmp924,
# peer.c:585:         if (memcmp(h, info->chunk_hashes + (size_t)i * HASH_SIZE, HASH_SIZE) == 0) {
	.loc 1 585 54 view .LVU1360
	salq	$5, %rsi	#, _424
# peer.c:585:         if (memcmp(h, info->chunk_hashes + (size_t)i * HASH_SIZE, HASH_SIZE) == 0) {
	.loc 1 585 13 view .LVU1361
	addq	640(%rsp), %rsi	# info.chunk_hashes, tmp753
	call	memcmp@PLT	#
.LVL445:
# peer.c:585:         if (memcmp(h, info->chunk_hashes + (size_t)i * HASH_SIZE, HASH_SIZE) == 0) {
	.loc 1 585 12 discriminator 1 view .LVU1362
	movl	144(%rsp), %r8d	# %sfp, i
	testl	%eax, %eax	# tmp1023
	jne	.L216	#,
	.loc 1 586 13 is_stmt 1 view .LVU1363
	movq	40(%rsp), %rsi	# %sfp, bitfield
	movl	%r8d, %eax	# i, tmp758
	movl	%r8d, %ecx	# i, tmp760
	movl	$1, %edx	#, tmp762
	shrl	$3, %eax	#,
	andl	$7, %ecx	#, tmp760
# peer.c:587:             verified++;
	.loc 1 587 21 is_stmt 0 view .LVU1364
	addl	$1, 24(%rsp)	#, %sfp
.LVL446:
# peer.c:586:             BIT_SET(bitfield, i);
	.loc 1 586 13 view .LVU1365
	sall	%cl, %edx	# tmp760, tmp761
# peer.c:588:             (*remaining)--;
	.loc 1 588 25 view .LVU1366
	subl	$1, 64(%rsp)	#, %sfp
.LVL447:
# peer.c:586:             BIT_SET(bitfield, i);
	.loc 1 586 13 view .LVU1367
	orb	%dl, (%rsi,%rax)	# tmp761, *_457
	.loc 1 587 13 is_stmt 1 view .LVU1368
.LVL448:
	.loc 1 588 13 view .LVU1369
.L216:
	.loc 1 588 13 is_stmt 0 view .LVU1370
.LBE558:
	.loc 1 572 50 is_stmt 1 discriminator 2 view .LVU1371
	addl	$1, %r8d	#, i
.LVL449:
	.loc 1 572 50 is_stmt 0 discriminator 2 view .LVU1372
	jmp	.L211	#
.LVL450:
.L381:
	.loc 1 572 50 discriminator 2 view .LVU1373
.LBE561:
.LBE565:
.LBE597:
.LBE683:
.LBE689:
.LBB690:
	.loc 1 848 54 is_stmt 1 discriminator 1 view .LVU1374
# peer.c:848:                 if (strcmp(argv[i], "--out") == 0) { out = argv[i + 1]; break; }
	.loc 1 848 58 is_stmt 0 discriminator 1 view .LVU1375
	movslq	%r15d, %r15	# ivtmp.412, ivtmp.412
	.loc 1 848 58 discriminator 1 view .LVU1376
	movq	272(%rsp,%r15,8), %r12	# argv[_21], out
.LVL451:
	.loc 1 848 73 is_stmt 1 discriminator 1 view .LVU1377
# peer.c:848:                 if (strcmp(argv[i], "--out") == 0) { out = argv[i + 1]; break; }
	.loc 1 848 73 is_stmt 0 view .LVU1378
	jmp	.L192	#
.LVL452:
.L397:
	.loc 1 848 73 view .LVU1379
.LBE690:
.LBE786:
.LBB787:
.LBB752:
	.loc 1 745 9 is_stmt 1 view .LVU1380
.LBB749:
.LBI749:
	.loc 2 84 1 view .LVU1381
.LBB750:
	.loc 2 86 3 view .LVU1382
# /usr/include/x86_64-linux-gnu/bits/stdio2.h:86:   return __printf_chk (__USE_FORTIFY_LEVEL - 1, __fmt, __va_arg_pack ());
	.loc 2 86 10 is_stmt 0 view .LVU1383
	leaq	.LC47(%rip), %rdi	#, tmp885
	call	puts@PLT	#
.LVL453:
	.loc 2 86 10 view .LVU1384
.LBE750:
.LBE749:
	.loc 1 746 9 is_stmt 1 view .LVU1385
	movq	%r12, %rdi	# tmp930,
	call	pthread_mutex_unlock@PLT	#
.LVL454:
	.loc 1 746 45 discriminator 1 view .LVU1386
# peer.c:746:         pthread_mutex_unlock(&shared_lock); return;
	.loc 1 746 45 is_stmt 0 view .LVU1387
	jmp	.L159	#
.LVL455:
.L385:
	.loc 1 746 45 view .LVU1388
.LBE752:
.LBE787:
.LBB788:
.LBB691:
.LBB684:
	.loc 1 632 9 is_stmt 1 view .LVU1389
	call	__errno_location@PLT	#
.LVL456:
# peer.c:632:         LOG_ERR("open '%s': %s", out_path, strerror(errno));
	.loc 1 632 9 is_stmt 0 discriminator 1 view .LVU1390
	movl	(%rax), %edi	# *_267,
	call	strerror@PLT	#
.LVL457:
.LBB598:
.LBI598:
	.loc 2 77 1 is_stmt 1 view .LVU1391
.LBB599:
	.loc 2 79 3 view .LVU1392
# /usr/include/x86_64-linux-gnu/bits/stdio2.h:79:   return __fprintf_chk (__stream, __USE_FORTIFY_LEVEL - 1, __fmt,
	.loc 2 79 10 is_stmt 0 view .LVU1393
	movq	16(%rsp), %rcx	# %sfp,
	movl	$2, %esi	#,
	movq	stderr(%rip), %rdi	# stderr,
.LBE599:
.LBE598:
# peer.c:632:         LOG_ERR("open '%s': %s", out_path, strerror(errno));
	.loc 1 632 9 discriminator 1 view .LVU1394
	movq	%rax, %r8	#, tmp1015
.LBB601:
.LBB600:
# /usr/include/x86_64-linux-gnu/bits/stdio2.h:79:   return __fprintf_chk (__stream, __USE_FORTIFY_LEVEL - 1, __fmt,
	.loc 2 79 10 view .LVU1395
	leaq	.LC35(%rip), %rdx	#, tmp729
	xorl	%eax, %eax	#
	call	__fprintf_chk@PLT	#
.LVL458:
	.loc 2 79 10 view .LVU1396
.LBE600:
.LBE601:
	.loc 1 633 9 is_stmt 1 view .LVU1397
	movq	640(%rsp), %rdi	# info.chunk_hashes,
	call	free@PLT	#
.LVL459:
	.loc 1 633 34 discriminator 1 view .LVU1398
# peer.c:633:         free(info.chunk_hashes); return;
	.loc 1 633 34 is_stmt 0 view .LVU1399
	jmp	.L159	#
.LVL460:
.L384:
	.loc 1 627 30 is_stmt 1 discriminator 2 view .LVU1400
.LBB602:
.LBI602:
	.loc 2 51 1 view .LVU1401
.LBB603:
	.loc 2 54 3 view .LVU1402
# /usr/include/x86_64-linux-gnu/bits/stdio2.h:54:   return __builtin___snprintf_chk (__s, __n, __USE_FORTIFY_LEVEL - 1,
	.loc 2 54 10 is_stmt 0 discriminator 1 view .LVU1403
	leaq	2864(%rsp), %rdi	#, tmp925
.LVL461:
	.loc 2 54 10 discriminator 1 view .LVU1404
	movq	%r12, %rcx	# out,
	movl	$2048, %esi	#,
	xorl	%eax, %eax	#
	leaq	.LC1(%rip), %rdx	#, tmp722
	movq	%rdi, 16(%rsp)	# tmp925, %sfp
	call	snprintf@PLT	#
.LVL462:
# /usr/include/x86_64-linux-gnu/bits/stdio2.h:54:   return __builtin___snprintf_chk (__s, __n, __USE_FORTIFY_LEVEL - 1,
	.loc 2 54 10 view .LVU1405
	jmp	.L207	#
.LVL463:
.L186:
	.loc 2 54 10 view .LVU1406
.LBE603:
.LBE602:
.LBE684:
.LBE691:
.LBE788:
.LBB789:
.LBB777:
	.loc 1 557 19 is_stmt 1 discriminator 1 view .LVU1407
.LBB773:
.LBI773:
	.loc 2 84 1 view .LVU1408
.LBB774:
	.loc 2 86 3 view .LVU1409
# /usr/include/x86_64-linux-gnu/bits/stdio2.h:86:   return __printf_chk (__USE_FORTIFY_LEVEL - 1, __fmt, __va_arg_pack ());
	.loc 2 86 10 is_stmt 0 view .LVU1410
	leaq	.LC28(%rip), %rdi	#, tmp649
	call	puts@PLT	#
.LVL464:
	.loc 2 86 10 view .LVU1411
.LBE774:
.LBE773:
	.loc 1 557 43 is_stmt 1 discriminator 1 view .LVU1412
	movq	%r15, %rdi	# pretmp_1010,
	call	free@PLT	#
.LVL465:
	.loc 1 557 53 discriminator 2 view .LVU1413
# peer.c:557:     if (n == 0) { printf("(no peers)\n"); free(pa); return; }
	.loc 1 557 53 is_stmt 0 view .LVU1414
	jmp	.L159	#
.L398:
	.loc 1 556 50 is_stmt 1 discriminator 1 view .LVU1415
.LVL466:
.LBB775:
.LBI775:
	.loc 2 77 1 view .LVU1416
.LBB776:
	.loc 2 79 3 view .LVU1417
# /usr/include/x86_64-linux-gnu/bits/stdio2.h:79:   return __fprintf_chk (__stream, __USE_FORTIFY_LEVEL - 1, __fmt,
	.loc 2 79 10 is_stmt 0 view .LVU1418
	movq	stderr(%rip), %rcx	# stderr,
	movl	$24, %edx	#,
	movl	$1, %esi	#,
	leaq	.LC27(%rip), %rdi	#, tmp646
	call	fwrite@PLT	#
.LVL467:
	.loc 2 79 10 view .LVU1419
.LBE776:
.LBE775:
	.loc 1 556 79 is_stmt 1 discriminator 1 view .LVU1420
# peer.c:556:     if (tracker_get_peers(fhash, &pa, &n) < 0) { LOG_ERR("get peers failed"); return; }
	.loc 1 556 79 is_stmt 0 view .LVU1421
	jmp	.L159	#
.LVL468:
.L226:
	.loc 1 556 79 view .LVU1422
.LBE777:
.LBE789:
.LBB790:
.LBB692:
.LBB685:
.LBB604:
	.loc 1 654 9 is_stmt 1 view .LVU1423
# peer.c:655:         if (tracker_get_peers(fhash, &pa, &np) < 0 || np == 0) {
	.loc 1 655 13 is_stmt 0 view .LVU1424
	movq	112(%rsp), %rdx	# %sfp,
	movq	120(%rsp), %rsi	# %sfp,
# peer.c:654:         peer_addr_t *pa = NULL; uint32_t np = 0;
	.loc 1 654 22 view .LVU1425
	xorl	%r9d, %r9d	#
# peer.c:654:         peer_addr_t *pa = NULL; uint32_t np = 0;
	.loc 1 654 42 view .LVU1426
	xorl	%r10d, %r10d	#
# peer.c:655:         if (tracker_get_peers(fhash, &pa, &np) < 0 || np == 0) {
	.loc 1 655 13 view .LVU1427
	movq	72(%rsp), %rdi	# %sfp,
# peer.c:654:         peer_addr_t *pa = NULL; uint32_t np = 0;
	.loc 1 654 22 view .LVU1428
	movq	%r9, 200(%rsp)	#, MEM[(struct peer_addr_t * *)_735]
	.loc 1 654 33 is_stmt 1 view .LVU1429
# peer.c:654:         peer_addr_t *pa = NULL; uint32_t np = 0;
	.loc 1 654 42 is_stmt 0 view .LVU1430
	movl	%r10d, 188(%rsp)	#, MEM[(unsigned int *)_316]
	.loc 1 655 9 is_stmt 1 view .LVU1431
# peer.c:655:         if (tracker_get_peers(fhash, &pa, &np) < 0 || np == 0) {
	.loc 1 655 13 is_stmt 0 view .LVU1432
	call	tracker_get_peers.constprop.0	#
.LVL469:
# peer.c:655:         if (tracker_get_peers(fhash, &pa, &np) < 0 || np == 0) {
	.loc 1 655 12 discriminator 1 view .LVU1433
	testl	%eax, %eax	# tmp1026
	js	.L224	#,
# peer.c:655:         if (tracker_get_peers(fhash, &pa, &np) < 0 || np == 0) {
	.loc 1 655 58 discriminator 1 view .LVU1434
	movl	188(%rsp), %eax	# MEM[(unsigned int *)_316], np.136_294
	movl	%eax, 80(%rsp)	# np.136_294, %sfp
# peer.c:655:         if (tracker_get_peers(fhash, &pa, &np) < 0 || np == 0) {
	.loc 1 655 52 discriminator 1 view .LVU1435
	testl	%eax, %eax	# np.136_294
	jne	.L228	#,
.L224:
	.loc 1 656 13 is_stmt 1 view .LVU1436
.LVL470:
.LBB605:
.LBI605:
	.loc 2 77 1 view .LVU1437
.LBB606:
	.loc 2 79 3 view .LVU1438
# /usr/include/x86_64-linux-gnu/bits/stdio2.h:79:   return __fprintf_chk (__stream, __USE_FORTIFY_LEVEL - 1, __fmt,
	.loc 2 79 10 is_stmt 0 view .LVU1439
	movq	stderr(%rip), %rcx	# stderr,
	movl	$26, %edx	#,
	movl	$1, %esi	#,
	leaq	.LC38(%rip), %rdi	#, tmp791
	call	fwrite@PLT	#
.LVL471:
	.loc 2 79 10 view .LVU1440
.LBE606:
.LBE605:
	.loc 1 657 13 is_stmt 1 view .LVU1441
	movl	%r14d, %edi	# _266,
	call	close@PLT	#
.LVL472:
	.loc 1 657 28 discriminator 1 view .LVU1442
	movq	640(%rsp), %rdi	# info.chunk_hashes,
	call	free@PLT	#
.LVL473:
	.loc 1 657 53 discriminator 2 view .LVU1443
	movq	32(%rsp), %rdi	# %sfp,
	call	free@PLT	#
.LVL474:
	.loc 1 657 70 discriminator 3 view .LVU1444
	movq	200(%rsp), %rdi	# MEM[(struct peer_addr_t * *)_735],
	call	free@PLT	#
.LVL475:
	.loc 1 658 13 view .LVU1445
	jmp	.L159	#
.LVL476:
.L210:
	.loc 1 658 13 is_stmt 0 view .LVU1446
.LBE604:
	.loc 1 641 5 is_stmt 1 view .LVU1447
# peer.c:641:     uint8_t *bitfield  = calloc(1, bfl);
	.loc 1 641 26 is_stmt 0 view .LVU1448
	movl	$1, %esi	#,
	movl	$1, %edi	#,
	call	calloc@PLT	#
.LVL477:
# peer.c:642:     uint8_t *failed_bf = calloc(1, bfl);
	.loc 1 642 26 view .LVU1449
	movl	$1, %esi	#,
	movl	$1, %edi	#,
# peer.c:641:     uint8_t *bitfield  = calloc(1, bfl);
	.loc 1 641 26 view .LVU1450
	movq	%rax, 40(%rsp)	# tmp1042, %sfp
.LVL478:
	.loc 1 642 5 is_stmt 1 view .LVU1451
# peer.c:642:     uint8_t *failed_bf = calloc(1, bfl);
	.loc 1 642 26 is_stmt 0 view .LVU1452
	call	calloc@PLT	#
.LVL479:
	.loc 1 642 26 view .LVU1453
	movq	%rax, 32(%rsp)	# tmp1043, %sfp
.LVL480:
	.loc 1 643 5 is_stmt 1 view .LVU1454
	.loc 1 644 5 view .LVU1455
.LBB669:
	.loc 1 567 12 view .LVU1456
.LBB566:
	.loc 1 569 5 view .LVU1457
# peer.c:569:     if (info->chunk_count == 0) return 0;
	.loc 1 569 40 is_stmt 0 discriminator 1 view .LVU1458
	xorl	%eax, %eax	#
.LVL481:
	.loc 1 569 40 discriminator 1 view .LVU1459
	movl	%eax, 24(%rsp)	#, %sfp
	jmp	.L220	#
.LVL482:
.L394:
	.loc 1 569 40 discriminator 1 view .LVU1460
	movl	16(%rsp), %r13d	# %sfp, interactive
	jmp	.L174	#
.LVL483:
.L391:
	.loc 1 569 40 discriminator 1 view .LVU1461
.LBE566:
.LBE669:
.LBE685:
.LBE692:
.LBE790:
.LBB791:
.LBB508:
.LBB503:
.LBB476:
	.loc 1 144 41 is_stmt 1 discriminator 1 view .LVU1462
	movq	208(%rsp), %rdi	# MEM[(uint8_t * *)_924],
.LVL484:
.L367:
	.loc 1 144 41 is_stmt 0 discriminator 1 view .LVU1463
	call	free@PLT	#
.LVL485:
	.loc 1 144 56 is_stmt 1 discriminator 1 view .LVU1464
	.loc 1 144 56 is_stmt 0 discriminator 1 view .LVU1465
	jmp	.L169	#
.LVL486:
.L389:
	.loc 1 144 56 discriminator 1 view .LVU1466
.LBE476:
.LBE503:
.LBE508:
.LBE791:
.LBB792:
.LBB693:
.LBB686:
.LBB670:
.LBB592:
	.loc 1 607 9 is_stmt 1 view .LVU1467
# peer.c:607:         sf->chunk_hashes = malloc((size_t)info->chunk_count * HASH_SIZE);
	.loc 1 607 28 is_stmt 0 view .LVU1468
	salq	$5, %rax	#, _908
	movq	%rax, %rdi	# _488,
	movq	%rax, %r12	# _908, _488
	call	malloc@PLT	#
.LVL487:
.LBB588:
.LBB589:
# /usr/include/x86_64-linux-gnu/bits/string_fortified.h:29:   return __builtin___memcpy_chk (__dest, __src, __len,
	.loc 3 29 10 discriminator 1 view .LVU1469
	movq	640(%rsp), %rsi	# info.chunk_hashes,
	movq	%r12, %rcx	# _488,
	movq	%r12, %rdx	# _488,
.LBE589:
.LBE588:
# peer.c:607:         sf->chunk_hashes = malloc((size_t)info->chunk_count * HASH_SIZE);
	.loc 1 607 26 discriminator 1 view .LVU1470
	movq	%rax, 2352(%r15)	# tmp778, sf_473->chunk_hashes
	.loc 1 608 9 is_stmt 1 view .LVU1471
# peer.c:607:         sf->chunk_hashes = malloc((size_t)info->chunk_count * HASH_SIZE);
	.loc 1 607 28 is_stmt 0 view .LVU1472
	movq	%rax, %rdi	# tmp1025, tmp778
.LVL488:
.LBB591:
.LBI588:
	.loc 3 26 1 is_stmt 1 view .LVU1473
.LBB590:
	.loc 3 29 3 view .LVU1474
# /usr/include/x86_64-linux-gnu/bits/string_fortified.h:29:   return __builtin___memcpy_chk (__dest, __src, __len,
	.loc 3 29 10 is_stmt 0 discriminator 1 view .LVU1475
	call	__memcpy_chk@PLT	#
.LVL489:
# /usr/include/x86_64-linux-gnu/bits/string_fortified.h:29:   return __builtin___memcpy_chk (__dest, __src, __len,
	.loc 3 29 10 view .LVU1476
	jmp	.L222	#
.LVL490:
.L272:
	.loc 3 29 10 view .LVU1477
.LBE590:
.LBE591:
.LBE592:
.LBE670:
.LBB671:
.LBB567:
.LBB562:
.LBB559:
# peer.c:577:         while (got < want) {
	.loc 1 577 20 view .LVU1478
	xorl	%esi, %esi	# _431
	jmp	.L213	#
.LVL491:
.L386:
	.loc 1 577 20 view .LVU1479
.LBE559:
.LBE562:
.LBE567:
.LBE671:
	.loc 1 636 9 is_stmt 1 view .LVU1480
	call	__errno_location@PLT	#
.LVL492:
# peer.c:636:         LOG_ERR("ftruncate '%s': %s", out_path, strerror(errno));
	.loc 1 636 9 is_stmt 0 discriminator 1 view .LVU1481
	movl	(%rax), %edi	# *_275,
	call	strerror@PLT	#
.LVL493:
.LBB672:
.LBI672:
	.loc 2 77 1 is_stmt 1 view .LVU1482
.LBB673:
	.loc 2 79 3 view .LVU1483
# /usr/include/x86_64-linux-gnu/bits/stdio2.h:79:   return __fprintf_chk (__stream, __USE_FORTIFY_LEVEL - 1, __fmt,
	.loc 2 79 10 is_stmt 0 view .LVU1484
	movq	16(%rsp), %rcx	# %sfp,
	movl	$2, %esi	#,
	movq	stderr(%rip), %rdi	# stderr,
.LBE673:
.LBE672:
# peer.c:636:         LOG_ERR("ftruncate '%s': %s", out_path, strerror(errno));
	.loc 1 636 9 discriminator 1 view .LVU1485
	movq	%rax, %r8	#, tmp1018
.LBB675:
.LBB674:
# /usr/include/x86_64-linux-gnu/bits/stdio2.h:79:   return __fprintf_chk (__stream, __USE_FORTIFY_LEVEL - 1, __fmt,
	.loc 2 79 10 view .LVU1486
	leaq	.LC36(%rip), %rdx	#, tmp734
	xorl	%eax, %eax	#
	call	__fprintf_chk@PLT	#
.LVL494:
	.loc 2 79 10 view .LVU1487
.LBE674:
.LBE675:
	.loc 1 637 9 is_stmt 1 view .LVU1488
	movl	%r14d, %edi	# _266,
	call	close@PLT	#
.LVL495:
	.loc 1 637 24 discriminator 1 view .LVU1489
	movq	640(%rsp), %rdi	# info.chunk_hashes,
	call	free@PLT	#
.LVL496:
	.loc 1 637 49 discriminator 2 view .LVU1490
# peer.c:637:         close(out_fd); free(info.chunk_hashes); return;
	.loc 1 637 49 is_stmt 0 view .LVU1491
	jmp	.L159	#
.LVL497:
.L383:
.LBB676:
.LBB540:
	.loc 1 201 13 is_stmt 1 view .LVU1492
	movq	640(%rsp), %rdi	# info.chunk_hashes,
	call	free@PLT	#
.LVL498:
	.loc 1 201 38 discriminator 1 view .LVU1493
.L200:
	.loc 1 185 58 discriminator 3 view .LVU1494
	movq	208(%rsp), %rdi	# MEM[(uint8_t * *)_924],
.LVL499:
.L368:
	.loc 1 185 58 is_stmt 0 discriminator 3 view .LVU1495
	call	free@PLT	#
.LVL500:
	.loc 1 185 73 is_stmt 1 discriminator 1 view .LVU1496
.L196:
	.loc 1 185 73 is_stmt 0 discriminator 1 view .LVU1497
.LBE540:
.LBE676:
	.loc 1 623 9 is_stmt 1 view .LVU1498
.LBB677:
.LBI677:
	.loc 2 77 1 view .LVU1499
.LBB678:
	.loc 2 79 3 view .LVU1500
# /usr/include/x86_64-linux-gnu/bits/stdio2.h:79:   return __fprintf_chk (__stream, __USE_FORTIFY_LEVEL - 1, __fmt,
	.loc 2 79 10 is_stmt 0 view .LVU1501
	movq	stderr(%rip), %rcx	# stderr,
	movl	$33, %edx	#,
	movl	$1, %esi	#,
	leaq	.LC33(%rip), %rdi	#, tmp720
	call	fwrite@PLT	#
.LVL501:
	.loc 2 79 10 view .LVU1502
.LBE678:
.LBE677:
	.loc 1 623 47 is_stmt 1 discriminator 1 view .LVU1503
# peer.c:623:         LOG_ERR("file not known to tracker"); return;
	.loc 1 623 47 is_stmt 0 view .LVU1504
	jmp	.L159	#
.LVL502:
.L382:
.LBB679:
.LBB541:
	.loc 1 177 19 is_stmt 1 discriminator 1 view .LVU1505
	movl	g_tracker_fd(%rip), %edi	# g_tracker_fd,
	call	close@PLT	#
.LVL503:
	.loc 1 177 40 discriminator 1 view .LVU1506
# peer.c:178:                   pthread_mutex_unlock(&g_tracker_lock); return -1; }
	.loc 1 178 19 is_stmt 0 view .LVU1507
	movq	%rbx, %rdi	# tmp678,
# peer.c:177:     if (rc < 0) { close(g_tracker_fd); g_tracker_fd = -1;
	.loc 1 177 53 discriminator 1 view .LVU1508
	movl	$-1, g_tracker_fd(%rip)	#, g_tracker_fd
	.loc 1 178 19 is_stmt 1 view .LVU1509
	call	pthread_mutex_unlock@PLT	#
.LVL504:
	.loc 1 178 58 discriminator 1 view .LVU1510
	.loc 1 178 58 is_stmt 0 discriminator 1 view .LVU1511
	jmp	.L196	#
.LVL505:
.L390:
	.loc 1 178 58 discriminator 1 view .LVU1512
.LBE541:
.LBE679:
.LBE686:
.LBE693:
.LBE792:
.LBB793:
.LBB509:
.LBB504:
.LBB477:
	.loc 1 136 19 is_stmt 1 discriminator 1 view .LVU1513
	movl	g_tracker_fd(%rip), %edi	# g_tracker_fd,
	call	close@PLT	#
.LVL506:
	.loc 1 136 40 discriminator 1 view .LVU1514
# peer.c:137:                   pthread_mutex_unlock(&g_tracker_lock); return -1; }
	.loc 1 137 19 is_stmt 0 view .LVU1515
	movq	%rbp, %rdi	# tmp586,
# peer.c:136:     if (rc < 0) { close(g_tracker_fd); g_tracker_fd = -1;
	.loc 1 136 53 discriminator 1 view .LVU1516
	movl	$-1, g_tracker_fd(%rip)	#, g_tracker_fd
	.loc 1 137 19 is_stmt 1 view .LVU1517
	call	pthread_mutex_unlock@PLT	#
.LVL507:
	.loc 1 137 58 discriminator 1 view .LVU1518
	.loc 1 137 58 is_stmt 0 discriminator 1 view .LVU1519
	jmp	.L169	#
.LVL508:
.L374:
	.loc 1 137 58 discriminator 1 view .LVU1520
.LBE477:
.LBE504:
.LBE509:
.LBE793:
.LBE799:
# peer.c:861: }
	.loc 1 861 1 view .LVU1521
	call	__stack_chk_fail@PLT	#
.LVL509:
.L258:
.LBB800:
	.loc 1 857 13 is_stmt 1 view .LVU1522
# peer.c:857:             g_quit = 1; break;
	.loc 1 857 20 is_stmt 0 view .LVU1523
	movl	$1, g_quit(%rip)	#, g_quit
	.loc 1 857 25 is_stmt 1 view .LVU1524
	jmp	.L135	#
.LVL510:
.L228:
.LBB794:
.LBB694:
.LBB687:
.LBB680:
	.loc 1 660 9 view .LVU1525
# peer.c:660:         dl_peer_t *peers = calloc(np, sizeof *peers);
	.loc 1 660 28 is_stmt 0 view .LVU1526
	movl	80(%rsp), %edi	# %sfp, _298
	movl	$40, %esi	#,
	imulq	$40, %rdi, %rax	#, _298, _403
	movq	%rax, 120(%rsp)	# _403, %sfp
	call	calloc@PLT	#
.LVL511:
	xorl	%edi, %edi	#
# peer.c:661:         uint32_t kept = 0;
	.loc 1 661 18 view .LVU1527
	xorl	%r8d, %r8d	#
# peer.c:660:         dl_peer_t *peers = calloc(np, sizeof *peers);
	.loc 1 660 28 view .LVU1528
	movq	%rax, 48(%rsp)	# tmp1027, %sfp
.LVL512:
	.loc 1 661 9 is_stmt 1 view .LVU1529
	.loc 1 662 9 view .LVU1530
.LBB607:
	.loc 1 662 14 view .LVU1531
	.loc 1 662 32 discriminator 1 view .LVU1532
.LBB608:
.LBB609:
# peer.c:347:     int rc = msg_recv(fd, &t, &p, &l);
	.loc 1 347 14 is_stmt 0 view .LVU1533
	leaq	187(%rsp), %rax	#, tmp957
.LVL513:
	.loc 1 347 14 view .LVU1534
	movq	%rax, 144(%rsp)	# tmp957, %sfp
# peer.c:352:     if (buf_get_bytes(&q, end, got_hash, HASH_SIZE) < 0 ||
	.loc 1 352 9 view .LVU1535
	leaq	2832(%rsp), %rax	#, tmp958
.LBE609:
.LBE608:
.LBE607:
# peer.c:660:         dl_peer_t *peers = calloc(np, sizeof *peers);
	.loc 1 660 28 view .LVU1536
	movq	%rdi, 56(%rsp)	#, %sfp
# peer.c:661:         uint32_t kept = 0;
	.loc 1 661 18 view .LVU1537
	movl	%r8d, 24(%rsp)	#, %sfp
.LBB636:
.LBB619:
.LBB614:
# peer.c:352:     if (buf_get_bytes(&q, end, got_hash, HASH_SIZE) < 0 ||
	.loc 1 352 9 view .LVU1538
	movq	%rax, 104(%rsp)	# tmp958, %sfp
	jmp	.L239	#
.LVL514:
.L237:
	.loc 1 358 5 is_stmt 1 view .LVU1539
	movq	208(%rsp), %rdi	# MEM[(uint8_t * *)_924],
	call	free@PLT	#
.LVL515:
	.loc 1 359 5 view .LVU1540
# peer.c:359:     *out_bf = bf; *out_bf_len = bflen;
	.loc 1 359 31 is_stmt 0 view .LVU1541
	movl	196(%rsp), %r9d	# MEM[(unsigned int *)_934], bflen.225_517
.LBE614:
.LBE619:
# peer.c:670:                 LOG_INFO("peer %s:%u online (bitfield %u bytes)",
	.loc 1 670 17 view .LVU1542
	movl	16(%rbx), %edi	# _310->ip, _310->ip
.LBB620:
.LBB615:
# peer.c:359:     *out_bf = bf; *out_bf_len = bflen;
	.loc 1 359 13 view .LVU1543
	movq	%r12, 24(%rbx)	# iftmp.218_513, MEM[(uint8_t * *)_310 + 24B]
	.loc 1 359 19 is_stmt 1 view .LVU1544
.LBE615:
.LBE620:
# peer.c:669:                 peers[kept].alive = 1;
	.loc 1 669 35 is_stmt 0 view .LVU1545
	movl	$1, 36(%rbx)	#, _310->alive
# peer.c:670:                 LOG_INFO("peer %s:%u online (bitfield %u bytes)",
	.loc 1 670 17 view .LVU1546
	movzwl	20(%rbx), %r12d	# _310->port, _321
.LBB621:
.LBB616:
# peer.c:359:     *out_bf = bf; *out_bf_len = bflen;
	.loc 1 359 31 view .LVU1547
	movl	%r9d, 32(%rbx)	# bflen.225_517, MEM[(uint32_t *)_310 + 32B]
	movl	%r9d, 160(%rsp)	# bflen.225_517, %sfp
	.loc 1 360 5 is_stmt 1 view .LVU1548
.LVL516:
	.loc 1 360 5 is_stmt 0 view .LVU1549
.LBE616:
.LBE621:
	.loc 1 669 17 is_stmt 1 view .LVU1550
	.loc 1 670 17 view .LVU1551
	call	ip_to_str@PLT	#
.LVL517:
.LBB622:
.LBB623:
# /usr/include/x86_64-linux-gnu/bits/stdio2.h:79:   return __fprintf_chk (__stream, __USE_FORTIFY_LEVEL - 1, __fmt,
	.loc 2 79 10 is_stmt 0 view .LVU1552
	movl	160(%rsp), %r9d	# %sfp, bflen.225_517
	movl	%r12d, %r8d	# _321,
	movq	stderr(%rip), %rdi	# stderr,
.LBE623:
.LBE622:
# peer.c:670:                 LOG_INFO("peer %s:%u online (bitfield %u bytes)",
	.loc 1 670 17 view .LVU1553
	movq	%rax, %rcx	# tmp1036, _323
.LVL518:
.LBB625:
.LBI622:
	.loc 2 77 1 is_stmt 1 view .LVU1554
.LBB624:
	.loc 2 79 3 view .LVU1555
# /usr/include/x86_64-linux-gnu/bits/stdio2.h:79:   return __fprintf_chk (__stream, __USE_FORTIFY_LEVEL - 1, __fmt,
	.loc 2 79 10 is_stmt 0 view .LVU1556
	leaq	.LC39(%rip), %rdx	#,
	movl	$2, %esi	#,
	xorl	%eax, %eax	#
	call	__fprintf_chk@PLT	#
.LVL519:
	.loc 2 79 10 view .LVU1557
.LBE624:
.LBE625:
	.loc 1 673 17 is_stmt 1 view .LVU1558
# peer.c:673:                 kept++;
	.loc 1 673 21 is_stmt 0 view .LVU1559
	addl	$1, 24(%rsp)	#, %sfp
.LVL520:
.L238:
	.loc 1 662 39 is_stmt 1 discriminator 2 view .LVU1560
	.loc 1 662 32 discriminator 1 view .LVU1561
	addq	$1, 56(%rsp)	#, %sfp
.LVL521:
	.loc 1 662 32 is_stmt 0 discriminator 1 view .LVU1562
	movl	80(%rsp), %esi	# %sfp, np.136_294
	movq	56(%rsp), %rax	# %sfp, ivtmp.404
	cmpl	%esi, %eax	# np.136_294, ivtmp.404
	jnb	.L399	#,
.LVL522:
.L239:
	.loc 1 663 13 is_stmt 1 view .LVU1563
# peer.c:663:             if (memcmp(pa[i].peer_id, g_peer_id, PEER_ID_SIZE) == 0) continue;
	.loc 1 663 26 is_stmt 0 view .LVU1564
	imulq	$24, 56(%rsp), %rdi	#, %sfp, tmp795
	movq	200(%rsp), %rax	# MEM[(struct peer_addr_t * *)_735], pa.140_300
# peer.c:663:             if (memcmp(pa[i].peer_id, g_peer_id, PEER_ID_SIZE) == 0) continue;
	.loc 1 663 17 view .LVU1565
	movl	$16, %edx	#,
	leaq	g_peer_id(%rip), %rsi	#,
# peer.c:663:             if (memcmp(pa[i].peer_id, g_peer_id, PEER_ID_SIZE) == 0) continue;
	.loc 1 663 26 view .LVU1566
	movq	%rax, 112(%rsp)	# pa.140_300, %sfp
	addq	%rax, %rdi	# pa.140_300, _304
# peer.c:663:             if (memcmp(pa[i].peer_id, g_peer_id, PEER_ID_SIZE) == 0) continue;
	.loc 1 663 17 view .LVU1567
	movq	%rdi, 160(%rsp)	# _304, %sfp
	call	memcmp@PLT	#
.LVL523:
# peer.c:663:             if (memcmp(pa[i].peer_id, g_peer_id, PEER_ID_SIZE) == 0) continue;
	.loc 1 663 16 discriminator 1 view .LVU1568
	testl	%eax, %eax	# tmp1028
	je	.L238	#,
	.loc 1 664 13 is_stmt 1 view .LVU1569
# peer.c:664:             peers[kept].ip   = pa[i].ip;
	.loc 1 664 18 is_stmt 0 view .LVU1570
	movl	24(%rsp), %eax	# %sfp, kept
	movq	120(%rsp), %rcx	# %sfp, _403
	movq	48(%rsp), %rdi	# %sfp, peers
	imulq	$40, %rax, %rax	#, kept, _309
	movq	%rcx, %rsi	# _403, _263
	cmpq	%rcx, %rax	# _403, _309
	leaq	(%rdi,%rax), %rbx	#, _310
# peer.c:664:             peers[kept].ip   = pa[i].ip;
	.loc 1 664 37 view .LVU1571
	movq	160(%rsp), %rdi	# %sfp, _304
	cmovnb	%rax, %rsi	# _309,, _263
	movl	16(%rdi), %r8d	# _304->ip, _311
# peer.c:665:             peers[kept].port = pa[i].port;
	.loc 1 665 37 view .LVU1572
	movzwl	20(%rdi), %r12d	# _304->port, _312
	movq	%rsi, %rdx	# _263, _405
	subq	%rax, %rdx	# _309, _405
# peer.c:664:             peers[kept].ip   = pa[i].ip;
	.loc 1 664 30 view .LVU1573
	movl	%r8d, 16(%rbx)	# _311, _310->ip
	cmpq	%rdx, %rcx	# _405, _403
# peer.c:665:             peers[kept].port = pa[i].port;
	.loc 1 665 30 view .LVU1574
	movw	%r12w, 20(%rbx)	# _312, _310->port
	cmovb	%rdx, %rcx	# _890,, _405, _890
.LBB626:
.LBB627:
# /usr/include/x86_64-linux-gnu/bits/string_fortified.h:29:   return __builtin___memcpy_chk (__dest, __src, __len,
	.loc 3 29 10 discriminator 1 view .LVU1575
	subq	%rsi, %rax	# _263, tmp802
	movq	%rdi, %rsi	# _304,
	movq	%rbx, %rdi	# _310,
.LBE627:
.LBE626:
# peer.c:664:             peers[kept].ip   = pa[i].ip;
	.loc 1 664 30 view .LVU1576
	movl	%r8d, 160(%rsp)	# _311, %sfp
	.loc 1 665 13 is_stmt 1 view .LVU1577
	.loc 1 666 13 view .LVU1578
.LVL524:
.LBB629:
.LBI626:
	.loc 3 26 1 view .LVU1579
.LBB628:
	.loc 3 29 3 view .LVU1580
# /usr/include/x86_64-linux-gnu/bits/string_fortified.h:29:   return __builtin___memcpy_chk (__dest, __src, __len,
	.loc 3 29 10 is_stmt 0 discriminator 1 view .LVU1581
	addq	%rcx, %rax	# _890, tmp803
	cmovc	%rcx, %rax	# tmp803,, _890, tmp801
	subq	%rcx, %rdx	# _890, tmp804
	leaq	(%rax,%rdx), %rcx	#, tmp805
	movl	$16, %edx	#,
	call	__memcpy_chk@PLT	#
.LVL525:
	.loc 3 29 10 discriminator 1 view .LVU1582
.LBE628:
.LBE629:
	.loc 1 667 13 is_stmt 1 view .LVU1583
.LBB630:
.LBI608:
	.loc 1 341 12 view .LVU1584
.LBB617:
	.loc 1 343 5 view .LVU1585
# peer.c:343:     int fd = tcp_connect(ip, port);
	.loc 1 343 14 is_stmt 0 view .LVU1586
	movl	160(%rsp), %edi	# %sfp,
	movzwl	%r12w, %esi	# _312, _312
	call	tcp_connect@PLT	#
.LVL526:
	movl	%eax, %r12d	# tmp1029, fd
.LVL527:
	.loc 1 344 5 is_stmt 1 view .LVU1587
# peer.c:344:     if (fd < 0) return -1;
	.loc 1 344 8 is_stmt 0 view .LVU1588
	testl	%eax, %eax	# fd
	js	.L231	#,
	.loc 1 345 5 is_stmt 1 view .LVU1589
# peer.c:345:     if (msg_send(fd, MSG_GET_HAVE, fhash, HASH_SIZE) < 0) { close(fd); return -1; }
	.loc 1 345 9 is_stmt 0 view .LVU1590
	movq	72(%rsp), %rdx	# %sfp,
	movl	$32, %ecx	#,
	movl	$32, %esi	#,
	movl	%eax, %edi	# fd,
	call	msg_send@PLT	#
.LVL528:
# peer.c:345:     if (msg_send(fd, MSG_GET_HAVE, fhash, HASH_SIZE) < 0) { close(fd); return -1; }
	.loc 1 345 8 discriminator 1 view .LVU1591
	testl	%eax, %eax	# tmp1030
	js	.L400	#,
	.loc 1 346 5 is_stmt 1 view .LVU1592
	.loc 1 346 16 view .LVU1593
# peer.c:346:     uint8_t t; uint8_t *p = NULL; uint32_t l;
	.loc 1 346 25 is_stmt 0 view .LVU1594
	xorl	%esi, %esi	#
# peer.c:347:     int rc = msg_recv(fd, &t, &p, &l);
	.loc 1 347 14 view .LVU1595
	movq	88(%rsp), %rdx	# %sfp,
	movq	128(%rsp), %rcx	# %sfp,
	movl	%r12d, %edi	# fd,
# peer.c:346:     uint8_t t; uint8_t *p = NULL; uint32_t l;
	.loc 1 346 25 view .LVU1596
	movq	%rsi, 208(%rsp)	#, MEM[(uint8_t * *)_924]
	.loc 1 346 35 is_stmt 1 view .LVU1597
	.loc 1 347 5 view .LVU1598
# peer.c:347:     int rc = msg_recv(fd, &t, &p, &l);
	.loc 1 347 14 is_stmt 0 view .LVU1599
	movq	144(%rsp), %rsi	# %sfp,
	call	msg_recv@PLT	#
.LVL529:
# peer.c:348:     close(fd);
	.loc 1 348 5 view .LVU1600
	movl	%r12d, %edi	# fd,
# peer.c:347:     int rc = msg_recv(fd, &t, &p, &l);
	.loc 1 347 14 view .LVU1601
	movl	%eax, 160(%rsp)	# rc, %sfp
.LVL530:
	.loc 1 348 5 is_stmt 1 view .LVU1602
	call	close@PLT	#
.LVL531:
	.loc 1 349 5 view .LVU1603
# peer.c:349:     if (rc < 0 || t != MSG_HAVE_CHUNKS) { free(p); return -1; }
	.loc 1 349 8 is_stmt 0 view .LVU1604
	movl	160(%rsp), %edx	# %sfp, rc
	movq	208(%rsp), %rdi	# MEM[(uint8_t * *)_924], MEM[(uint8_t * *)_924]
	testl	%edx, %edx	# rc
	js	.L370	#,
# peer.c:349:     if (rc < 0 || t != MSG_HAVE_CHUNKS) { free(p); return -1; }
	.loc 1 349 16 discriminator 2 view .LVU1605
	cmpb	$33, 187(%rsp)	#, t
	jne	.L370	#,
	.loc 1 350 5 is_stmt 1 view .LVU1606
# peer.c:350:     const uint8_t *q = p, *end = p + l;
	.loc 1 350 36 is_stmt 0 view .LVU1607
	movl	192(%rsp), %eax	# MEM[(unsigned int *)_736], MEM[(unsigned int *)_736]
# peer.c:352:     if (buf_get_bytes(&q, end, got_hash, HASH_SIZE) < 0 ||
	.loc 1 352 9 view .LVU1608
	movq	104(%rsp), %rdx	# %sfp,
	movl	$32, %ecx	#,
# peer.c:350:     const uint8_t *q = p, *end = p + l;
	.loc 1 350 20 view .LVU1609
	movq	%rdi, 224(%rsp)	# MEM[(uint8_t * *)_924], MEM[(const uint8_t * *)_900]
# peer.c:350:     const uint8_t *q = p, *end = p + l;
	.loc 1 350 28 view .LVU1610
	leaq	(%rdi,%rax), %r12	#, end
.LVL532:
	.loc 1 351 5 is_stmt 1 view .LVU1611
	.loc 1 351 34 view .LVU1612
	.loc 1 352 5 view .LVU1613
# peer.c:352:     if (buf_get_bytes(&q, end, got_hash, HASH_SIZE) < 0 ||
	.loc 1 352 9 is_stmt 0 view .LVU1614
	movq	%rbp, %rdi	# tmp936,
	movq	%r12, %rsi	# end,
	call	buf_get_bytes@PLT	#
.LVL533:
# peer.c:352:     if (buf_get_bytes(&q, end, got_hash, HASH_SIZE) < 0 ||
	.loc 1 352 8 discriminator 1 view .LVU1615
	testl	%eax, %eax	# tmp1032
	js	.L236	#,
# peer.c:353:         memcmp(got_hash, fhash, HASH_SIZE) != 0 ||
	.loc 1 353 9 view .LVU1616
	movq	72(%rsp), %rsi	# %sfp,
	movq	104(%rsp), %rdi	# %sfp,
	movl	$32, %edx	#,
	call	memcmp@PLT	#
.LVL534:
# peer.c:352:     if (buf_get_bytes(&q, end, got_hash, HASH_SIZE) < 0 ||
	.loc 1 352 57 discriminator 1 view .LVU1617
	testl	%eax, %eax	# tmp1033
	jne	.L236	#,
# peer.c:354:         buf_get_u32(&q, end, &bflen) < 0 ||
	.loc 1 354 9 view .LVU1618
	movq	136(%rsp), %rdx	# %sfp,
	movq	%r12, %rsi	# end,
	movq	%rbp, %rdi	# tmp936,
	call	buf_get_u32@PLT	#
.LVL535:
# peer.c:353:         memcmp(got_hash, fhash, HASH_SIZE) != 0 ||
	.loc 1 353 49 view .LVU1619
	testl	%eax, %eax	# tmp1034
	js	.L236	#,
# peer.c:355:         (size_t)(end - q) < bflen) { free(p); return -1; }
	.loc 1 355 22 view .LVU1620
	movq	224(%rsp), %rsi	# MEM[(const uint8_t * *)_900], q.215_507
# peer.c:355:         (size_t)(end - q) < bflen) { free(p); return -1; }
	.loc 1 355 27 view .LVU1621
	movl	196(%rsp), %edx	# MEM[(unsigned int *)_934],
# peer.c:355:         (size_t)(end - q) < bflen) { free(p); return -1; }
	.loc 1 355 22 view .LVU1622
	subq	%rsi, %r12	# q.215_507, tmp824
.LVL536:
# peer.c:354:         buf_get_u32(&q, end, &bflen) < 0 ||
	.loc 1 354 42 view .LVU1623
	cmpq	%rdx, %r12	# _511, tmp824
	jb	.L236	#,
	.loc 1 356 5 is_stmt 1 view .LVU1624
# peer.c:356:     uint8_t *bf = bflen ? malloc(bflen) : NULL;
	.loc 1 356 41 is_stmt 0 discriminator 2 view .LVU1625
	xorl	%r12d, %r12d	# iftmp.218_513
# peer.c:356:     uint8_t *bf = bflen ? malloc(bflen) : NULL;
	.loc 1 356 41 view .LVU1626
	testl	%edx, %edx	# bflen.216_510
	je	.L237	#,
# peer.c:356:     uint8_t *bf = bflen ? malloc(bflen) : NULL;
	.loc 1 356 27 discriminator 1 view .LVU1627
	movq	%rdx, %rdi	# _511,
	movq	%rsi, 168(%rsp)	# q.215_507, %sfp
	movq	%rdx, 160(%rsp)	# _511, %sfp
.LVL537:
	.loc 1 356 27 discriminator 1 view .LVU1628
	call	malloc@PLT	#
.LVL538:
.LBB610:
.LBB611:
# /usr/include/x86_64-linux-gnu/bits/string_fortified.h:29:   return __builtin___memcpy_chk (__dest, __src, __len,
	.loc 3 29 10 discriminator 1 view .LVU1629
	movq	160(%rsp), %rdx	# %sfp, _511
	movq	168(%rsp), %rsi	# %sfp, q.215_507
	movq	%rax, %rdi	# iftmp.218_513,
.LBE611:
.LBE610:
# peer.c:356:     uint8_t *bf = bflen ? malloc(bflen) : NULL;
	.loc 1 356 27 discriminator 1 view .LVU1630
	movq	%rax, %r12	# tmp1035, iftmp.218_513
.LVL539:
	.loc 1 357 5 is_stmt 1 view .LVU1631
	.loc 1 357 16 discriminator 1 view .LVU1632
.LBB613:
.LBI610:
	.loc 3 26 1 view .LVU1633
.LBB612:
	.loc 3 29 3 view .LVU1634
# /usr/include/x86_64-linux-gnu/bits/string_fortified.h:29:   return __builtin___memcpy_chk (__dest, __src, __len,
	.loc 3 29 10 is_stmt 0 discriminator 1 view .LVU1635
	call	memcpy@PLT	#
.LVL540:
# /usr/include/x86_64-linux-gnu/bits/string_fortified.h:29:   return __builtin___memcpy_chk (__dest, __src, __len,
	.loc 3 29 10 view .LVU1636
	jmp	.L237	#
.LVL541:
.L236:
	.loc 3 29 10 view .LVU1637
.LBE612:
.LBE613:
	.loc 1 355 38 is_stmt 1 view .LVU1638
	movq	208(%rsp), %rdi	# MEM[(uint8_t * *)_924],
.LVL542:
.L370:
	.loc 1 355 38 is_stmt 0 view .LVU1639
	call	free@PLT	#
.LVL543:
	.loc 1 355 47 is_stmt 1 discriminator 1 view .LVU1640
.L231:
	.loc 1 355 47 is_stmt 0 discriminator 1 view .LVU1641
.LBE617:
.LBE630:
	.loc 1 675 17 is_stmt 1 view .LVU1642
	movl	16(%rbx), %edi	# _310->ip, _310->ip
	movzwl	20(%rbx), %r12d	# _310->port, _327
	call	ip_to_str@PLT	#
.LVL544:
.LBB631:
.LBB632:
# /usr/include/x86_64-linux-gnu/bits/stdio2.h:79:   return __fprintf_chk (__stream, __USE_FORTIFY_LEVEL - 1, __fmt,
	.loc 2 79 10 is_stmt 0 view .LVU1643
	movq	stderr(%rip), %rdi	# stderr,
	movl	%r12d, %r8d	# _327,
	leaq	.LC40(%rip), %rdx	#,
.LBE632:
.LBE631:
# peer.c:675:                 LOG_WARN("peer %s:%u not reachable", ip_to_str(peers[kept].ip),
	.loc 1 675 17 view .LVU1644
	movq	%rax, %rcx	# tmp1037, _329
.LVL545:
.LBB634:
.LBI631:
	.loc 2 77 1 is_stmt 1 view .LVU1645
.LBB633:
	.loc 2 79 3 view .LVU1646
# /usr/include/x86_64-linux-gnu/bits/stdio2.h:79:   return __fprintf_chk (__stream, __USE_FORTIFY_LEVEL - 1, __fmt,
	.loc 2 79 10 is_stmt 0 view .LVU1647
	movl	$2, %esi	#,
	xorl	%eax, %eax	#
	call	__fprintf_chk@PLT	#
.LVL546:
	.loc 2 79 10 view .LVU1648
	jmp	.L238	#
.LVL547:
.L400:
	.loc 2 79 10 view .LVU1649
.LBE633:
.LBE634:
.LBB635:
.LBB618:
	.loc 1 345 61 is_stmt 1 discriminator 1 view .LVU1650
	movl	%r12d, %edi	# fd,
	call	close@PLT	#
.LVL548:
	.loc 1 345 72 discriminator 1 view .LVU1651
	.loc 1 345 72 is_stmt 0 discriminator 1 view .LVU1652
	jmp	.L231	#
.LVL549:
.L399:
	.loc 1 345 72 discriminator 1 view .LVU1653
.LBE618:
.LBE635:
.LBE636:
	.loc 1 679 9 is_stmt 1 view .LVU1654
	movq	112(%rsp), %rdi	# %sfp,
	call	free@PLT	#
.LVL550:
	.loc 1 681 9 view .LVU1655
# peer.c:681:         if (kept == 0) {
	.loc 1 681 12 is_stmt 0 view .LVU1656
	cmpl	$0, 24(%rsp)	#, %sfp
	je	.L401	#,
	.loc 1 687 9 is_stmt 1 view .LVU1657
	.loc 1 688 9 view .LVU1658
.LVL551:
.LBB637:
.LBI637:
	.loc 3 57 1 view .LVU1659
.LBB638:
	.loc 3 59 3 view .LVU1660
# /usr/include/x86_64-linux-gnu/bits/string_fortified.h:59:   return __builtin___memset_chk (__dest, __ch, __len,
	.loc 3 59 10 is_stmt 0 discriminator 1 view .LVU1661
	xorl	%eax, %eax	# tmp843
	movl	$268, %ecx	#, tmp844
.LBE638:
.LBE637:
# peer.c:692:         ctx.remaining = remaining;
	.loc 1 692 23 view .LVU1662
	movl	64(%rsp), %ebx	# %sfp, remaining
.LBB641:
.LBB642:
# /usr/include/x86_64-linux-gnu/bits/stdio2.h:54:   return __builtin___snprintf_chk (__s, __n, __USE_FORTIFY_LEVEL - 1,
	.loc 2 54 10 discriminator 1 view .LVU1663
	movl	$2048, %esi	#,
.LBE642:
.LBE641:
.LBB646:
.LBB639:
# /usr/include/x86_64-linux-gnu/bits/string_fortified.h:59:   return __builtin___memset_chk (__dest, __ch, __len,
	.loc 3 59 10 discriminator 1 view .LVU1664
	leaq	656(%rsp), %r12	#, tmp928
.LVL552:
	.loc 3 59 10 discriminator 1 view .LVU1665
.LBE639:
.LBE646:
.LBB647:
.LBB643:
# /usr/include/x86_64-linux-gnu/bits/stdio2.h:54:   return __builtin___snprintf_chk (__s, __n, __USE_FORTIFY_LEVEL - 1,
	.loc 2 54 10 discriminator 1 view .LVU1666
	leaq	.LC1(%rip), %rdx	#,
.LBE643:
.LBE647:
.LBB648:
.LBB640:
# /usr/include/x86_64-linux-gnu/bits/string_fortified.h:59:   return __builtin___memset_chk (__dest, __ch, __len,
	.loc 3 59 10 discriminator 1 view .LVU1667
	movq	%r12, %rdi	# tmp928, tmp842
	rep stosq
.LVL553:
	.loc 3 59 10 discriminator 1 view .LVU1668
.LBE640:
.LBE648:
	.loc 1 689 9 is_stmt 1 view .LVU1669
# peer.c:689:         ctx.info      = &info;
	.loc 1 689 23 is_stmt 0 view .LVU1670
	movq	96(%rsp), %rax	# %sfp, tmp942
.LBB649:
.LBB644:
# /usr/include/x86_64-linux-gnu/bits/stdio2.h:54:   return __builtin___snprintf_chk (__s, __n, __USE_FORTIFY_LEVEL - 1,
	.loc 2 54 10 discriminator 1 view .LVU1671
	movq	16(%rsp), %rcx	# %sfp,
	leaq	728(%rsp), %rdi	#, tmp848
.LBE644:
.LBE649:
# peer.c:692:         ctx.remaining = remaining;
	.loc 1 692 23 view .LVU1672
	movl	%ebx, 720(%rsp)	# remaining, MEM[(struct  *)_364].remaining
# peer.c:689:         ctx.info      = &info;
	.loc 1 689 23 view .LVU1673
	movq	%rax, 656(%rsp)	# tmp942, MEM[(struct  *)_364].info
	.loc 1 690 9 is_stmt 1 view .LVU1674
# peer.c:690:         ctx.bitfield  = bitfield;
	.loc 1 690 23 is_stmt 0 view .LVU1675
	movq	40(%rsp), %rax	# %sfp, bitfield
# peer.c:693:         ctx.out_fd    = out_fd;
	.loc 1 693 23 view .LVU1676
	movl	%r14d, 724(%rsp)	# _266, MEM[(struct  *)_364].out_fd
# peer.c:690:         ctx.bitfield  = bitfield;
	.loc 1 690 23 view .LVU1677
	movq	%rax, 664(%rsp)	# bitfield, MEM[(struct  *)_364].bitfield
	.loc 1 691 9 is_stmt 1 view .LVU1678
# peer.c:691:         ctx.failed    = failed_bf;
	.loc 1 691 23 is_stmt 0 view .LVU1679
	movq	32(%rsp), %rax	# %sfp, failed_bf
	movq	%rax, 672(%rsp)	# failed_bf, MEM[(struct  *)_364].failed
	.loc 1 692 9 is_stmt 1 view .LVU1680
	.loc 1 693 9 view .LVU1681
	.loc 1 694 9 view .LVU1682
.LVL554:
.LBB650:
.LBI641:
	.loc 2 51 1 view .LVU1683
.LBB645:
	.loc 2 54 3 view .LVU1684
# /usr/include/x86_64-linux-gnu/bits/stdio2.h:54:   return __builtin___snprintf_chk (__s, __n, __USE_FORTIFY_LEVEL - 1,
	.loc 2 54 10 is_stmt 0 discriminator 1 view .LVU1685
	xorl	%eax, %eax	#
	call	snprintf@PLT	#
.LVL555:
	.loc 2 54 10 discriminator 1 view .LVU1686
.LBE645:
.LBE650:
	.loc 1 695 9 is_stmt 1 view .LVU1687
# peer.c:695:         ctx.peers     = peers;
	.loc 1 695 23 is_stmt 0 view .LVU1688
	movq	48(%rsp), %rax	# %sfp, peers
# peer.c:697:         pthread_mutex_init(&ctx.lock, NULL);
	.loc 1 697 9 view .LVU1689
	leaq	680(%rsp), %rsi	#, tmp929
	movq	%rsi, %rdi	# tmp929, tmp929
	movq	%rsi, 64(%rsp)	# tmp929, %sfp
	xorl	%esi, %esi	#
# peer.c:695:         ctx.peers     = peers;
	.loc 1 695 23 view .LVU1690
	movq	%rax, 2776(%rsp)	# peers, MEM[(struct  *)_364].peers
	.loc 1 696 9 is_stmt 1 view .LVU1691
# peer.c:696:         ctx.n_peers   = kept;
	.loc 1 696 23 is_stmt 0 view .LVU1692
	movl	24(%rsp), %eax	# %sfp, kept
	movl	%eax, 2784(%rsp)	# kept, MEM[(struct  *)_364].n_peers
	.loc 1 697 9 is_stmt 1 view .LVU1693
	call	pthread_mutex_init@PLT	#
.LVL556:
	.loc 1 699 9 view .LVU1694
	.loc 1 700 9 view .LVU1695
	movq	88(%rsp), %rsi	# %sfp,
	movl	$1, %edi	#,
	call	clock_gettime@PLT	#
.LVL557:
	.loc 1 701 9 view .LVU1696
.LBB651:
.LBI651:
	.loc 2 84 1 view .LVU1697
.LBB652:
	.loc 2 86 3 view .LVU1698
# /usr/include/x86_64-linux-gnu/bits/stdio2.h:86:   return __printf_chk (__USE_FORTIFY_LEVEL - 1, __fmt, __va_arg_pack ());
	.loc 2 86 10 is_stmt 0 view .LVU1699
	movl	24(%rsp), %ecx	# %sfp,
	movl	%ebx, %edx	# remaining,
	movl	$2, %edi	#,
	movl	$4, %r8d	#,
	leaq	.LC42(%rip), %rsi	#, tmp853
	xorl	%eax, %eax	#
	xorl	%ebx, %ebx	# i
	call	__printf_chk@PLT	#
.LVL558:
	.loc 2 86 10 view .LVU1700
.LBE652:
.LBE651:
	.loc 1 704 9 is_stmt 1 view .LVU1701
	.loc 1 705 9 view .LVU1702
.LBB653:
	.loc 1 705 14 view .LVU1703
	.loc 1 705 27 discriminator 1 view .LVU1704
	leaq	240(%rsp), %rax	#, tmp937
	movq	%rax, 72(%rsp)	# tmp937, %sfp
	movq	%rax, 56(%rsp)	# tmp937, %sfp
.LVL559:
.L241:
.LBB654:
	.loc 1 706 13 view .LVU1705
# peer.c:706:             worker_arg_t *wa = malloc(sizeof *wa);
	.loc 1 706 32 is_stmt 0 view .LVU1706
	movl	$16, %edi	#,
	call	malloc@PLT	#
.LVL560:
# peer.c:708:             pthread_create(&threads[i], NULL, download_worker, wa);
	.loc 1 708 13 view .LVU1707
	movq	56(%rsp), %rdi	# %sfp,
	leaq	download_worker(%rip), %rdx	#,
	xorl	%esi, %esi	#
# peer.c:707:             wa->ctx = &ctx; wa->worker_id = i;
	.loc 1 707 43 view .LVU1708
	movl	%ebx, 8(%rax)	# i, wa_336->worker_id
# peer.c:706:             worker_arg_t *wa = malloc(sizeof *wa);
	.loc 1 706 32 view .LVU1709
	movq	%rax, %rcx	# tmp1038, tmp854
.LVL561:
	.loc 1 707 13 is_stmt 1 view .LVU1710
.LBE654:
# peer.c:705:         for (int i = 0; i < WORKER_THREADS; i++) {
	.loc 1 705 46 is_stmt 0 discriminator 3 view .LVU1711
	addl	$1, %ebx	#, i
.LVL562:
.LBB655:
# peer.c:707:             wa->ctx = &ctx; wa->worker_id = i;
	.loc 1 707 21 view .LVU1712
	movq	%r12, (%rax)	# tmp928, wa_336->ctx
	.loc 1 707 29 is_stmt 1 view .LVU1713
	.loc 1 708 13 view .LVU1714
	call	pthread_create@PLT	#
.LVL563:
	.loc 1 708 13 is_stmt 0 view .LVU1715
.LBE655:
	.loc 1 705 46 is_stmt 1 discriminator 3 view .LVU1716
	.loc 1 705 27 discriminator 1 view .LVU1717
	addq	$8, 56(%rsp)	#, %sfp
	cmpl	$4, %ebx	#, i
	jne	.L241	#,
	movq	72(%rsp), %rbx	# %sfp, tmp937
.LVL564:
	.loc 1 705 27 is_stmt 0 discriminator 1 view .LVU1718
	xorl	%r12d, %r12d	# ivtmp.390
.L242:
.LVL565:
	.loc 1 705 27 discriminator 1 view .LVU1719
.LBE653:
.LBB656:
	.loc 1 710 50 is_stmt 1 discriminator 3 view .LVU1720
	movq	(%rbx,%r12,8), %rdi	# MEM[(long unsigned int *)&threads + ivtmp.390_734 * 8], MEM[(long unsigned int *)&threads + ivtmp.390_734 * 8]
	xorl	%esi, %esi	#
# peer.c:710:         for (int i = 0; i < WORKER_THREADS; i++) pthread_join(threads[i], NULL);
	.loc 1 710 27 is_stmt 0 discriminator 2 view .LVU1721
	addq	$1, %r12	#, ivtmp.390
.LVL566:
# peer.c:710:         for (int i = 0; i < WORKER_THREADS; i++) pthread_join(threads[i], NULL);
	.loc 1 710 50 discriminator 3 view .LVU1722
	call	pthread_join@PLT	#
.LVL567:
	.loc 1 710 46 is_stmt 1 discriminator 3 view .LVU1723
	.loc 1 710 27 discriminator 2 view .LVU1724
	cmpq	$4, %r12	#, ivtmp.390
	jne	.L242	#,
.LBE656:
	.loc 1 712 9 view .LVU1725
	movl	$1, %edi	#,
	movq	%rbp, %rsi	# tmp936,
	call	clock_gettime@PLT	#
.LVL568:
	.loc 1 713 9 view .LVU1726
# peer.c:713:         double sec = (double)(t1.tv_sec - t0.tv_sec)
	.loc 1 713 33 is_stmt 0 view .LVU1727
	movq	224(%rsp), %rdx	# MEM[(struct timespec *)_900].tv_sec, _343
.LBB657:
# peer.c:717:         for (uint32_t i = 0; i < info.chunk_count; i++)
	.loc 1 717 23 view .LVU1728
	xorl	%eax, %eax	# i
.LBE657:
# peer.c:713:         double sec = (double)(t1.tv_sec - t0.tv_sec)
	.loc 1 713 45 view .LVU1729
	movq	208(%rsp), %rdi	# MEM[(struct timespec *)_924].tv_sec, _344
# peer.c:714:                    + (double)(t1.tv_nsec - t0.tv_nsec) / 1e9;
	.loc 1 714 33 view .LVU1730
	movq	232(%rsp), %rcx	# MEM[(struct timespec *)_900].tv_nsec, _347
# peer.c:714:                    + (double)(t1.tv_nsec - t0.tv_nsec) / 1e9;
	.loc 1 714 46 view .LVU1731
	movq	216(%rsp), %r8	# MEM[(struct timespec *)_924].tv_nsec, _348
.LVL569:
	.loc 1 716 9 is_stmt 1 view .LVU1732
	.loc 1 717 9 view .LVU1733
.LBB658:
	.loc 1 717 14 view .LVU1734
# peer.c:717:         for (uint32_t i = 0; i < info.chunk_count; i++)
	.loc 1 717 38 is_stmt 0 discriminator 1 view .LVU1735
	movl	636(%rsp), %r9d	# info.chunk_count, _363
# peer.c:717:         for (uint32_t i = 0; i < info.chunk_count; i++)
	.loc 1 717 9 view .LVU1736
	jmp	.L243	#
.LVL570:
.L245:
	.loc 1 718 13 is_stmt 1 view .LVU1737
# peer.c:718:             if (!BIT_TEST(bitfield, i)) { complete = 0; break; }
	.loc 1 718 18 is_stmt 0 view .LVU1738
	movq	40(%rsp), %rbx	# %sfp, bitfield
	movl	%eax, %esi	# i, tmp860
	shrl	$3, %esi	#,
	movzbl	(%rbx,%rsi), %r10d	# *_356, *_356
	movl	%eax, %esi	# i, tmp863
	andl	$7, %esi	#, tmp863
# peer.c:718:             if (!BIT_TEST(bitfield, i)) { complete = 0; break; }
	.loc 1 718 16 view .LVU1739
	btl	%esi, %r10d	# tmp863, *_356
	jnc	.L244	#,
	.loc 1 717 53 is_stmt 1 discriminator 2 view .LVU1740
	addl	$1, %eax	#, i
.LVL571:
.L243:
	.loc 1 717 32 discriminator 1 view .LVU1741
	cmpl	%r9d, %eax	# _363, i
	jne	.L245	#,
	.loc 1 717 32 is_stmt 0 discriminator 1 view .LVU1742
.LBE658:
	.loc 1 720 9 is_stmt 1 view .LVU1743
# peer.c:714:                    + (double)(t1.tv_nsec - t0.tv_nsec) / 1e9;
	.loc 1 714 42 is_stmt 0 view .LVU1744
	movq	%rcx, %rax	# _347, _347
.LVL572:
# peer.c:714:                    + (double)(t1.tv_nsec - t0.tv_nsec) / 1e9;
	.loc 1 714 22 view .LVU1745
	pxor	%xmm2, %xmm2	# tmp916
# peer.c:713:         double sec = (double)(t1.tv_sec - t0.tv_sec)
	.loc 1 713 22 view .LVU1746
	pxor	%xmm0, %xmm0	# tmp920
.LBB659:
# peer.c:721:             double mb = (double)info.file_size / (1024.0 * 1024.0);
	.loc 1 721 37 view .LVU1747
	movq	624(%rsp), %rcx	# info.file_size, _365
.LVL573:
	.loc 1 721 37 view .LVU1748
.LBE659:
# peer.c:714:                    + (double)(t1.tv_nsec - t0.tv_nsec) / 1e9;
	.loc 1 714 42 view .LVU1749
	subq	%r8, %rax	# _348, _347
# peer.c:714:                    + (double)(t1.tv_nsec - t0.tv_nsec) / 1e9;
	.loc 1 714 22 view .LVU1750
	cvtsi2sdq	%rax, %xmm2	# tmp915, tmp916
# peer.c:713:         double sec = (double)(t1.tv_sec - t0.tv_sec)
	.loc 1 713 41 view .LVU1751
	movq	%rdx, %rax	# _343, _343
# peer.c:714:                    + (double)(t1.tv_nsec - t0.tv_nsec) / 1e9;
	.loc 1 714 56 view .LVU1752
	divsd	.LC54(%rip), %xmm2	#, tmp917
# peer.c:713:         double sec = (double)(t1.tv_sec - t0.tv_sec)
	.loc 1 713 41 view .LVU1753
	subq	%rdi, %rax	# _344, _343
# peer.c:713:         double sec = (double)(t1.tv_sec - t0.tv_sec)
	.loc 1 713 22 view .LVU1754
	cvtsi2sdq	%rax, %xmm0	# tmp919, tmp920
# peer.c:713:         double sec = (double)(t1.tv_sec - t0.tv_sec)
	.loc 1 713 16 view .LVU1755
	addsd	%xmm0, %xmm2	# tmp920, sec
.LBB662:
	.loc 1 721 13 is_stmt 1 view .LVU1756
.LVL574:
	.loc 1 722 13 view .LVU1757
	pxor	%xmm0, %xmm0	# tmp921
# peer.c:722:             printf("Download complete: '%s' (%llu B) in %.2fs (%.2f MB/s)\n",
	.loc 1 722 13 is_stmt 0 discriminator 2 view .LVU1758
	movapd	%xmm0, %xmm1	#, iftmp.151_369
# peer.c:722:             printf("Download complete: '%s' (%llu B) in %.2fs (%.2f MB/s)\n",
	.loc 1 722 13 view .LVU1759
	comisd	%xmm0, %xmm2	# tmp921, sec
	jbe	.L263	#,
# peer.c:721:             double mb = (double)info.file_size / (1024.0 * 1024.0);
	.loc 1 721 25 view .LVU1760
	testq	%rcx, %rcx	# _365
	js	.L247	#,
	pxor	%xmm0, %xmm0	# tmp866
	cvtsi2sdq	%rcx, %xmm0	# _365, tmp866
.LVL575:
.L248:
# peer.c:721:             double mb = (double)info.file_size / (1024.0 * 1024.0);
	.loc 1 721 20 view .LVU1761
	movsd	.LC43(%rip), %xmm1	#, tmp866
	mulsd	%xmm0, %xmm1	# tmp866, tmp866
# peer.c:722:             printf("Download complete: '%s' (%llu B) in %.2fs (%.2f MB/s)\n",
	.loc 1 722 13 discriminator 1 view .LVU1762
	divsd	%xmm2, %xmm1	# sec, iftmp.151_369
.L263:
.LVL576:
.LBB660:
.LBI660:
	.loc 2 84 1 is_stmt 1 view .LVU1763
.LBB661:
	.loc 2 86 3 view .LVU1764
# /usr/include/x86_64-linux-gnu/bits/stdio2.h:86:   return __printf_chk (__USE_FORTIFY_LEVEL - 1, __fmt, __va_arg_pack ());
	.loc 2 86 10 is_stmt 0 view .LVU1765
	movq	16(%rsp), %rdx	# %sfp,
	movl	$2, %edi	#,
.LVL577:
	.loc 2 86 10 view .LVU1766
	movapd	%xmm2, %xmm0	# sec,
	leaq	.LC44(%rip), %rsi	#, tmp873
	movl	$2, %eax	#,
	call	__printf_chk@PLT	#
.LVL578:
	.loc 2 86 10 view .LVU1767
.LBE661:
.LBE660:
	.loc 1 725 13 is_stmt 1 view .LVU1768
	movq	%r15, %rdi	# sf,
	call	tracker_announce	#
.LVL579:
.L261:
	.loc 1 725 13 is_stmt 0 view .LVU1769
.LBE662:
.LBB663:
	.loc 1 730 32 is_stmt 1 discriminator 2 view .LVU1770
	movl	24(%rsp), %ebx	# %sfp, kept
	movq	48(%rsp), %rax	# %sfp, peers
	imulq	$40, %rbx, %rbx	#, kept, tmp875
	movq	%rax, %rbp	# peers, ivtmp.381
	addq	%rax, %rbx	# peers, _524
.LVL580:
.L249:
	.loc 1 730 45 discriminator 3 view .LVU1771
	movq	24(%rbp), %rdi	# MEM[(uint8_t * *)_526 + 24B], MEM[(uint8_t * *)_526 + 24B]
# peer.c:730:         for (uint32_t i = 0; i < kept; i++) free(peers[i].bitfield);
	.loc 1 730 32 is_stmt 0 discriminator 2 view .LVU1772
	addq	$40, %rbp	#, ivtmp.381
# peer.c:730:         for (uint32_t i = 0; i < kept; i++) free(peers[i].bitfield);
	.loc 1 730 45 discriminator 3 view .LVU1773
	call	free@PLT	#
.LVL581:
	.loc 1 730 41 is_stmt 1 discriminator 3 view .LVU1774
	.loc 1 730 32 discriminator 2 view .LVU1775
	cmpq	%rbp, %rbx	# ivtmp.381, _524
	jne	.L249	#,
.LBE663:
	.loc 1 731 9 view .LVU1776
	movq	48(%rsp), %rdi	# %sfp,
	call	free@PLT	#
.LVL582:
	.loc 1 732 9 view .LVU1777
	movq	64(%rsp), %rdi	# %sfp,
	call	pthread_mutex_destroy@PLT	#
.LVL583:
.LBE680:
	jmp	.L250	#
.LVL584:
.L401:
.LBB681:
	.loc 1 682 13 view .LVU1778
.LBB664:
.LBI664:
	.loc 2 77 1 view .LVU1779
.LBB665:
	.loc 2 79 3 view .LVU1780
# /usr/include/x86_64-linux-gnu/bits/stdio2.h:79:   return __fprintf_chk (__stream, __USE_FORTIFY_LEVEL - 1, __fmt,
	.loc 2 79 10 is_stmt 0 view .LVU1781
	movq	stderr(%rip), %rcx	# stderr,
	movl	$26, %edx	#,
	movl	$1, %esi	#,
	leaq	.LC41(%rip), %rdi	#, tmp839
	call	fwrite@PLT	#
.LVL585:
	.loc 2 79 10 view .LVU1782
.LBE665:
.LBE664:
	.loc 1 683 13 is_stmt 1 view .LVU1783
	movl	%r14d, %edi	# _266,
	call	close@PLT	#
.LVL586:
	.loc 1 683 28 discriminator 1 view .LVU1784
	movq	640(%rsp), %rdi	# info.chunk_hashes,
	call	free@PLT	#
.LVL587:
	.loc 1 683 53 discriminator 2 view .LVU1785
	movq	32(%rsp), %rdi	# %sfp,
	call	free@PLT	#
.LVL588:
	.loc 1 683 70 discriminator 3 view .LVU1786
	movq	48(%rsp), %rdi	# %sfp,
	call	free@PLT	#
.LVL589:
	.loc 1 684 13 view .LVU1787
	jmp	.L159	#
.LVL590:
.L244:
	.loc 1 720 9 view .LVU1788
	.loc 1 727 13 view .LVU1789
.LBB666:
.LBI666:
	.loc 2 84 1 view .LVU1790
.LBB667:
	.loc 2 86 3 view .LVU1791
# /usr/include/x86_64-linux-gnu/bits/stdio2.h:86:   return __printf_chk (__USE_FORTIFY_LEVEL - 1, __fmt, __va_arg_pack ());
	.loc 2 86 10 is_stmt 0 view .LVU1792
	leaq	.LC53(%rip), %rdi	#, tmp914
.LVL591:
	.loc 2 86 10 view .LVU1793
	call	puts@PLT	#
.LVL592:
	.loc 2 86 10 view .LVU1794
	jmp	.L261	#
.LVL593:
.L247:
	.loc 2 86 10 view .LVU1795
.LBE667:
.LBE666:
.LBB668:
# peer.c:721:             double mb = (double)info.file_size / (1024.0 * 1024.0);
	.loc 1 721 25 view .LVU1796
	movq	%rcx, %rax	# _365, tmp868
	movq	%rcx, %rdx	# _365, tmp869
.LVL594:
	.loc 1 721 25 view .LVU1797
	pxor	%xmm0, %xmm0	# tmp867
	shrq	%rax	# tmp868
	andl	$1, %edx	#, tmp869
	orq	%rdx, %rax	# tmp869, tmp868
	cvtsi2sdq	%rax, %xmm0	# tmp868, tmp867
	addsd	%xmm0, %xmm0	# tmp867, tmp866
	jmp	.L248	#
.LBE668:
.LBE681:
.LBE687:
.LBE694:
.LBE794:
.LBE800:
	.cfi_endproc
.LFE107:
	.size	cli_loop, .-cli_loop
	.p2align 4
	.type	server_client_thread, @function
server_client_thread:
.LVL595:
.LFB89:
	.loc 1 305 46 is_stmt 1 view -0
	.cfi_startproc
	.loc 1 305 46 is_stmt 0 view .LVU1799
	endbr64	
	pushq	%r15	#
	.cfi_def_cfa_offset 16
	.cfi_offset 15, -16
	pushq	%r14	#
	.cfi_def_cfa_offset 24
	.cfi_offset 14, -24
	pushq	%r13	#
	.cfi_def_cfa_offset 32
	.cfi_offset 13, -32
	pushq	%r12	#
	.cfi_def_cfa_offset 40
	.cfi_offset 12, -40
	pushq	%rbp	#
	.cfi_def_cfa_offset 48
	.cfi_offset 6, -48
	pushq	%rbx	#
	.cfi_def_cfa_offset 56
	.cfi_offset 3, -56
# peer.c:306:     int fd = (int)(intptr_t)arg;
	.loc 1 306 9 view .LVU1800
	movl	%edi, %ebx	# tmp151, fd
# peer.c:305: static void *server_client_thread(void *arg) {
	.loc 1 305 46 view .LVU1801
	subq	$120, %rsp	#,
	.cfi_def_cfa_offset 176
# peer.c:305: static void *server_client_thread(void *arg) {
	.loc 1 305 46 view .LVU1802
	movq	%fs:40, %rax	# MEM[(<address-space-1> long unsigned int *)40B], tmp164
	movq	%rax, 104(%rsp)	# tmp164, D.9301
	xorl	%eax, %eax	# tmp164
	.loc 1 306 5 is_stmt 1 view .LVU1803
.LVL596:
	.loc 1 306 5 is_stmt 0 view .LVU1804
	leaq	35(%rsp), %rax	#, tmp144
	leaq	36(%rsp), %r15	#, tmp146
	movq	%rax, 8(%rsp)	# tmp144, %sfp
	leaq	40(%rsp), %r14	#, tmp147
	jmp	.L415	#
.LVL597:
	.p2align 4,,10
	.p2align 3
.L427:
.LBB807:
# peer.c:312:         switch (t) {
	.loc 1 312 9 view .LVU1805
	cmpb	$34, %al	#, t.23_3
	jne	.L406	#,
	.loc 1 314 33 is_stmt 1 view .LVU1806
	movl	36(%rsp), %edx	# l,
	movq	%rdi, %rsi	# p,
	movl	%ebx, %edi	# fd,
	call	serve_get_chunk	#
.LVL598:
.L426:
	.loc 1 314 60 discriminator 1 view .LVU1807
	movq	40(%rsp), %rdi	# p, p
.L406:
	.loc 1 317 9 view .LVU1808
	call	free@PLT	#
.LVL599:
.LBE807:
	.loc 1 307 11 view .LVU1809
.L415:
	.loc 1 307 5 view .LVU1810
.LBB814:
	.loc 1 308 9 view .LVU1811
	.loc 1 309 9 view .LVU1812
# peer.c:311:         if (msg_recv(fd, &t, &p, &l) < 0) break;
	.loc 1 311 13 is_stmt 0 view .LVU1813
	movq	8(%rsp), %rsi	# %sfp,
	movq	%r15, %rcx	# tmp146,
	movq	%r14, %rdx	# tmp147,
	movl	%ebx, %edi	# fd,
# peer.c:309:         uint8_t *p = NULL;
	.loc 1 309 18 view .LVU1814
	movq	$0, 40(%rsp)	#, p
	.loc 1 310 9 is_stmt 1 view .LVU1815
# peer.c:310:         uint32_t l = 0;
	.loc 1 310 18 is_stmt 0 view .LVU1816
	movl	$0, 36(%rsp)	#, l
	.loc 1 311 9 is_stmt 1 view .LVU1817
# peer.c:311:         if (msg_recv(fd, &t, &p, &l) < 0) break;
	.loc 1 311 13 is_stmt 0 view .LVU1818
	call	msg_recv@PLT	#
.LVL600:
# peer.c:311:         if (msg_recv(fd, &t, &p, &l) < 0) break;
	.loc 1 311 12 discriminator 1 view .LVU1819
	testl	%eax, %eax	# tmp152
	js	.L403	#,
	.loc 1 312 9 is_stmt 1 view .LVU1820
	movzbl	35(%rsp), %eax	# t, t.23_3
# peer.c:313:             case MSG_GET_HAVE:  serve_get_have (fd, p, l); break;
	.loc 1 313 33 is_stmt 0 view .LVU1821
	movq	40(%rsp), %rdi	# p, p
# peer.c:312:         switch (t) {
	.loc 1 312 9 view .LVU1822
	cmpb	$32, %al	#, t.23_3
	jne	.L427	#,
	.loc 1 313 33 is_stmt 1 view .LVU1823
.LVL601:
.LBB808:
.LBI808:
	.loc 1 243 13 view .LVU1824
.LBB809:
	.loc 1 244 5 view .LVU1825
# peer.c:244:     const uint8_t *p = payload, *end = payload + plen;
	.loc 1 244 48 is_stmt 0 view .LVU1826
	movl	36(%rsp), %eax	# l, l.24_4
# peer.c:246:     if (buf_get_bytes(&p, end, fhash, HASH_SIZE) < 0) return;
	.loc 1 246 9 view .LVU1827
	leaq	64(%rsp), %r13	#, tmp149
# peer.c:244:     const uint8_t *p = payload, *end = payload + plen;
	.loc 1 244 20 view .LVU1828
	movq	%rdi, 48(%rsp)	# p, p
.LVL602:
	.loc 1 245 5 is_stmt 1 view .LVU1829
	.loc 1 246 5 view .LVU1830
# peer.c:246:     if (buf_get_bytes(&p, end, fhash, HASH_SIZE) < 0) return;
	.loc 1 246 9 is_stmt 0 view .LVU1831
	movl	$32, %ecx	#,
	movq	%r13, %rdx	# tmp149,
# peer.c:244:     const uint8_t *p = payload, *end = payload + plen;
	.loc 1 244 34 view .LVU1832
	leaq	(%rdi,%rax), %rsi	#, end
.LVL603:
# peer.c:246:     if (buf_get_bytes(&p, end, fhash, HASH_SIZE) < 0) return;
	.loc 1 246 9 view .LVU1833
	leaq	48(%rsp), %rdi	#, tmp116
.LVL604:
	.loc 1 246 9 view .LVU1834
	call	buf_get_bytes@PLT	#
.LVL605:
# peer.c:246:     if (buf_get_bytes(&p, end, fhash, HASH_SIZE) < 0) return;
	.loc 1 246 8 discriminator 1 view .LVU1835
	testl	%eax, %eax	# tmp153
	js	.L426	#,
	.loc 1 248 5 is_stmt 1 view .LVU1836
	leaq	shared_lock(%rip), %rdi	#,
	call	pthread_mutex_lock@PLT	#
.LVL606:
	.loc 1 249 5 view .LVU1837
.LBB810:
.LBI810:
	.loc 1 66 23 view .LVU1838
	.loc 1 67 5 view .LVU1839
.LBB811:
	.loc 1 67 10 view .LVU1840
# peer.c:67:     for (shared_file_t *f = shared_files; f; f = f->next)
	.loc 1 67 25 is_stmt 0 view .LVU1841
	movq	shared_files(%rip), %rcx	# shared_files, f
.LVL607:
	.loc 1 67 43 is_stmt 1 discriminator 1 view .LVU1842
	testq	%rcx, %rcx	# f
	jne	.L412	#,
	jmp	.L408	#
	.p2align 4,,10
	.p2align 3
.L420:
	.loc 1 67 48 discriminator 2 view .LVU1843
	movq	2368(%rcx), %rcx	# f_52->next, f
.LVL608:
	.loc 1 67 43 discriminator 1 view .LVU1844
	testq	%rcx, %rcx	# f
	je	.L408	#,
.L412:
	.loc 1 68 9 view .LVU1845
# peer.c:68:         if (memcmp(f->file_hash, hash, HASH_SIZE) == 0) return f;
	.loc 1 68 13 is_stmt 0 view .LVU1846
	movq	(%rcx), %rax	# MEM <char[1:32]> [(void *)f_52], tmp161
	movq	8(%rcx), %rdx	# MEM <char[1:32]> [(void *)f_52], tmp163
	xorq	0(%r13), %rax	# MEM <char[1:32]> [(void *)&fhash], tmp160
	xorq	8(%r13), %rdx	# MEM <char[1:32]> [(void *)&fhash], tmp162
	orq	%rdx, %rax	# tmp162, tmp160
	jne	.L420	#,
	.loc 1 68 13 view .LVU1847
	movq	16(%rcx), %rax	# MEM <char[1:32]> [(void *)f_52], tmp157
	movq	24(%rcx), %rdx	# MEM <char[1:32]> [(void *)f_52], tmp159
	xorq	16(%r13), %rax	# MEM <char[1:32]> [(void *)&fhash], tmp156
	xorq	24(%r13), %rdx	# MEM <char[1:32]> [(void *)&fhash], tmp158
	orq	%rdx, %rax	# tmp158, tmp156
	jne	.L420	#,
.LVL609:
	.loc 1 68 13 view .LVU1848
.LBE811:
.LBE810:
	.loc 1 250 5 is_stmt 1 view .LVU1849
# peer.c:250:     uint32_t  bflen = f ? BITFIELD_BYTES(f->chunk_count) : 0;
	.loc 1 250 27 is_stmt 0 discriminator 1 view .LVU1850
	movl	2348(%rcx), %eax	# f_52->chunk_count, tmp168
	movq	%rcx, 16(%rsp)	# f, %sfp
	leal	7(%rax), %ebp	#, tmp135
# peer.c:250:     uint32_t  bflen = f ? BITFIELD_BYTES(f->chunk_count) : 0;
	.loc 1 250 58 discriminator 1 view .LVU1851
	shrl	$3, %ebp	#, iftmp.29_33
.LVL610:
	.loc 1 251 5 is_stmt 1 view .LVU1852
	.loc 1 252 5 view .LVU1853
# peer.c:251:     size_t    cap   = HASH_SIZE + 4 + bflen;
	.loc 1 251 37 is_stmt 0 view .LVU1854
	leal	36(%rbp), %edi	#,
.LVL611:
# peer.c:252:     uint8_t  *buf   = malloc(cap), *w = buf;
	.loc 1 252 23 view .LVU1855
	call	malloc@PLT	#
.LVL612:
# peer.c:253:     buf_put_bytes(&w, fhash, HASH_SIZE);
	.loc 1 253 5 view .LVU1856
	movq	%r13, %rsi	# tmp149,
	movl	$32, %edx	#,
# peer.c:252:     uint8_t  *buf   = malloc(cap), *w = buf;
	.loc 1 252 37 discriminator 1 view .LVU1857
	movq	%rax, 56(%rsp)	# buf, w
# peer.c:252:     uint8_t  *buf   = malloc(cap), *w = buf;
	.loc 1 252 23 view .LVU1858
	movq	%rax, %r12	# tmp154, buf
.LVL613:
	.loc 1 253 5 is_stmt 1 view .LVU1859
	leaq	56(%rsp), %rax	#, tmp141
.LVL614:
	.loc 1 253 5 is_stmt 0 view .LVU1860
	movq	%rax, %r13	# tmp141, tmp141
	movq	%rax, %rdi	# tmp141,
	movq	%rax, 24(%rsp)	# tmp141, %sfp
	call	buf_put_bytes@PLT	#
.LVL615:
	.loc 1 254 5 is_stmt 1 view .LVU1861
	movl	%ebp, %esi	# iftmp.29_33,
	movq	%r13, %rdi	# tmp141,
	call	buf_put_u32@PLT	#
.LVL616:
	.loc 1 255 5 view .LVU1862
# peer.c:255:     if (f && bflen) buf_put_bytes(&w, f->bitfield, bflen);
	.loc 1 255 8 is_stmt 0 view .LVU1863
	testl	%ebp, %ebp	# iftmp.29_33
	je	.L413	#,
	movq	16(%rsp), %rcx	# %sfp, f
	.loc 1 255 21 is_stmt 1 discriminator 1 view .LVU1864
	movq	24(%rsp), %rdi	# %sfp,
	movl	%ebp, %edx	# iftmp.29_33, iftmp.29_33
	movq	2360(%rcx), %rsi	# f_52->bitfield, f_52->bitfield
	call	buf_put_bytes@PLT	#
.LVL617:
.L413:
	.loc 1 256 5 view .LVU1865
	leaq	shared_lock(%rip), %rdi	#,
	call	pthread_mutex_unlock@PLT	#
.LVL618:
	.loc 1 257 5 view .LVU1866
	movl	56(%rsp), %ecx	# w, tmp127
	movq	%r12, %rdx	# buf,
	movl	%ebx, %edi	# fd,
	movl	$33, %esi	#,
	subl	%r12d, %ecx	# buf, tmp127
	call	msg_send@PLT	#
.LVL619:
	.loc 1 258 5 view .LVU1867
	movq	%r12, %rdi	# buf,
	call	free@PLT	#
.LVL620:
	movq	40(%rsp), %rdi	# p, p
	jmp	.L406	#
.LVL621:
	.p2align 4,,10
	.p2align 3
.L403:
	.loc 1 258 5 is_stmt 0 view .LVU1868
.LBE809:
.LBE808:
.LBE814:
	.loc 1 319 5 is_stmt 1 view .LVU1869
	movl	%ebx, %edi	# fd,
	call	close@PLT	#
.LVL622:
	.loc 1 320 5 view .LVU1870
# peer.c:321: }
	.loc 1 321 1 is_stmt 0 view .LVU1871
	movq	104(%rsp), %rax	# D.9301, tmp165
	subq	%fs:40, %rax	# MEM[(<address-space-1> long unsigned int *)40B], tmp165
	jne	.L428	#,
	addq	$120, %rsp	#,
	.cfi_remember_state
	.cfi_def_cfa_offset 56
	xorl	%eax, %eax	#
	popq	%rbx	#
	.cfi_def_cfa_offset 48
	popq	%rbp	#
	.cfi_def_cfa_offset 40
	popq	%r12	#
	.cfi_def_cfa_offset 32
	popq	%r13	#
	.cfi_def_cfa_offset 24
	popq	%r14	#
	.cfi_def_cfa_offset 16
	popq	%r15	#
	.cfi_def_cfa_offset 8
	ret	
.LVL623:
	.p2align 4,,10
	.p2align 3
.L408:
	.cfi_restore_state
.LBB815:
.LBB813:
.LBB812:
	.loc 1 251 5 is_stmt 1 view .LVU1872
	.loc 1 252 5 view .LVU1873
# peer.c:253:     buf_put_bytes(&w, fhash, HASH_SIZE);
	.loc 1 253 5 is_stmt 0 view .LVU1874
	leaq	56(%rsp), %rbp	#, tmp133
# peer.c:252:     uint8_t  *buf   = malloc(cap), *w = buf;
	.loc 1 252 23 view .LVU1875
	movl	$36, %edi	#,
	call	malloc@PLT	#
.LVL624:
# peer.c:253:     buf_put_bytes(&w, fhash, HASH_SIZE);
	.loc 1 253 5 view .LVU1876
	movq	%r13, %rsi	# tmp149,
	movq	%rbp, %rdi	# tmp133,
	movl	$32, %edx	#,
# peer.c:252:     uint8_t  *buf   = malloc(cap), *w = buf;
	.loc 1 252 37 discriminator 1 view .LVU1877
	movq	%rax, 56(%rsp)	# buf, w
# peer.c:252:     uint8_t  *buf   = malloc(cap), *w = buf;
	.loc 1 252 23 view .LVU1878
	movq	%rax, %r12	# tmp155, buf
.LVL625:
	.loc 1 253 5 is_stmt 1 view .LVU1879
	call	buf_put_bytes@PLT	#
.LVL626:
	.loc 1 254 5 view .LVU1880
	xorl	%esi, %esi	#
	movq	%rbp, %rdi	# tmp133,
	call	buf_put_u32@PLT	#
.LVL627:
	.loc 1 255 5 view .LVU1881
	jmp	.L413	#
.LVL628:
.L428:
	.loc 1 255 5 is_stmt 0 view .LVU1882
.LBE812:
.LBE813:
.LBE815:
# peer.c:321: }
	.loc 1 321 1 view .LVU1883
	call	__stack_chk_fail@PLT	#
.LVL629:
	.cfi_endproc
.LFE89:
	.size	server_client_thread, .-server_client_thread
	.section	.rodata.str1.8
	.align 8
.LC55:
	.string	"usage: %s [--tracker host:port] [--port N] [--dir D] [--id NAME]\n"
	.section	.rodata.str1.1
.LC56:
	.string	"t:p:d:i:"
.LC57:
	.string	"rb"
.LC58:
	.string	"/dev/urandom"
	.section	.rodata.str1.8
	.align 8
.LC59:
	.string	"[ERR ] cannot listen on %u: %s\n"
	.align 8
.LC60:
	.string	"[INFO] peer %s on :%u, data dir '%s'\n"
	.align 8
.LC61:
	.string	"[INFO] registered with tracker %s:%u\n"
	.align 8
.LC62:
	.string	"[WARN] could not register with tracker (will retry per command)\n"
	.section	.text.startup,"ax",@progbits
	.p2align 4
	.globl	main
	.type	main, @function
main:
.LVL630:
.LFB108:
	.loc 1 863 33 is_stmt 1 view -0
	.cfi_startproc
	.loc 1 863 33 is_stmt 0 view .LVU1885
	endbr64	
	pushq	%r15	#
	.cfi_def_cfa_offset 16
	.cfi_offset 15, -16
	pushq	%r14	#
	.cfi_def_cfa_offset 24
	.cfi_offset 14, -24
# peer.c:876:     const char *id_seed = NULL;
	.loc 1 876 17 view .LVU1886
	xorl	%r14d, %r14d	# id_seed
# peer.c:863: int main(int argc, char **argv) {
	.loc 1 863 33 view .LVU1887
	pushq	%r13	#
	.cfi_def_cfa_offset 32
	.cfi_offset 13, -32
	leaq	opts.0(%rip), %r13	#, tmp224
	pushq	%r12	#
	.cfi_def_cfa_offset 40
	.cfi_offset 12, -40
	pushq	%rbp	#
	.cfi_def_cfa_offset 48
	.cfi_offset 6, -48
	movl	%edi, %ebp	# tmp229, argc
# peer.c:864:     signal(SIGPIPE, SIG_IGN);
	.loc 1 864 5 view .LVU1888
	movl	$13, %edi	#,
.LVL631:
# peer.c:863: int main(int argc, char **argv) {
	.loc 1 863 33 view .LVU1889
	pushq	%rbx	#
	.cfi_def_cfa_offset 56
	.cfi_offset 3, -56
	movq	%rsi, %rbx	# tmp230, argv
# peer.c:864:     signal(SIGPIPE, SIG_IGN);
	.loc 1 864 5 view .LVU1890
	movl	$1, %esi	#,
.LVL632:
# peer.c:863: int main(int argc, char **argv) {
	.loc 1 863 33 view .LVU1891
	subq	$40, %rsp	#,
	.cfi_def_cfa_offset 96
# peer.c:863: int main(int argc, char **argv) {
	.loc 1 863 33 view .LVU1892
	movq	%fs:40, %rax	# MEM[(<address-space-1> long unsigned int *)40B], tmp246
	movq	%rax, 24(%rsp)	# tmp246, D.9370
	xorl	%eax, %eax	# tmp246
	.loc 1 864 5 is_stmt 1 view .LVU1893
	call	signal@PLT	#
.LVL633:
	.loc 1 865 5 view .LVU1894
	movq	stdout(%rip), %rdi	# stdout,
	xorl	%ecx, %ecx	#
	xorl	%esi, %esi	#
	movl	$1, %edx	#,
	call	setvbuf@PLT	#
.LVL634:
	.loc 1 866 5 view .LVU1895
	movq	stderr(%rip), %rdi	# stderr,
	xorl	%ecx, %ecx	#
	xorl	%esi, %esi	#
	movl	$1, %edx	#,
	call	setvbuf@PLT	#
.LVL635:
	.loc 1 867 5 view .LVU1896
# peer.c:867:     srand((unsigned)time(NULL) ^ (unsigned)getpid());
	.loc 1 867 21 is_stmt 0 view .LVU1897
	xorl	%edi, %edi	#
	call	time@PLT	#
.LVL636:
	movq	%rax, %r12	# tmp231, _3
# peer.c:867:     srand((unsigned)time(NULL) ^ (unsigned)getpid());
	.loc 1 867 44 discriminator 1 view .LVU1898
	call	getpid@PLT	#
.LVL637:
# peer.c:867:     srand((unsigned)time(NULL) ^ (unsigned)getpid());
	.loc 1 867 5 discriminator 2 view .LVU1899
	xorl	%r12d, %eax	# _3, tmp232
	leaq	.LC56(%rip), %r12	#, tmp223
	movl	%eax, %edi	# tmp232, tmp156
	call	srand@PLT	#
.LVL638:
	.loc 1 869 5 is_stmt 1 view .LVU1900
	.loc 1 876 5 view .LVU1901
	.loc 1 877 5 view .LVU1902
	.loc 1 878 5 view .LVU1903
.L430:
	.loc 1 878 66 view .LVU1904
# peer.c:878:     while ((c = getopt_long(argc, argv, "t:p:d:i:", opts, NULL)) != -1) {
	.loc 1 878 17 is_stmt 0 view .LVU1905
	xorl	%r8d, %r8d	#
	movq	%r13, %rcx	# tmp224,
	movq	%r12, %rdx	# tmp223,
	movq	%rbx, %rsi	# argv,
	movl	%ebp, %edi	# argc,
	call	getopt_long@PLT	#
.LVL639:
# peer.c:878:     while ((c = getopt_long(argc, argv, "t:p:d:i:", opts, NULL)) != -1) {
	.loc 1 878 66 discriminator 1 view .LVU1906
	cmpl	$-1, %eax	#, c
	je	.L460	#,
	.loc 1 879 9 is_stmt 1 view .LVU1907
	cmpl	$112, %eax	#, c
	je	.L431	#,
	jg	.L432	#,
	cmpl	$100, %eax	#, c
	je	.L433	#,
	cmpl	$105, %eax	#, c
	jne	.L435	#,
	.loc 1 883 23 view .LVU1908
# peer.c:883:             case 'i': id_seed = optarg; break;
	.loc 1 883 31 is_stmt 0 view .LVU1909
	movq	optarg(%rip), %r14	# optarg, id_seed
.LVL640:
	.loc 1 883 41 is_stmt 1 view .LVU1910
	jmp	.L430	#
.LVL641:
	.p2align 4,,10
	.p2align 3
.L432:
# peer.c:879:         switch (c) {
	.loc 1 879 9 is_stmt 0 view .LVU1911
	cmpl	$116, %eax	#, c
	jne	.L435	#,
	.loc 1 880 23 is_stmt 1 view .LVU1912
	movq	optarg(%rip), %rcx	# optarg, optarg.2_8
.LVL642:
.LBB859:
.LBI859:
	.loc 1 775 12 view .LVU1913
.LBB860:
	.loc 1 776 5 view .LVU1914
# peer.c:776:     const char *colon = strchr(s, ':');
	.loc 1 776 25 is_stmt 0 view .LVU1915
	movl	$58, %esi	#,
	movq	%rcx, %rdi	# optarg.2_8,
	movq	%rcx, 8(%rsp)	# optarg.2_8, %sfp
	call	strchr@PLT	#
.LVL643:
# peer.c:777:     if (!colon) {
	.loc 1 777 8 view .LVU1916
	movq	8(%rsp), %rcx	# %sfp, optarg.2_8
	testq	%rax, %rax	# colon
# peer.c:776:     const char *colon = strchr(s, ':');
	.loc 1 776 25 view .LVU1917
	movq	%rax, %r15	# tmp233, colon
.LVL644:
	.loc 1 777 5 is_stmt 1 view .LVU1918
# peer.c:777:     if (!colon) {
	.loc 1 777 8 is_stmt 0 view .LVU1919
	je	.L461	#,
	.loc 1 780 5 is_stmt 1 view .LVU1920
# peer.c:780:     size_t n = (size_t)(colon - s);
	.loc 1 780 31 is_stmt 0 view .LVU1921
	movq	%rax, %rdx	# colon, n
	subq	%rcx, %rdx	# optarg.2_8, n
.LVL645:
	.loc 1 781 5 is_stmt 1 view .LVU1922
# peer.c:781:     if (n >= sizeof g_tracker_host) return -1;
	.loc 1 781 8 is_stmt 0 view .LVU1923
	cmpq	$255, %rdx	#, n
	ja	.L430	#,
	.loc 1 782 5 is_stmt 1 view .LVU1924
.LVL646:
.LBB861:
.LBI861:
	.loc 3 26 1 view .LVU1925
.LBB862:
	.loc 3 29 3 view .LVU1926
# /usr/include/x86_64-linux-gnu/bits/string_fortified.h:29:   return __builtin___memcpy_chk (__dest, __src, __len,
	.loc 3 29 10 is_stmt 0 discriminator 1 view .LVU1927
	movq	%rcx, %rsi	# optarg.2_8,
	leaq	g_tracker_host(%rip), %rdi	#, tmp159
	movq	%rdx, 8(%rsp)	# n, %sfp
.LVL647:
	.loc 3 29 10 discriminator 1 view .LVU1928
	call	memcpy@PLT	#
.LVL648:
	.loc 3 29 10 discriminator 1 view .LVU1929
.LBE862:
.LBE861:
	.loc 1 782 35 is_stmt 1 discriminator 1 view .LVU1930
# peer.c:782:     memcpy(g_tracker_host, s, n); g_tracker_host[n] = '\0';
	.loc 1 782 53 is_stmt 0 discriminator 1 view .LVU1931
	movq	8(%rsp), %rdx	# %sfp, n
# peer.c:783:     g_tracker_port = (uint16_t)atoi(colon + 1);
	.loc 1 783 32 view .LVU1932
	leaq	1(%r15), %rdi	#, tmp166
.LBB863:
.LBB864:
# /usr/include/stdlib.h:483:   return (int) strtol (__nptr, (char **) NULL, 10);
	.file 6 "/usr/include/stdlib.h"
	.loc 6 483 16 view .LVU1933
	xorl	%esi, %esi	#
.LBE864:
.LBE863:
# peer.c:782:     memcpy(g_tracker_host, s, n); g_tracker_host[n] = '\0';
	.loc 1 782 53 discriminator 1 view .LVU1934
	movb	$0, (%rax,%rdx)	#, g_tracker_host[n_90]
	.loc 1 783 5 is_stmt 1 view .LVU1935
.LVL649:
.LBB866:
.LBI863:
	.loc 6 481 1 view .LVU1936
.LBB865:
	.loc 6 483 3 view .LVU1937
# /usr/include/stdlib.h:483:   return (int) strtol (__nptr, (char **) NULL, 10);
	.loc 6 483 16 is_stmt 0 view .LVU1938
	movl	$10, %edx	#,
	call	__isoc23_strtol@PLT	#
.LVL650:
	.loc 6 483 16 view .LVU1939
.LBE865:
.LBE866:
# peer.c:783:     g_tracker_port = (uint16_t)atoi(colon + 1);
	.loc 1 783 22 discriminator 1 view .LVU1940
	movw	%ax, g_tracker_port(%rip)	# tmp234, g_tracker_port
	.loc 1 784 5 is_stmt 1 view .LVU1941
# peer.c:784:     return 0;
	.loc 1 784 12 is_stmt 0 view .LVU1942
	jmp	.L430	#
.LVL651:
	.p2align 4,,10
	.p2align 3
.L431:
	.loc 1 784 12 view .LVU1943
.LBE860:
.LBE859:
	.loc 1 881 23 is_stmt 1 view .LVU1944
.LBB870:
.LBI870:
	.loc 6 481 1 view .LVU1945
.LBB871:
	.loc 6 483 3 view .LVU1946
# /usr/include/stdlib.h:483:   return (int) strtol (__nptr, (char **) NULL, 10);
	.loc 6 483 16 is_stmt 0 view .LVU1947
	movq	optarg(%rip), %rdi	# optarg,
	movl	$10, %edx	#,
	xorl	%esi, %esi	#
	call	__isoc23_strtol@PLT	#
.LVL652:
	.loc 6 483 16 view .LVU1948
.LBE871:
.LBE870:
# peer.c:881:             case 'p': g_listen_port = (uint16_t)atoi(optarg); break;
	.loc 1 881 39 discriminator 1 view .LVU1949
	movw	%ax, g_listen_port(%rip)	# tmp235, g_listen_port
	.loc 1 881 63 is_stmt 1 discriminator 1 view .LVU1950
# peer.c:881:             case 'p': g_listen_port = (uint16_t)atoi(optarg); break;
	.loc 1 881 63 is_stmt 0 view .LVU1951
	jmp	.L430	#
.LVL653:
	.p2align 4,,10
	.p2align 3
.L435:
	.loc 1 885 17 is_stmt 1 view .LVU1952
.LBB872:
.LBI872:
	.loc 2 77 1 view .LVU1953
.LBB873:
	.loc 2 79 3 view .LVU1954
# /usr/include/x86_64-linux-gnu/bits/stdio2.h:79:   return __fprintf_chk (__stream, __USE_FORTIFY_LEVEL - 1, __fmt,
	.loc 2 79 10 is_stmt 0 view .LVU1955
	movq	(%rbx), %rcx	# *argv_58(D), *argv_58(D)
	movq	stderr(%rip), %rdi	# stderr,
	leaq	.LC55(%rip), %rdx	#, tmp173
	xorl	%eax, %eax	#
.LVL654:
	.loc 2 79 10 view .LVU1956
	movl	$2, %esi	#,
	call	__fprintf_chk@PLT	#
.LVL655:
	.loc 2 79 10 view .LVU1957
.LBE873:
.LBE872:
	.loc 1 888 17 is_stmt 1 view .LVU1958
.L439:
# peer.c:888:                 return 1;
	.loc 1 888 24 is_stmt 0 view .LVU1959
	movl	$1, %eax	#, <retval>
.L429:
# peer.c:920: }
	.loc 1 920 1 view .LVU1960
	movq	24(%rsp), %rdx	# D.9370, tmp247
	subq	%fs:40, %rdx	# MEM[(<address-space-1> long unsigned int *)40B], tmp247
	jne	.L462	#,
	addq	$40, %rsp	#,
	.cfi_remember_state
	.cfi_def_cfa_offset 56
	popq	%rbx	#
	.cfi_def_cfa_offset 48
	popq	%rbp	#
	.cfi_def_cfa_offset 40
	popq	%r12	#
	.cfi_def_cfa_offset 32
	popq	%r13	#
	.cfi_def_cfa_offset 24
	popq	%r14	#
	.cfi_def_cfa_offset 16
	popq	%r15	#
	.cfi_def_cfa_offset 8
	ret	
.LVL656:
	.p2align 4,,10
	.p2align 3
.L433:
	.cfi_restore_state
	.loc 1 882 23 is_stmt 1 view .LVU1961
.LBB874:
.LBI874:
	.loc 2 51 1 view .LVU1962
.LBB875:
	.loc 2 54 3 view .LVU1963
# /usr/include/x86_64-linux-gnu/bits/stdio2.h:54:   return __builtin___snprintf_chk (__s, __n, __USE_FORTIFY_LEVEL - 1,
	.loc 2 54 10 is_stmt 0 discriminator 1 view .LVU1964
	movq	optarg(%rip), %rcx	# optarg,
	leaq	.LC1(%rip), %rdx	#, tmp169
	movl	$1024, %esi	#,
	xorl	%eax, %eax	#
.LVL657:
	.loc 2 54 10 discriminator 1 view .LVU1965
	leaq	g_data_dir(%rip), %rdi	#, tmp170
	call	snprintf@PLT	#
.LVL658:
	.loc 2 54 10 discriminator 1 view .LVU1966
.LBE875:
.LBE874:
	.loc 1 882 78 is_stmt 1 discriminator 1 view .LVU1967
.LBB877:
.LBB876:
# /usr/include/x86_64-linux-gnu/bits/stdio2.h:54:   return __builtin___snprintf_chk (__s, __n, __USE_FORTIFY_LEVEL - 1,
	.loc 2 54 10 is_stmt 0 view .LVU1968
	jmp	.L430	#
.LVL659:
.L460:
	.loc 2 54 10 view .LVU1969
.LBE876:
.LBE877:
	.loc 1 892 5 is_stmt 1 view .LVU1970
# peer.c:892:     if (g_listen_port == 0) g_listen_port = (uint16_t)(7000 + (rand() % 1000));
	.loc 1 892 8 is_stmt 0 view .LVU1971
	cmpw	$0, g_listen_port(%rip)	#, g_listen_port
	je	.L463	#,
.LVL660:
.L441:
	.loc 1 893 5 is_stmt 1 view .LVU1972
	movl	$493, %esi	#,
	leaq	g_data_dir(%rip), %rdi	#, tmp181
.LBB878:
.LBB879:
.LBB880:
.LBB881:
# /usr/include/x86_64-linux-gnu/bits/string_fortified.h:59:   return __builtin___memset_chk (__dest, __ch, __len,
	.loc 3 59 10 is_stmt 0 discriminator 1 view .LVU1973
	leaq	g_peer_id(%rip), %rbp	#, ivtmp.461
.LVL661:
	.loc 3 59 10 discriminator 1 view .LVU1974
.LBE881:
.LBE880:
.LBE879:
.LBE878:
# peer.c:893:     mkdir(g_data_dir, 0755);
	.loc 1 893 5 view .LVU1975
	call	mkdir@PLT	#
.LVL662:
	.loc 1 894 5 is_stmt 1 view .LVU1976
.LBB912:
.LBI878:
	.loc 1 787 13 view .LVU1977
.LBB908:
	.loc 1 788 5 view .LVU1978
.LBB883:
.LBI880:
	.loc 3 57 1 view .LVU1979
.LBB882:
	.loc 3 59 3 view .LVU1980
# /usr/include/x86_64-linux-gnu/bits/string_fortified.h:59:   return __builtin___memset_chk (__dest, __ch, __len,
	.loc 3 59 10 is_stmt 0 discriminator 1 view .LVU1981
	pxor	%xmm0, %xmm0	# tmp183
	movaps	%xmm0, g_peer_id(%rip)	# tmp183, MEM <char[1:16]> [(void *)&g_peer_id]
.LVL663:
	.loc 3 59 10 discriminator 1 view .LVU1982
.LBE882:
.LBE883:
	.loc 1 789 5 is_stmt 1 view .LVU1983
# peer.c:789:     if (seed && *seed) {
	.loc 1 789 8 is_stmt 0 view .LVU1984
	testq	%r14, %r14	# id_seed
	je	.L442	#,
# peer.c:789:     if (seed && *seed) {
	.loc 1 789 14 discriminator 1 view .LVU1985
	cmpb	$0, (%r14)	#, *id_seed_42
	jne	.L464	#,
.L442:
.LBB884:
	.loc 1 794 9 is_stmt 1 view .LVU1986
# peer.c:794:         FILE *f = fopen("/dev/urandom", "rb");
	.loc 1 794 19 is_stmt 0 view .LVU1987
	leaq	.LC57(%rip), %rsi	#, tmp193
	leaq	.LC58(%rip), %rdi	#, tmp194
	call	fopen@PLT	#
.LVL664:
	movq	%rax, %rbx	# tmp239, tmp195
.LVL665:
	.loc 1 795 9 is_stmt 1 view .LVU1988
# peer.c:795:         if (f) {
	.loc 1 795 12 is_stmt 0 view .LVU1989
	testq	%rax, %rax	# tmp195
	je	.L444	#,
.LBB885:
	.loc 1 796 13 is_stmt 1 view .LVU1990
.LVL666:
.LBB886:
.LBI886:
	.loc 2 207 1 view .LVU1991
.LBB887:
	.loc 2 210 3 view .LVU1992
	.loc 2 211 3 view .LVU1993
	.loc 2 212 5 view .LVU1994
# /usr/include/x86_64-linux-gnu/bits/stdio2.h:212:     return __fread_alias (__ptr, __size, __n, __stream);
	.loc 2 212 12 is_stmt 0 view .LVU1995
	movq	%rax, %rcx	# tmp195,
	movl	$16, %edx	#,
	movl	$1, %esi	#,
	movq	%rbp, %rdi	# ivtmp.461,
	call	fread@PLT	#
.LVL667:
	.loc 2 212 12 view .LVU1996
.LBE887:
.LBE886:
	.loc 1 797 13 is_stmt 1 view .LVU1997
	.loc 1 798 13 view .LVU1998
	movq	%rbx, %rdi	# tmp195,
	leaq	16+g_peer_id(%rip), %r12	#, _143
	call	fclose@PLT	#
.LVL668:
	.loc 1 798 13 is_stmt 0 view .LVU1999
.LBE885:
.LBE884:
.LBB889:
	.loc 1 804 23 is_stmt 1 discriminator 1 view .LVU2000
.L443:
	.loc 1 804 23 is_stmt 0 discriminator 1 view .LVU2001
	leaq	g_peer_id(%rip), %rbp	#, ivtmp.461
.LBE889:
.LBE908:
.LBE912:
# peer.c:876:     const char *id_seed = NULL;
	.loc 1 876 17 view .LVU2002
	movl	$33, %ebx	#, ivtmp.463
	leaq	33+g_peer_id_str(%rip), %r14	#, tmp227
.LVL669:
.LBB913:
.LBB909:
.LBB898:
.LBB890:
.LBB891:
# /usr/include/x86_64-linux-gnu/bits/stdio2.h:54:   return __builtin___snprintf_chk (__s, __n, __USE_FORTIFY_LEVEL - 1,
	.loc 2 54 10 discriminator 1 view .LVU2003
	leaq	.LC29(%rip), %r13	#, tmp228
	.p2align 4,,10
	.p2align 3
.L446:
.LVL670:
	.loc 2 54 10 discriminator 1 view .LVU2004
.LBE891:
.LBE890:
	.loc 1 805 9 is_stmt 1 view .LVU2005
.LBB895:
.LBI890:
	.loc 2 51 1 view .LVU2006
.LBB892:
	.loc 2 54 3 view .LVU2007
# /usr/include/x86_64-linux-gnu/bits/stdio2.h:54:   return __builtin___snprintf_chk (__s, __n, __USE_FORTIFY_LEVEL - 1,
	.loc 2 54 10 is_stmt 0 discriminator 1 view .LVU2008
	movzbl	0(%rbp), %r9d	# MEM[(unsigned char *)_135],
.LBE892:
.LBE895:
# peer.c:805:         snprintf(g_peer_id_str + i * 2, 3, "%02x", g_peer_id[i]);
	.loc 1 805 9 view .LVU2009
	movq	%r14, %rdi	# tmp227, tmp200
.LBB896:
.LBB893:
# /usr/include/x86_64-linux-gnu/bits/stdio2.h:54:   return __builtin___snprintf_chk (__s, __n, __USE_FORTIFY_LEVEL - 1,
	.loc 2 54 10 discriminator 1 view .LVU2010
	movq	%rbx, %rcx	# ivtmp.463,
	movq	%r13, %r8	# tmp228,
.LBE893:
.LBE896:
# peer.c:805:         snprintf(g_peer_id_str + i * 2, 3, "%02x", g_peer_id[i]);
	.loc 1 805 9 view .LVU2011
	subq	%rbx, %rdi	# ivtmp.463, tmp200
.LBB897:
.LBB894:
# /usr/include/x86_64-linux-gnu/bits/stdio2.h:54:   return __builtin___snprintf_chk (__s, __n, __USE_FORTIFY_LEVEL - 1,
	.loc 2 54 10 discriminator 1 view .LVU2012
	movl	$2, %edx	#,
	movl	$3, %esi	#,
	xorl	%eax, %eax	#
	call	__snprintf_chk@PLT	#
.LVL671:
	.loc 2 54 10 discriminator 1 view .LVU2013
.LBE894:
.LBE897:
	.loc 1 804 40 is_stmt 1 discriminator 3 view .LVU2014
	.loc 1 804 23 discriminator 1 view .LVU2015
	addq	$1, %rbp	#, ivtmp.461
.LVL672:
	.loc 1 804 23 is_stmt 0 discriminator 1 view .LVU2016
	subq	$2, %rbx	#, ivtmp.463
	cmpq	%r12, %rbp	# _143, ivtmp.461
	jne	.L446	#,
.LVL673:
	.loc 1 804 23 discriminator 1 view .LVU2017
.LBE898:
.LBE909:
.LBE913:
	.loc 1 896 5 is_stmt 1 view .LVU2018
# peer.c:896:     int srv = tcp_listen(g_listen_port);
	.loc 1 896 15 is_stmt 0 view .LVU2019
	movzwl	g_listen_port(%rip), %edi	# g_listen_port, g_listen_port
	call	tcp_listen@PLT	#
.LVL674:
	movl	%eax, %ebx	# tmp241, srv
.LVL675:
	.loc 1 897 5 is_stmt 1 view .LVU2020
# peer.c:897:     if (srv < 0) {
	.loc 1 897 8 is_stmt 0 view .LVU2021
	testl	%eax, %eax	# srv
	js	.L465	#,
	.loc 1 901 5 is_stmt 1 view .LVU2022
.LVL676:
.LBB914:
.LBI914:
	.loc 2 77 1 view .LVU2023
.LBB915:
	.loc 2 79 3 view .LVU2024
# /usr/include/x86_64-linux-gnu/bits/stdio2.h:79:   return __fprintf_chk (__stream, __USE_FORTIFY_LEVEL - 1, __fmt,
	.loc 2 79 10 is_stmt 0 view .LVU2025
	movq	stderr(%rip), %rdi	# stderr,
	leaq	g_data_dir(%rip), %r9	#,
	xorl	%eax, %eax	#
.LVL677:
	.loc 2 79 10 view .LVU2026
	movzwl	g_listen_port(%rip), %r8d	# g_listen_port,
	leaq	g_peer_id_str(%rip), %rcx	#, tmp222
	leaq	.LC60(%rip), %rdx	#, tmp208
	movl	$2, %esi	#,
	call	__fprintf_chk@PLT	#
.LVL678:
	.loc 2 79 10 view .LVU2027
.LBE915:
.LBE914:
	.loc 1 903 5 is_stmt 1 view .LVU2028
	.loc 1 904 5 view .LVU2029
	xorl	%esi, %esi	#
# peer.c:904:     pthread_create(&lt, NULL, listener_thread, (void *)(intptr_t)srv);
	.loc 1 904 56 is_stmt 0 view .LVU2030
	movslq	%ebx, %rcx	# srv, srv
# peer.c:904:     pthread_create(&lt, NULL, listener_thread, (void *)(intptr_t)srv);
	.loc 1 904 5 view .LVU2031
	leaq	16(%rsp), %rdi	#, tmp210
	leaq	listener_thread(%rip), %rdx	#, tmp211
	call	pthread_create@PLT	#
.LVL679:
	.loc 1 905 5 is_stmt 1 view .LVU2032
	movq	16(%rsp), %rdi	# lt,
	call	pthread_detach@PLT	#
.LVL680:
	.loc 1 907 5 view .LVU2033
# peer.c:907:     if (ensure_tracker() == 0)
	.loc 1 907 9 is_stmt 0 view .LVU2034
	call	ensure_tracker	#
.LVL681:
# peer.c:907:     if (ensure_tracker() == 0)
	.loc 1 907 8 discriminator 1 view .LVU2035
	testl	%eax, %eax	# tmp244
	jne	.L448	#,
	.loc 1 908 9 is_stmt 1 view .LVU2036
.LVL682:
.LBB916:
.LBI916:
	.loc 2 77 1 view .LVU2037
.LBB917:
	.loc 2 79 3 view .LVU2038
# /usr/include/x86_64-linux-gnu/bits/stdio2.h:79:   return __fprintf_chk (__stream, __USE_FORTIFY_LEVEL - 1, __fmt,
	.loc 2 79 10 is_stmt 0 view .LVU2039
	movzwl	g_tracker_port(%rip), %r8d	# g_tracker_port,
	movq	stderr(%rip), %rdi	# stderr,
	leaq	g_tracker_host(%rip), %rcx	#, tmp215
	leaq	.LC61(%rip), %rdx	#, tmp216
	movl	$2, %esi	#,
	call	__fprintf_chk@PLT	#
.LVL683:
.L449:
	.loc 2 79 10 view .LVU2040
.LBE917:
.LBE916:
	.loc 1 913 5 is_stmt 1 view .LVU2041
	call	cli_loop	#
.LVL684:
	.loc 1 915 5 view .LVU2042
# peer.c:915:     if (g_tracker_fd >= 0) {
	.loc 1 915 22 is_stmt 0 view .LVU2043
	movl	g_tracker_fd(%rip), %edi	# g_tracker_fd, g_tracker_fd.16_39
# peer.c:915:     if (g_tracker_fd >= 0) {
	.loc 1 915 8 view .LVU2044
	testl	%edi, %edi	# g_tracker_fd.16_39
	jns	.L450	#,
# peer.c:919:     return 0;
	.loc 1 919 12 view .LVU2045
	xorl	%eax, %eax	# <retval>
	jmp	.L429	#
.LVL685:
.L463:
	.loc 1 892 29 is_stmt 1 discriminator 1 view .LVU2046
# peer.c:892:     if (g_listen_port == 0) g_listen_port = (uint16_t)(7000 + (rand() % 1000));
	.loc 1 892 64 is_stmt 0 discriminator 1 view .LVU2047
	call	rand@PLT	#
.LVL686:
# peer.c:892:     if (g_listen_port == 0) g_listen_port = (uint16_t)(7000 + (rand() % 1000));
	.loc 1 892 71 discriminator 1 view .LVU2048
	movl	$1000, %ecx	#, tmp179
	cltd
	idivl	%ecx	# tmp179
# peer.c:892:     if (g_listen_port == 0) g_listen_port = (uint16_t)(7000 + (rand() % 1000));
	.loc 1 892 45 discriminator 1 view .LVU2049
	addw	$7000, %dx	#, tmp180
	movw	%dx, g_listen_port(%rip)	# tmp180, g_listen_port
	jmp	.L441	#
.LVL687:
.L450:
	.loc 1 916 9 is_stmt 1 view .LVU2050
	xorl	%ecx, %ecx	#
	xorl	%edx, %edx	#
	movl	$11, %esi	#,
	call	msg_send@PLT	#
.LVL688:
	.loc 1 917 9 view .LVU2051
	movl	g_tracker_fd(%rip), %edi	# g_tracker_fd,
	call	close@PLT	#
.LVL689:
# peer.c:919:     return 0;
	.loc 1 919 12 is_stmt 0 view .LVU2052
	xorl	%eax, %eax	# <retval>
	jmp	.L429	#
.L448:
	.loc 1 911 9 is_stmt 1 view .LVU2053
.LVL690:
.LBB918:
.LBI918:
	.loc 2 77 1 view .LVU2054
.LBB919:
	.loc 2 79 3 view .LVU2055
# /usr/include/x86_64-linux-gnu/bits/stdio2.h:79:   return __fprintf_chk (__stream, __USE_FORTIFY_LEVEL - 1, __fmt,
	.loc 2 79 10 is_stmt 0 view .LVU2056
	movq	stderr(%rip), %rcx	# stderr,
	movl	$64, %edx	#,
	movl	$1, %esi	#,
	leaq	.LC62(%rip), %rdi	#, tmp218
	call	fwrite@PLT	#
.LVL691:
	.loc 2 79 10 view .LVU2057
	jmp	.L449	#
.LVL692:
.L461:
	.loc 2 79 10 view .LVU2058
.LBE919:
.LBE918:
.LBB920:
.LBB869:
	.loc 1 778 9 is_stmt 1 view .LVU2059
.LBB867:
.LBI867:
	.loc 2 51 1 view .LVU2060
.LBB868:
	.loc 2 54 3 view .LVU2061
# /usr/include/x86_64-linux-gnu/bits/stdio2.h:54:   return __builtin___snprintf_chk (__s, __n, __USE_FORTIFY_LEVEL - 1,
	.loc 2 54 10 is_stmt 0 discriminator 1 view .LVU2062
	leaq	.LC1(%rip), %rdx	#, tmp157
	movl	$256, %esi	#,
	leaq	g_tracker_host(%rip), %rdi	#, tmp158
	xorl	%eax, %eax	#
.LVL693:
	.loc 2 54 10 discriminator 1 view .LVU2063
	call	snprintf@PLT	#
.LVL694:
	.loc 2 54 10 discriminator 1 view .LVU2064
.LBE868:
.LBE867:
	.loc 1 778 67 is_stmt 1 discriminator 1 view .LVU2065
# peer.c:778:         snprintf(g_tracker_host, sizeof g_tracker_host, "%s", s); return 0;
	.loc 1 778 74 is_stmt 0 view .LVU2066
	jmp	.L430	#
.LVL695:
.L464:
	.loc 1 778 74 view .LVU2067
.LBE869:
.LBE920:
.LBB921:
.LBB910:
.LBB899:
	.loc 1 790 9 is_stmt 1 view .LVU2068
# peer.c:790:         size_t n = strlen(seed);
	.loc 1 790 20 is_stmt 0 view .LVU2069
	movq	%r14, %rdi	# id_seed,
	leaq	16(%rbp), %r12	#, _143
	call	strlen@PLT	#
.LVL696:
	.loc 1 791 9 is_stmt 1 view .LVU2070
	.loc 1 792 9 view .LVU2071
.LBB900:
.LBI900:
	.loc 3 26 1 view .LVU2072
.LBB901:
	.loc 3 29 3 view .LVU2073
.LBE901:
.LBE900:
# peer.c:791:         if (n > PEER_ID_SIZE) n = PEER_ID_SIZE;
	.loc 1 791 12 is_stmt 0 view .LVU2074
	movl	$16, %edx	#, tmp245
.LBB904:
.LBB902:
# /usr/include/x86_64-linux-gnu/bits/string_fortified.h:29:   return __builtin___memcpy_chk (__dest, __src, __len,
	.loc 3 29 10 discriminator 1 view .LVU2075
	movq	%rbp, %rdi	# ivtmp.461, ivtmp.461
	movq	%r14, %rsi	# id_seed, id_seed
.LBE902:
.LBE904:
# peer.c:791:         if (n > PEER_ID_SIZE) n = PEER_ID_SIZE;
	.loc 1 791 12 view .LVU2076
	cmpq	%rdx, %rax	# tmp245, tmp238
	cmova	%rdx, %rax	# tmp238,, tmp245, tmp188
.LVL697:
.LBB905:
.LBB903:
# /usr/include/x86_64-linux-gnu/bits/string_fortified.h:29:   return __builtin___memcpy_chk (__dest, __src, __len,
	.loc 3 29 10 discriminator 1 view .LVU2077
	movl	%eax, %ecx	# tmp188, tmp192
	rep movsb
.LVL698:
	.loc 3 29 10 discriminator 1 view .LVU2078
.LBE903:
.LBE905:
.LBE899:
.LBB906:
	.loc 1 804 23 is_stmt 1 discriminator 1 view .LVU2079
	jmp	.L443	#
.LVL699:
.L465:
	.loc 1 804 23 is_stmt 0 discriminator 1 view .LVU2080
.LBE906:
.LBE910:
.LBE921:
	.loc 1 898 9 is_stmt 1 view .LVU2081
	call	__errno_location@PLT	#
.LVL700:
# peer.c:898:         LOG_ERR("cannot listen on %u: %s", g_listen_port, strerror(errno));
	.loc 1 898 9 is_stmt 0 discriminator 1 view .LVU2082
	movl	(%rax), %edi	# *_22,
	call	strerror@PLT	#
.LVL701:
.LBB922:
.LBI922:
	.loc 2 77 1 is_stmt 1 view .LVU2083
.LBB923:
	.loc 2 79 3 view .LVU2084
.LBE923:
.LBE922:
# peer.c:898:         LOG_ERR("cannot listen on %u: %s", g_listen_port, strerror(errno));
	.loc 1 898 9 is_stmt 0 discriminator 2 view .LVU2085
	movzwl	g_listen_port(%rip), %ecx	# g_listen_port, g_listen_port
.LBB926:
.LBB924:
# /usr/include/x86_64-linux-gnu/bits/stdio2.h:79:   return __fprintf_chk (__stream, __USE_FORTIFY_LEVEL - 1, __fmt,
	.loc 2 79 10 view .LVU2086
	movl	$2, %esi	#,
	movq	stderr(%rip), %rdi	# stderr,
.LBE924:
.LBE926:
# peer.c:898:         LOG_ERR("cannot listen on %u: %s", g_listen_port, strerror(errno));
	.loc 1 898 9 discriminator 1 view .LVU2087
	movq	%rax, %r8	#, tmp243
.LBB927:
.LBB925:
# /usr/include/x86_64-linux-gnu/bits/stdio2.h:79:   return __fprintf_chk (__stream, __USE_FORTIFY_LEVEL - 1, __fmt,
	.loc 2 79 10 view .LVU2088
	leaq	.LC59(%rip), %rdx	#, tmp204
	xorl	%eax, %eax	#
	call	__fprintf_chk@PLT	#
.LVL702:
	.loc 2 79 10 view .LVU2089
.LBE925:
.LBE927:
	.loc 1 899 9 is_stmt 1 view .LVU2090
# peer.c:899:         return 1;
	.loc 1 899 16 is_stmt 0 view .LVU2091
	jmp	.L439	#
.LVL703:
.L462:
# peer.c:920: }
	.loc 1 920 1 view .LVU2092
	call	__stack_chk_fail@PLT	#
.LVL704:
.L444:
	.loc 1 920 1 view .LVU2093
	leaq	g_peer_id(%rip), %rbx	#, ivtmp.471
	leaq	16(%rbx), %r12	#, _143
.LVL705:
.L445:
.LBB928:
.LBB911:
.LBB907:
.LBB888:
	.loc 1 801 17 is_stmt 1 view .LVU2094
# peer.c:801:                 g_peer_id[i] = (uint8_t)(rand() & 0xff);
	.loc 1 801 42 is_stmt 0 view .LVU2095
	call	rand@PLT	#
.LVL706:
# peer.c:800:             for (int i = 0; i < PEER_ID_SIZE; i++)
	.loc 1 800 31 discriminator 1 view .LVU2096
	addq	$1, %rbx	#, ivtmp.471
.LVL707:
# peer.c:801:                 g_peer_id[i] = (uint8_t)(rand() & 0xff);
	.loc 1 801 32 discriminator 1 view .LVU2097
	movb	%al, -1(%rbx)	# tmp240, MEM[(unsigned char *)_147]
	.loc 1 800 48 is_stmt 1 discriminator 3 view .LVU2098
.LVL708:
	.loc 1 800 31 discriminator 1 view .LVU2099
	cmpq	%r12, %rbx	# _143, ivtmp.471
	jne	.L445	#,
	jmp	.L443	#
.LBE888:
.LBE907:
.LBE911:
.LBE928:
	.cfi_endproc
.LFE108:
	.size	main, .-main
	.section	.rodata.str1.1
.LC63:
	.string	"tracker"
.LC64:
	.string	"port"
.LC65:
	.string	"dir"
.LC66:
	.string	"id"
	.section	.data.rel.local,"aw"
	.align 32
	.type	opts.0, @object
	.size	opts.0, 160
opts.0:
# name:
	.quad	.LC63
# has_arg:
	.long	1
# flag:
	.zero	4
	.quad	0
# val:
	.long	116
	.zero	4
# name:
	.quad	.LC64
# has_arg:
	.long	1
# flag:
	.zero	4
	.quad	0
# val:
	.long	112
	.zero	4
# name:
	.quad	.LC65
# has_arg:
	.long	1
# flag:
	.zero	4
	.quad	0
# val:
	.long	100
	.zero	4
# name:
	.quad	.LC66
# has_arg:
	.long	1
# flag:
	.zero	4
	.quad	0
# val:
	.long	105
	.zero	4
# name:
	.quad	0
# has_arg:
	.long	0
# flag:
	.zero	4
	.quad	0
# val:
	.long	0
	.zero	4
	.local	g_quit
	.comm	g_quit,4,4
	.local	g_tracker_lock
	.comm	g_tracker_lock,40,32
	.data
	.align 4
	.type	g_tracker_fd, @object
	.size	g_tracker_fd, 4
g_tracker_fd:
	.long	-1
	.local	g_peer_id_str
	.comm	g_peer_id_str,33,32
	.local	g_peer_id
	.comm	g_peer_id,16,16
	.align 32
