	.file	"tracker.c"
# GNU C17 (Ubuntu 13.3.0-6ubuntu2~24.04.1) version 13.3.0 (x86_64-linux-gnu)
#	compiled by GNU C version 13.3.0, GMP version 6.3.0, MPFR version 4.2.1, MPC version 1.3.1, isl version isl-0.26-GMP

# GGC heuristics: --param ggc-min-expand=100 --param ggc-min-heapsize=131072
# options passed: -mtune=generic -march=x86-64 -g -O2 -fasynchronous-unwind-tables -fstack-protector-strong -fstack-clash-protection -fcf-protection
	.text
.Ltext0:
	.file 0 "/home/dev/Project/socket" "tracker.c"
	.section	.rodata.str1.1,"aMS",@progbits,1
.LC0:
	.string	"%s"
	.section	.rodata.str1.8,"aMS",@progbits,1
	.align 8
.LC1:
	.string	"[INFO] ANNOUNCE %.16s\342\200\246 '%s' (%llu B, %u chunks) from %s:%u\n"
	.text
	.p2align 4
	.type	handle_announce, @function
handle_announce:
.LVL0:
.LFB80:
	.file 1 "tracker.c"
	.loc 1 133 71 view -0
	.cfi_startproc
	.loc 1 133 71 is_stmt 0 view .LVU1
	pushq	%r15	#
	.cfi_def_cfa_offset 16
	.cfi_offset 15, -16
# tracker.c:134:     const uint8_t *p = payload, *end = payload + plen;
	.loc 1 134 48 view .LVU2
	movl	%edx, %edx	# tmp205, plen
# tracker.c:137:     char     filename[MAX_FILENAME + 1] = {0};
	.loc 1 137 14 view .LVU3
	pxor	%xmm0, %xmm0	# tmp187
# tracker.c:133:                             uint32_t client_ip, uint16_t client_port) {
	.loc 1 133 71 view .LVU4
	pushq	%r14	#
	.cfi_def_cfa_offset 24
	.cfi_offset 14, -24
	movl	%r9d, %r14d	# tmp208, client_port
	pushq	%r13	#
	.cfi_def_cfa_offset 32
	.cfi_offset 13, -32
	pushq	%r12	#
	.cfi_def_cfa_offset 40
	.cfi_offset 12, -40
	movq	%rcx, %r12	# tmp206, peer_id
# tracker.c:141:     if (buf_get_bytes(&p, end, fhash, HASH_SIZE)         < 0 ||
	.loc 1 141 9 view .LVU5
	movl	$32, %ecx	#,
.LVL1:
# tracker.c:133:                             uint32_t client_ip, uint16_t client_port) {
	.loc 1 133 71 view .LVU6
	pushq	%rbp	#
	.cfi_def_cfa_offset 48
	.cfi_offset 6, -48
	movl	%edi, %ebp	# tmp203, fd
	pushq	%rbx	#
	.cfi_def_cfa_offset 56
	.cfi_offset 3, -56
# tracker.c:134:     const uint8_t *p = payload, *end = payload + plen;
	.loc 1 134 34 view .LVU7
	leaq	(%rsi,%rdx), %rbx	#, end
# tracker.c:133:                             uint32_t client_ip, uint16_t client_port) {
	.loc 1 133 71 view .LVU8
	subq	$456, %rsp	#,
	.cfi_def_cfa_offset 512
# tracker.c:133:                             uint32_t client_ip, uint16_t client_port) {
	.loc 1 133 71 view .LVU9
	movl	%r8d, 4(%rsp)	# tmp207, %sfp
# tracker.c:141:     if (buf_get_bytes(&p, end, fhash, HASH_SIZE)         < 0 ||
	.loc 1 141 9 view .LVU10
	leaq	64(%rsp), %r15	#, tmp184
	leaq	48(%rsp), %r13	#, tmp134
	movq	%r15, %rdx	# tmp184,
.LVL2:
	.loc 1 141 9 view .LVU11
	movq	%r13, %rdi	# tmp134,
.LVL3:
# tracker.c:133:                             uint32_t client_ip, uint16_t client_port) {
	.loc 1 133 71 view .LVU12
	movq	%fs:40, %rax	# MEM[(<address-space-1> long unsigned int *)40B], tmp231
	movq	%rax, 440(%rsp)	# tmp231, D.7290
	xorl	%eax, %eax	# tmp231
	.loc 1 134 5 is_stmt 1 view .LVU13
.LVL4:
	.loc 1 135 5 view .LVU14
	.loc 1 136 5 view .LVU15
	.loc 1 137 5 view .LVU16
# tracker.c:134:     const uint8_t *p = payload, *end = payload + plen;
	.loc 1 134 20 is_stmt 0 view .LVU17
	movq	%rsi, 48(%rsp)	# payload, p
# tracker.c:141:     if (buf_get_bytes(&p, end, fhash, HASH_SIZE)         < 0 ||
	.loc 1 141 9 view .LVU18
	movq	%rbx, %rsi	# end,
.LVL5:
# tracker.c:137:     char     filename[MAX_FILENAME + 1] = {0};
	.loc 1 137 14 view .LVU19
	movaps	%xmm0, 176(%rsp)	# tmp187, filename
	movaps	%xmm0, 192(%rsp)	# tmp187, filename
	movaps	%xmm0, 208(%rsp)	# tmp187, filename
	movaps	%xmm0, 224(%rsp)	# tmp187, filename
	movaps	%xmm0, 240(%rsp)	# tmp187, filename
	movaps	%xmm0, 256(%rsp)	# tmp187, filename
	movaps	%xmm0, 272(%rsp)	# tmp187, filename
	movaps	%xmm0, 288(%rsp)	# tmp187, filename
	movaps	%xmm0, 304(%rsp)	# tmp187, filename
	movaps	%xmm0, 320(%rsp)	# tmp187, filename
	movaps	%xmm0, 336(%rsp)	# tmp187, filename
	movaps	%xmm0, 352(%rsp)	# tmp187, filename
	movaps	%xmm0, 368(%rsp)	# tmp187, filename
	movaps	%xmm0, 384(%rsp)	# tmp187, filename
	movaps	%xmm0, 400(%rsp)	# tmp187, filename
	movaps	%xmm0, 416(%rsp)	# tmp187, filename
	.loc 1 138 5 is_stmt 1 view .LVU20
	.loc 1 139 5 view .LVU21
	.loc 1 141 5 view .LVU22
# tracker.c:141:     if (buf_get_bytes(&p, end, fhash, HASH_SIZE)         < 0 ||
	.loc 1 141 9 is_stmt 0 view .LVU23
	call	buf_get_bytes@PLT	#
.LVL6:
# tracker.c:141:     if (buf_get_bytes(&p, end, fhash, HASH_SIZE)         < 0 ||
	.loc 1 141 8 discriminator 1 view .LVU24
	testl	%eax, %eax	# tmp209
	js	.L35	#,
# tracker.c:142:         buf_get_u16  (&p, end, &nlen)                    < 0 || nlen > MAX_FILENAME ||
	.loc 1 142 9 view .LVU25
	leaq	38(%rsp), %rdx	#, tmp136
	movq	%rbx, %rsi	# end,
	movq	%r13, %rdi	# tmp134,
	call	buf_get_u16@PLT	#
.LVL7:
# tracker.c:141:     if (buf_get_bytes(&p, end, fhash, HASH_SIZE)         < 0 ||
	.loc 1 141 62 discriminator 1 view .LVU26
	testl	%eax, %eax	# tmp210
	js	.L35	#,
# tracker.c:142:         buf_get_u16  (&p, end, &nlen)                    < 0 || nlen > MAX_FILENAME ||
	.loc 1 142 70 view .LVU27
	movzwl	38(%rsp), %ecx	# nlen,
# tracker.c:142:         buf_get_u16  (&p, end, &nlen)                    < 0 || nlen > MAX_FILENAME ||
	.loc 1 142 62 view .LVU28
	cmpw	$255, %cx	#, nlen.27_4
	jbe	.L37	#,
.LVL8:
.L35:
	.loc 1 151 9 is_stmt 1 view .LVU29
.LBB86:
.LBB87:
# tracker.c:98:     msg_send(fd, type, &status, 1);
	.loc 1 98 5 is_stmt 0 view .LVU30
	leaq	37(%rsp), %rdx	#, tmp152
	movl	$1, %ecx	#,
	movl	$4, %esi	#,
	movl	%ebp, %edi	# fd,
	movb	$1, 37(%rsp)	#, MEM[(unsigned char *)_74]
.LVL9:
	.loc 1 98 5 view .LVU31
.LBE87:
.LBI86:
	.loc 1 97 13 is_stmt 1 view .LVU32
.LBB88:
	.loc 1 98 5 view .LVU33
	call	msg_send@PLT	#
.LVL10:
	.loc 1 98 5 is_stmt 0 view .LVU34
.LBE88:
.LBE86:
	.loc 1 151 47 is_stmt 1 discriminator 1 view .LVU35
.L1:
# tracker.c:178: }
	.loc 1 178 1 is_stmt 0 view .LVU36
	movq	440(%rsp), %rax	# D.7290, tmp232
	subq	%fs:40, %rax	# MEM[(<address-space-1> long unsigned int *)40B], tmp232
	jne	.L38	#,
	addq	$456, %rsp	#,
	.cfi_remember_state
	.cfi_def_cfa_offset 56
	popq	%rbx	#
	.cfi_def_cfa_offset 48
	popq	%rbp	#
	.cfi_def_cfa_offset 40
.LVL11:
	.loc 1 178 1 view .LVU37
	popq	%r12	#
	.cfi_def_cfa_offset 32
.LVL12:
	.loc 1 178 1 view .LVU38
	popq	%r13	#
	.cfi_def_cfa_offset 24
	popq	%r14	#
	.cfi_def_cfa_offset 16
.LVL13:
	.loc 1 178 1 view .LVU39
	popq	%r15	#
	.cfi_def_cfa_offset 8
	ret	
.LVL14:
	.p2align 4,,10
	.p2align 3
.L37:
	.cfi_restore_state
# tracker.c:143:         buf_get_bytes(&p, end, filename, nlen)           < 0 ||
	.loc 1 143 9 view .LVU40
	leaq	176(%rsp), %rax	#, tmp186
	movq	%rbx, %rsi	# end,
	movq	%r13, %rdi	# tmp134,
	movq	%rax, %rdx	# tmp186,
	movq	%rax, 8(%rsp)	# tmp186, %sfp
	call	buf_get_bytes@PLT	#
.LVL15:
# tracker.c:142:         buf_get_u16  (&p, end, &nlen)                    < 0 || nlen > MAX_FILENAME ||
	.loc 1 142 85 discriminator 1 view .LVU41
	testl	%eax, %eax	# tmp211
	js	.L35	#,
# tracker.c:144:         buf_get_u64  (&p, end, &fsize)                   < 0 ||
	.loc 1 144 9 view .LVU42
	leaq	56(%rsp), %rdx	#, tmp141
	movq	%rbx, %rsi	# end,
	movq	%r13, %rdi	# tmp134,
	call	buf_get_u64@PLT	#
.LVL16:
# tracker.c:143:         buf_get_bytes(&p, end, filename, nlen)           < 0 ||
	.loc 1 143 62 view .LVU43
	testl	%eax, %eax	# tmp212
	js	.L35	#,
# tracker.c:145:         buf_get_u32  (&p, end, &csize)                   < 0 ||
	.loc 1 145 9 view .LVU44
	leaq	40(%rsp), %rdx	#, tmp143
	movq	%rbx, %rsi	# end,
	movq	%r13, %rdi	# tmp134,
	call	buf_get_u32@PLT	#
.LVL17:
# tracker.c:144:         buf_get_u64  (&p, end, &fsize)                   < 0 ||
	.loc 1 144 62 view .LVU45
	testl	%eax, %eax	# tmp213
	js	.L35	#,
# tracker.c:146:         buf_get_u32  (&p, end, &ccnt)                    < 0) {
	.loc 1 146 9 view .LVU46
	leaq	44(%rsp), %rdx	#, tmp145
	movq	%rbx, %rsi	# end,
	movq	%r13, %rdi	# tmp134,
	call	buf_get_u32@PLT	#
.LVL18:
# tracker.c:145:         buf_get_u32  (&p, end, &csize)                   < 0 ||
	.loc 1 145 62 view .LVU47
	testl	%eax, %eax	# tmp214
	js	.L35	#,
	.loc 1 149 5 is_stmt 1 view .LVU48
# tracker.c:149:     filename[nlen] = '\0';
	.loc 1 149 20 is_stmt 0 view .LVU49
	movzwl	38(%rsp), %eax	# nlen, nlen
# tracker.c:150:     if ((size_t)(end - p) < (size_t)ccnt * HASH_SIZE) {
	.loc 1 150 22 view .LVU50
	subq	48(%rsp), %rbx	# p, tmp149
.LVL19:
# tracker.c:149:     filename[nlen] = '\0';
	.loc 1 149 20 view .LVU51
	movb	$0, 176(%rsp,%rax)	#, filename[_11]
	.loc 1 150 5 is_stmt 1 view .LVU52
# tracker.c:150:     if ((size_t)(end - p) < (size_t)ccnt * HASH_SIZE) {
	.loc 1 150 29 is_stmt 0 view .LVU53
	movl	44(%rsp), %eax	# ccnt, ccnt
# tracker.c:150:     if ((size_t)(end - p) < (size_t)ccnt * HASH_SIZE) {
	.loc 1 150 42 view .LVU54
	salq	$5, %rax	#, tmp151
# tracker.c:150:     if ((size_t)(end - p) < (size_t)ccnt * HASH_SIZE) {
	.loc 1 150 8 view .LVU55
	cmpq	%rax, %rbx	# tmp151, tmp149
	jb	.L35	#,
	.loc 1 154 5 is_stmt 1 view .LVU56
	leaq	lock(%rip), %rbx	#, tmp185
	movq	%rbx, %rdi	# tmp185,
	call	pthread_mutex_lock@PLT	#
.LVL20:
	.loc 1 155 5 view .LVU57
.LBB89:
.LBI89:
	.loc 1 48 22 view .LVU58
	.loc 1 49 5 view .LVU59
.LBB90:
	.loc 1 49 10 view .LVU60
# tracker.c:49:     for (file_entry_t *f = files; f; f = f->next)
	.loc 1 49 24 is_stmt 0 view .LVU61
	movq	files(%rip), %r8	# files, f
.LVL21:
	.loc 1 49 35 is_stmt 1 discriminator 1 view .LVU62
	testq	%r8, %r8	# f
	jne	.L10	#,
	jmp	.L6	#
	.p2align 4,,10
	.p2align 3
.L27:
	.loc 1 49 40 discriminator 2 view .LVU63
	movq	320(%r8), %r8	# f_53->next, f
.LVL22:
	.loc 1 49 35 discriminator 1 view .LVU64
	testq	%r8, %r8	# f
	je	.L6	#,
.L10:
	.loc 1 50 9 view .LVU65
# tracker.c:50:         if (memcmp(f->file_hash, hash, HASH_SIZE) == 0) return f;
	.loc 1 50 13 is_stmt 0 view .LVU66
	movq	(%r8), %rax	# MEM <char[1:32]> [(void *)f_53], tmp228
	movq	8(%r8), %rdx	# MEM <char[1:32]> [(void *)f_53], tmp230
	xorq	(%r15), %rax	# MEM <char[1:32]> [(void *)&fhash], tmp227
	xorq	8(%r15), %rdx	# MEM <char[1:32]> [(void *)&fhash], tmp229
	orq	%rdx, %rax	# tmp229, tmp227
	jne	.L27	#,
	.loc 1 50 13 view .LVU67
	movq	16(%r8), %rax	# MEM <char[1:32]> [(void *)f_53], tmp224
	movq	24(%r8), %rdx	# MEM <char[1:32]> [(void *)f_53], tmp226
	xorq	16(%r15), %rax	# MEM <char[1:32]> [(void *)&fhash], tmp223
	xorq	24(%r15), %rdx	# MEM <char[1:32]> [(void *)&fhash], tmp225
	orq	%rdx, %rax	# tmp225, tmp223
	jne	.L27	#,
.LVL23:
.L9:
	.loc 1 50 13 view .LVU68
.LBE90:
.LBE89:
	.loc 1 169 5 is_stmt 1 view .LVU69
.LBB91:
.LBB92:
.LBB93:
# tracker.c:56:     for (peer_entry_t *p = f->peers; p; p = p->next) {
	.loc 1 56 24 is_stmt 0 view .LVU70
	movq	312(%r8), %r9	# f_33->peers, p
.LBE93:
.LBE92:
.LBE91:
# tracker.c:169:     add_peer_to_file_locked(f, peer_id, client_ip, client_port);
	.loc 1 169 5 view .LVU71
	movzwl	%r14w, %r13d	# client_port, _28
.LVL24:
.LBB103:
.LBI91:
	.loc 1 54 13 is_stmt 1 view .LVU72
.LBB101:
	.loc 1 56 5 view .LVU73
.LBB94:
	.loc 1 56 10 view .LVU74
	.loc 1 56 38 discriminator 1 view .LVU75
	testq	%r9, %r9	# p
	je	.L12	#,
# tracker.c:56:     for (peer_entry_t *p = f->peers; p; p = p->next) {
	.loc 1 56 24 is_stmt 0 view .LVU76
	movq	%r9, %rdx	# p, p
	jmp	.L17	#
.LVL25:
	.p2align 4,,10
	.p2align 3
.L28:
	.loc 1 56 43 is_stmt 1 discriminator 2 view .LVU77
	movq	24(%rdx), %rdx	# p_110->next, p
.LVL26:
	.loc 1 56 38 discriminator 1 view .LVU78
	testq	%rdx, %rdx	# p
	je	.L12	#,
.L17:
	.loc 1 57 9 view .LVU79
# tracker.c:57:         if (memcmp(p->peer_id, pid, PEER_ID_SIZE) == 0) {
	.loc 1 57 13 is_stmt 0 view .LVU80
	movq	(%rdx), %rax	# MEM <char[1:16]> [(void *)p_110], tmp220
	movq	8(%rdx), %rcx	# MEM <char[1:16]> [(void *)p_110], tmp222
	xorq	(%r12), %rax	# MEM <char[1:16]> [(void *)peer_id_65(D)], tmp219
	xorq	8(%r12), %rcx	# MEM <char[1:16]> [(void *)peer_id_65(D)], tmp221
	orq	%rcx, %rax	# tmp221, tmp219
	jne	.L28	#,
	.loc 1 58 13 is_stmt 1 view .LVU81
# tracker.c:58:             p->ip = ip; p->port = port; return;
	.loc 1 58 19 is_stmt 0 view .LVU82
	movl	4(%rsp), %eax	# %sfp, client_ip
# tracker.c:58:             p->ip = ip; p->port = port; return;
	.loc 1 58 33 view .LVU83
	movw	%r14w, 20(%rdx)	# client_port, p_110->port
# tracker.c:58:             p->ip = ip; p->port = port; return;
	.loc 1 58 19 view .LVU84
	movl	%eax, 16(%rdx)	# client_ip, p_110->ip
	.loc 1 58 25 is_stmt 1 view .LVU85
	.loc 1 58 41 view .LVU86
.LVL27:
.L16:
	.loc 1 58 41 is_stmt 0 view .LVU87
.LBE94:
.LBE101:
.LBE103:
	.loc 1 170 5 is_stmt 1 view .LVU88
	movq	%rbx, %rdi	# tmp185,
# tracker.c:174:     char hex[HASH_SIZE * 2 + 1]; hash_to_hex(fhash, hex);
	.loc 1 174 34 is_stmt 0 view .LVU89
	leaq	96(%rsp), %rbx	#, tmp175
# tracker.c:170:     pthread_mutex_unlock(&lock);
	.loc 1 170 5 view .LVU90
	call	pthread_mutex_unlock@PLT	#
.LVL28:
	.loc 1 172 5 is_stmt 1 view .LVU91
.LBB104:
.LBB105:
# tracker.c:98:     msg_send(fd, type, &status, 1);
	.loc 1 98 5 is_stmt 0 view .LVU92
	leaq	37(%rsp), %rdx	#, tmp174
	movl	$1, %ecx	#,
	movl	%ebp, %edi	# fd,
	movl	$4, %esi	#,
	movb	$0, 37(%rsp)	#, MEM[(unsigned char *)_74]
.LVL29:
	.loc 1 98 5 view .LVU93
.LBE105:
.LBI104:
	.loc 1 97 13 is_stmt 1 view .LVU94
.LBB106:
	.loc 1 98 5 view .LVU95
	call	msg_send@PLT	#
.LVL30:
	.loc 1 98 5 is_stmt 0 view .LVU96
.LBE106:
.LBE104:
	.loc 1 174 5 is_stmt 1 view .LVU97
	.loc 1 174 34 view .LVU98
	movq	%rbx, %rsi	# tmp175,
	movq	%r15, %rdi	# tmp184,
	call	hash_to_hex@PLT	#
.LVL31:
	.loc 1 175 5 view .LVU99
	movl	4(%rsp), %edi	# %sfp,
	call	ip_to_str@PLT	#
.LVL32:
.LBB107:
.LBI107:
	.file 2 "/usr/include/x86_64-linux-gnu/bits/stdio2.h"
	.loc 2 77 1 view .LVU100
.LBB108:
	.loc 2 79 3 view .LVU101
# /usr/include/x86_64-linux-gnu/bits/stdio2.h:79:   return __fprintf_chk (__stream, __USE_FORTIFY_LEVEL - 1, __fmt,
	.loc 2 79 10 is_stmt 0 view .LVU102
	subq	$8, %rsp	#,
	.cfi_def_cfa_offset 520
	movq	%rbx, %rcx	# tmp175,
	movq	stderr(%rip), %rdi	# stderr,
	pushq	%r13	# _28
	.cfi_def_cfa_offset 528
	leaq	.LC1(%rip), %rdx	#, tmp182
	movl	$2, %esi	#,
	pushq	%rax	# tmp218
	.cfi_def_cfa_offset 536
	movl	68(%rsp), %eax	# ccnt, ccnt
	pushq	%rax	# ccnt
	.cfi_def_cfa_offset 544
	movq	88(%rsp), %r9	# fsize,
	xorl	%eax, %eax	#
	movq	40(%rsp), %r8	# %sfp,
	call	__fprintf_chk@PLT	#
.LVL33:
	.loc 2 79 10 view .LVU103
.LBE108:
.LBE107:
	addq	$32, %rsp	#,
	.cfi_def_cfa_offset 512
	jmp	.L1	#
.LVL34:
	.p2align 4,,10
	.p2align 3
.L12:
.LBB109:
.LBB102:
# tracker.c:61:     peer_entry_t *np = calloc(1, sizeof *np);
	.loc 1 61 24 view .LVU104
	movl	$1, %edi	#,
	movl	$32, %esi	#,
	movq	%r9, 24(%rsp)	# p, %sfp
	movq	%r8, 16(%rsp)	# f, %sfp
	.loc 1 61 5 is_stmt 1 view .LVU105
# tracker.c:61:     peer_entry_t *np = calloc(1, sizeof *np);
	.loc 1 61 24 is_stmt 0 view .LVU106
	call	calloc@PLT	#
.LVL35:
	.loc 1 62 5 is_stmt 1 view .LVU107
.LBB95:
.LBI95:
	.file 3 "/usr/include/x86_64-linux-gnu/bits/string_fortified.h"
	.loc 3 26 1 view .LVU108
.LBB96:
	.loc 3 29 3 view .LVU109
	.loc 3 29 3 is_stmt 0 view .LVU110
.LBE96:
.LBE95:
	.loc 1 63 5 is_stmt 1 view .LVU111
.LBB99:
.LBB97:
# /usr/include/x86_64-linux-gnu/bits/string_fortified.h:29:   return __builtin___memcpy_chk (__dest, __src, __len,
	.loc 3 29 10 is_stmt 0 discriminator 1 view .LVU112
	movdqu	(%r12), %xmm1	# MEM <uint128_t> [(char * {ref-all})peer_id_65(D)], tmp241
.LBE97:
.LBE99:
# tracker.c:63:     np->ip = ip; np->port = port;
	.loc 1 63 12 view .LVU113
	movl	4(%rsp), %edi	# %sfp, client_ip
# tracker.c:64:     np->next = f->peers;
	.loc 1 64 14 view .LVU114
	movq	24(%rsp), %r9	# %sfp, p
# tracker.c:65:     f->peers = np;
	.loc 1 65 14 view .LVU115
	movq	16(%rsp), %r8	# %sfp, f
# tracker.c:63:     np->ip = ip; np->port = port;
	.loc 1 63 27 view .LVU116
	movw	%r14w, 20(%rax)	# client_port, np_118->port
# tracker.c:63:     np->ip = ip; np->port = port;
	.loc 1 63 12 view .LVU117
	movl	%edi, 16(%rax)	# client_ip, np_118->ip
	.loc 1 63 18 is_stmt 1 view .LVU118
	.loc 1 64 5 view .LVU119
# tracker.c:64:     np->next = f->peers;
	.loc 1 64 14 is_stmt 0 view .LVU120
	movq	%r9, 24(%rax)	# p, np_118->next
	.loc 1 65 5 is_stmt 1 view .LVU121
.LBB100:
.LBB98:
# /usr/include/x86_64-linux-gnu/bits/string_fortified.h:29:   return __builtin___memcpy_chk (__dest, __src, __len,
	.loc 3 29 10 is_stmt 0 discriminator 1 view .LVU122
	movups	%xmm1, (%rax)	# tmp241, MEM <uint128_t> [(char * {ref-all})np_118]
.LBE98:
.LBE100:
# tracker.c:65:     f->peers = np;
	.loc 1 65 14 view .LVU123
	movq	%rax, 312(%r8)	# tmp171, f_33->peers
	jmp	.L16	#
.LVL36:
	.p2align 4,,10
	.p2align 3
.L6:
	.loc 1 65 14 view .LVU124
.LBE102:
.LBE109:
	.loc 1 156 5 is_stmt 1 view .LVU125
	.loc 1 157 9 view .LVU126
# tracker.c:157:         f = calloc(1, sizeof *f);
	.loc 1 157 13 is_stmt 0 view .LVU127
	movl	$328, %esi	#,
	movl	$1, %edi	#,
	call	calloc@PLT	#
.LVL37:
	.loc 1 158 9 is_stmt 1 view .LVU128
.LBB110:
.LBI110:
	.loc 3 26 1 view .LVU129
.LBB111:
	.loc 3 29 3 view .LVU130
# /usr/include/x86_64-linux-gnu/bits/string_fortified.h:29:   return __builtin___memcpy_chk (__dest, __src, __len,
	.loc 3 29 10 is_stmt 0 discriminator 1 view .LVU131
	movdqa	64(%rsp), %xmm2	# MEM <unsigned char[32]> [(char * {ref-all})&fhash], tmp235
	movdqa	80(%rsp), %xmm3	# MEM <unsigned char[32]> [(char * {ref-all})&fhash], tmp236
.LBE111:
.LBE110:
.LBB113:
.LBB114:
# /usr/include/x86_64-linux-gnu/bits/stdio2.h:54:   return __builtin___snprintf_chk (__s, __n, __USE_FORTIFY_LEVEL - 1,
	.loc 2 54 10 discriminator 1 view .LVU132
	leaq	.LC0(%rip), %rdx	#, tmp162
	movq	8(%rsp), %rcx	# %sfp,
	movq	%rax, 16(%rsp)	# f, %sfp
	leaq	32(%rax), %rdi	#, tmp161
	movl	$256, %esi	#,
.LBE114:
.LBE113:
.LBB116:
.LBB112:
# /usr/include/x86_64-linux-gnu/bits/string_fortified.h:29:   return __builtin___memcpy_chk (__dest, __src, __len,
	.loc 3 29 10 discriminator 1 view .LVU133
	movups	%xmm2, (%rax)	# tmp235, MEM <unsigned char[32]> [(char * {ref-all})f_56]
	movups	%xmm3, 16(%rax)	# tmp236, MEM <unsigned char[32]> [(char * {ref-all})f_56]
.LVL38:
	.loc 3 29 10 discriminator 1 view .LVU134
.LBE112:
.LBE116:
	.loc 1 159 9 is_stmt 1 view .LVU135
.LBB117:
.LBI113:
	.loc 2 51 1 view .LVU136
.LBB115:
	.loc 2 54 3 view .LVU137
# /usr/include/x86_64-linux-gnu/bits/stdio2.h:54:   return __builtin___snprintf_chk (__s, __n, __USE_FORTIFY_LEVEL - 1,
	.loc 2 54 10 is_stmt 0 discriminator 1 view .LVU138
	xorl	%eax, %eax	#
.LVL39:
	.loc 2 54 10 discriminator 1 view .LVU139
	call	snprintf@PLT	#
.LVL40:
	.loc 2 54 10 discriminator 1 view .LVU140
.LBE115:
.LBE117:
	.loc 1 160 9 is_stmt 1 view .LVU141
# tracker.c:160:         f->file_size   = fsize;
	.loc 1 160 24 is_stmt 0 view .LVU142
	movq	56(%rsp), %rax	# fsize, fsize
	movq	16(%rsp), %r8	# %sfp, f
# tracker.c:161:         f->chunk_size  = csize;
	.loc 1 161 24 view .LVU143
	movd	40(%rsp), %xmm0	# csize, tmp164
# tracker.c:160:         f->file_size   = fsize;
	.loc 1 160 24 view .LVU144
	movq	%rax, 288(%r8)	# fsize, f_56->file_size
	.loc 1 161 9 is_stmt 1 view .LVU145
	.loc 1 162 9 view .LVU146
# tracker.c:162:         f->chunk_count = ccnt;
	.loc 1 162 24 is_stmt 0 view .LVU147
	movl	44(%rsp), %eax	# ccnt,
# tracker.c:161:         f->chunk_size  = csize;
	.loc 1 161 24 view .LVU148
	movd	%eax, %xmm4	# ccnt.34_22, ccnt.34_22
	punpckldq	%xmm4, %xmm0	# ccnt.34_22, tmp164
	movq	%xmm0, 296(%r8)	# tmp164, MEM <vector(2) unsigned int> [(unsigned int *)f_56 + 296B]
	.loc 1 163 9 is_stmt 1 view .LVU149
# tracker.c:163:         if (ccnt > 0) {
	.loc 1 163 12 is_stmt 0 view .LVU150
	testl	%eax, %eax	# ccnt.34_22
	jne	.L39	#,
.L11:
	.loc 1 167 9 is_stmt 1 view .LVU151
# tracker.c:167:         f->next = files; files = f;
	.loc 1 167 17 is_stmt 0 view .LVU152
	movq	files(%rip), %rax	# files, files
# tracker.c:167:         f->next = files; files = f;
	.loc 1 167 32 view .LVU153
	movq	%r8, files(%rip)	# f, files
# tracker.c:167:         f->next = files; files = f;
	.loc 1 167 17 view .LVU154
	movq	%rax, 320(%r8)	# files, f_56->next
	.loc 1 167 26 is_stmt 1 view .LVU155
	jmp	.L9	#
.L39:
	.loc 1 164 13 view .LVU156
# tracker.c:164:             f->chunk_hashes = malloc((size_t)ccnt * HASH_SIZE);
	.loc 1 164 31 is_stmt 0 view .LVU157
	salq	$5, %rax	#, ccnt.34_22
	movq	%rax, %rdi	# _24,
	movq	%rax, %r13	# ccnt.34_22, _24
	call	malloc@PLT	#
.LVL41:
# tracker.c:164:             f->chunk_hashes = malloc((size_t)ccnt * HASH_SIZE);
	.loc 1 164 29 discriminator 1 view .LVU158
	movq	16(%rsp), %r8	# %sfp, f
.LBB118:
.LBB119:
# /usr/include/x86_64-linux-gnu/bits/string_fortified.h:29:   return __builtin___memcpy_chk (__dest, __src, __len,
	.loc 3 29 10 discriminator 1 view .LVU159
	movq	%r13, %rcx	# _24,
	movq	%r13, %rdx	# _24,
	movq	48(%rsp), %rsi	# p,
.LBE119:
.LBE118:
# tracker.c:164:             f->chunk_hashes = malloc((size_t)ccnt * HASH_SIZE);
	.loc 1 164 31 view .LVU160
	movq	%rax, %rdi	# tmp216, tmp167
# tracker.c:164:             f->chunk_hashes = malloc((size_t)ccnt * HASH_SIZE);
	.loc 1 164 29 discriminator 1 view .LVU161
	movq	%rax, 304(%r8)	# tmp167, f_56->chunk_hashes
	.loc 1 165 13 is_stmt 1 view .LVU162
.LVL42:
.LBB121:
.LBI118:
	.loc 3 26 1 view .LVU163
.LBB120:
	.loc 3 29 3 view .LVU164
# /usr/include/x86_64-linux-gnu/bits/string_fortified.h:29:   return __builtin___memcpy_chk (__dest, __src, __len,
	.loc 3 29 10 is_stmt 0 discriminator 1 view .LVU165
	call	__memcpy_chk@PLT	#
.LVL43:
	.loc 3 29 10 discriminator 1 view .LVU166
	movq	16(%rsp), %r8	# %sfp, f
.LVL44:
# /usr/include/x86_64-linux-gnu/bits/string_fortified.h:29:   return __builtin___memcpy_chk (__dest, __src, __len,
	.loc 3 29 10 view .LVU167
	jmp	.L11	#
.LVL45:
.L38:
	.loc 3 29 10 view .LVU168
.LBE120:
.LBE121:
# tracker.c:178: }
	.loc 1 178 1 view .LVU169
	call	__stack_chk_fail@PLT	#
.LVL46:
	.cfi_endproc
.LFE80:
	.size	handle_announce, .-handle_announce
	.section	.rodata.str1.1
.LC2:
	.string	"[INFO] REGISTER %s:%u\n"
	.section	.rodata.str1.8
	.align 8
.LC3:
	.string	"[WARN] unknown message type 0x%02x\n"
	.section	.rodata.str1.1
.LC4:
	.string	"[INFO] DISCONNECT %s:%u\n"
	.text
	.p2align 4
	.type	client_thread, @function
client_thread:
.LVL47:
.LFB84:
	.loc 1 265 39 is_stmt 1 view -0
	.cfi_startproc
	.loc 1 265 39 is_stmt 0 view .LVU171
	endbr64	
	pushq	%r15	#
	.cfi_def_cfa_offset 16
	.cfi_offset 15, -16
# tracker.c:270:     uint16_t listen_port = 0;
	.loc 1 270 14 view .LVU172
	xorl	%ecx, %ecx	#
# tracker.c:268:     uint8_t  peer_id[PEER_ID_SIZE] = {0};
	.loc 1 268 14 view .LVU173
	pxor	%xmm0, %xmm0	# tmp368
# tracker.c:265: static void *client_thread(void *arg) {
	.loc 1 265 39 view .LVU174
	pushq	%r14	#
	.cfi_def_cfa_offset 24
	.cfi_offset 14, -24
	pushq	%r13	#
	.cfi_def_cfa_offset 32
	.cfi_offset 13, -32
.LBB170:
# tracker.c:278:         switch (type) {
	.loc 1 278 9 view .LVU175
	leaq	.L44(%rip), %r13	#, tmp367
.LBE170:
# tracker.c:265: static void *client_thread(void *arg) {
	.loc 1 265 39 view .LVU176
	pushq	%r12	#
	.cfi_def_cfa_offset 40
	.cfi_offset 12, -40
	pushq	%rbp	#
	.cfi_def_cfa_offset 48
	.cfi_offset 6, -48
	pushq	%rbx	#
	.cfi_def_cfa_offset 56
	.cfi_offset 3, -56
	subq	$184, %rsp	#,
	.cfi_def_cfa_offset 240
# tracker.c:265: static void *client_thread(void *arg) {
	.loc 1 265 39 view .LVU177
	movq	%rdi, 32(%rsp)	# arg, %sfp
# tracker.c:267:     int  fd = ctx->fd;
	.loc 1 267 10 view .LVU178
	movq	%fs:40, %rax	# MEM[(<address-space-1> long unsigned int *)40B], tmp415
	movq	%rax, 168(%rsp)	# tmp415, D.7410
	movq	%rdi, %rax	# arg, tmp415
# tracker.c:270:     uint16_t listen_port = 0;
	.loc 1 270 14 view .LVU179
	movw	%cx, 46(%rsp)	#, %sfp
# tracker.c:269:     int      registered  = 0;
	.loc 1 269 14 view .LVU180
	movl	$0, 40(%rsp)	#, %sfp
# tracker.c:268:     uint8_t  peer_id[PEER_ID_SIZE] = {0};
	.loc 1 268 14 view .LVU181
	movaps	%xmm0, 112(%rsp)	# tmp368, peer_id
# tracker.c:267:     int  fd = ctx->fd;
	.loc 1 267 10 view .LVU182
	movl	(%rax), %r12d	# MEM[(struct client_ctx_t *)arg_32(D)].fd, fd
.LVL48:
	.loc 1 268 5 is_stmt 1 view .LVU183
	.loc 1 269 5 view .LVU184
	.loc 1 270 5 view .LVU185
	.loc 1 270 5 is_stmt 0 view .LVU186
	leaq	76(%rsp), %rax	#, tmp361
	movq	%rax, 16(%rsp)	# tmp361, %sfp
	leaq	80(%rsp), %rax	#, tmp362
	movq	%rax, 24(%rsp)	# tmp362, %sfp
	leaq	74(%rsp), %rax	#, tmp360
	movq	%rax, 8(%rsp)	# tmp360, %sfp
.LVL49:
	.p2align 4,,10
	.p2align 3
.L84:
	.loc 1 272 5 is_stmt 1 view .LVU187
.LBB246:
	.loc 1 273 9 view .LVU188
	.loc 1 274 9 view .LVU189
# tracker.c:276:         if (msg_recv(fd, &type, &payload, &plen) < 0) break;
	.loc 1 276 13 is_stmt 0 view .LVU190
	movq	16(%rsp), %rcx	# %sfp,
	movq	24(%rsp), %rdx	# %sfp,
	movl	%r12d, %edi	# fd,
# tracker.c:274:         uint8_t *payload = NULL;
	.loc 1 274 18 view .LVU191
	movq	$0, 80(%rsp)	#, payload
	.loc 1 275 9 is_stmt 1 view .LVU192
# tracker.c:276:         if (msg_recv(fd, &type, &payload, &plen) < 0) break;
	.loc 1 276 13 is_stmt 0 view .LVU193
	movq	8(%rsp), %rsi	# %sfp,
# tracker.c:275:         uint32_t plen    = 0;
	.loc 1 275 18 view .LVU194
	movl	$0, 76(%rsp)	#, plen
	.loc 1 276 9 is_stmt 1 view .LVU195
# tracker.c:276:         if (msg_recv(fd, &type, &payload, &plen) < 0) break;
	.loc 1 276 13 is_stmt 0 view .LVU196
	call	msg_recv@PLT	#
.LVL50:
# tracker.c:276:         if (msg_recv(fd, &type, &payload, &plen) < 0) break;
	.loc 1 276 12 discriminator 1 view .LVU197
	testl	%eax, %eax	# tmp370
	js	.L41	#,
	.loc 1 278 9 is_stmt 1 view .LVU198
	movzbl	74(%rsp), %edx	# type, type.5_2
	cmpb	$12, %dl	#, type.5_2
	ja	.L42	#,
	movzbl	%dl, %eax	# type.5_2, type.5_2
	movslq	0(%r13,%rax,4), %rax	#, tmp214
	addq	%r13, %rax	# tmp367, tmp215
	notrack jmp	*%rax	# tmp215
	.section	.rodata
	.align 4
	.align 4
.L44:
	.long	.L42-.L44
	.long	.L50-.L44
	.long	.L42-.L44
	.long	.L49-.L44
	.long	.L42-.L44
	.long	.L48-.L44
	.long	.L42-.L44
	.long	.L47-.L44
	.long	.L42-.L44
	.long	.L46-.L44
	.long	.L42-.L44
	.long	.L45-.L44
	.long	.L43-.L44
	.text
	.p2align 4,,10
	.p2align 3
.L42:
	.loc 1 296 17 view .LVU199
.LVL51:
.LBB171:
.LBI171:
	.loc 2 77 1 view .LVU200
.LBB172:
	.loc 2 79 3 view .LVU201
# /usr/include/x86_64-linux-gnu/bits/stdio2.h:79:   return __fprintf_chk (__stream, __USE_FORTIFY_LEVEL - 1, __fmt,
	.loc 2 79 10 is_stmt 0 view .LVU202
	movq	stderr(%rip), %rdi	# stderr,
.LBE172:
.LBE171:
# tracker.c:296:                 LOG_WARN("unknown message type 0x%02x", type);
	.loc 1 296 17 view .LVU203
	movzbl	%dl, %ecx	# type.5_2, type.5_2
.LBB174:
.LBB173:
# /usr/include/x86_64-linux-gnu/bits/stdio2.h:79:   return __fprintf_chk (__stream, __USE_FORTIFY_LEVEL - 1, __fmt,
	.loc 2 79 10 view .LVU204
	movl	$2, %esi	#,
	xorl	%eax, %eax	#
	leaq	.LC3(%rip), %rdx	#, tmp319
	call	__fprintf_chk@PLT	#
.LVL52:
	.loc 2 79 10 view .LVU205
.LBE173:
.LBE174:
	.loc 1 297 17 is_stmt 1 view .LVU206
	.p2align 4,,10
	.p2align 3
.L59:
	.loc 1 299 9 view .LVU207
	movq	80(%rsp), %rdi	# payload,
	call	free@PLT	#
.LVL53:
.LBE246:
	.loc 1 272 11 view .LVU208
# tracker.c:272:     while (1) {
	.loc 1 272 15 is_stmt 0 view .LVU209
	jmp	.L84	#
.L43:
.LBB247:
	.loc 1 292 37 is_stmt 1 view .LVU210
	xorl	%ecx, %ecx	#
	xorl	%edx, %edx	#
	movl	$13, %esi	#,
	movl	%r12d, %edi	# fd,
	call	msg_send@PLT	#
.LVL54:
	.loc 1 292 70 discriminator 1 view .LVU211
# tracker.c:292:             case MSG_PING:          msg_send(fd, MSG_PONG, NULL, 0); break;
	.loc 1 292 70 is_stmt 0 view .LVU212
	jmp	.L59	#
.L45:
	.loc 1 294 17 is_stmt 1 view .LVU213
	movq	80(%rsp), %rdi	# payload,
	call	free@PLT	#
.LVL55:
	.loc 1 294 32 discriminator 1 view .LVU214
.L41:
.LBE247:
	.loc 1 302 5 view .LVU215
# tracker.c:302:     if (registered) {
	.loc 1 302 8 is_stmt 0 view .LVU216
	movl	40(%rsp), %eax	# %sfp,
	testl	%eax, %eax	#
	jne	.L155	#,
.L85:
	.loc 1 308 5 is_stmt 1 view .LVU217
	movl	%r12d, %edi	# fd,
	call	close@PLT	#
.LVL56:
	.loc 1 309 5 view .LVU218
	movq	32(%rsp), %rdi	# %sfp,
	call	free@PLT	#
.LVL57:
	.loc 1 310 5 view .LVU219
# tracker.c:311: }
	.loc 1 311 1 is_stmt 0 view .LVU220
	movq	168(%rsp), %rax	# D.7410, tmp416
	subq	%fs:40, %rax	# MEM[(<address-space-1> long unsigned int *)40B], tmp416
	jne	.L156	#,
	addq	$184, %rsp	#,
	.cfi_remember_state
	.cfi_def_cfa_offset 56
	xorl	%eax, %eax	#
	popq	%rbx	#
	.cfi_def_cfa_offset 48
	popq	%rbp	#
	.cfi_def_cfa_offset 40
	popq	%r12	#
	.cfi_def_cfa_offset 32
	popq	%r13	#
	.cfi_def_cfa_offset 24
	popq	%r14	#
	.cfi_def_cfa_offset 16
	popq	%r15	#
	.cfi_def_cfa_offset 8
	ret	
.LVL58:
.L46:
	.cfi_restore_state
.LBB248:
	.loc 1 291 37 is_stmt 1 view .LVU221
	movq	80(%rsp), %rax	# payload, payload.14_15
.LVL59:
.LBB175:
.LBI175:
	.loc 1 232 13 view .LVU222
.LBB176:
	.loc 1 233 5 view .LVU223
# tracker.c:233:     const uint8_t *p = payload, *end = payload + plen;
	.loc 1 233 48 is_stmt 0 view .LVU224
	movl	76(%rsp), %edx	# plen, plen.13_14
# tracker.c:235:     if (buf_get_bytes(&p, end, fhash, HASH_SIZE) < 0) {
	.loc 1 235 9 view .LVU225
	leaq	88(%rsp), %rdi	#, tmp300
	leaq	128(%rsp), %rbp	#, tmp366
	movl	$32, %ecx	#,
# tracker.c:233:     const uint8_t *p = payload, *end = payload + plen;
	.loc 1 233 34 view .LVU226
	leaq	(%rax,%rdx), %rsi	#, end
# tracker.c:235:     if (buf_get_bytes(&p, end, fhash, HASH_SIZE) < 0) {
	.loc 1 235 9 view .LVU227
	movq	%rbp, %rdx	# tmp366,
# tracker.c:233:     const uint8_t *p = payload, *end = payload + plen;
	.loc 1 233 20 view .LVU228
	movq	%rax, 88(%rsp)	# payload.14_15, MEM[(const uint8_t * *)_57]
.LVL60:
	.loc 1 234 5 is_stmt 1 view .LVU229
	.loc 1 235 5 view .LVU230
# tracker.c:235:     if (buf_get_bytes(&p, end, fhash, HASH_SIZE) < 0) {
	.loc 1 235 9 is_stmt 0 view .LVU231
	call	buf_get_bytes@PLT	#
.LVL61:
# tracker.c:235:     if (buf_get_bytes(&p, end, fhash, HASH_SIZE) < 0) {
	.loc 1 235 8 discriminator 1 view .LVU232
	testl	%eax, %eax	# tmp380
	js	.L154	#,
	.loc 1 239 5 is_stmt 1 view .LVU233
	leaq	lock(%rip), %r14	#, tmp364
	movq	%r14, %rdi	# tmp364,
	call	pthread_mutex_lock@PLT	#
.LVL62:
	.loc 1 240 5 view .LVU234
.LBB177:
.LBI177:
	.loc 1 48 22 view .LVU235
	.loc 1 49 5 view .LVU236
.LBB178:
	.loc 1 49 10 view .LVU237
# tracker.c:49:     for (file_entry_t *f = files; f; f = f->next)
	.loc 1 49 24 is_stmt 0 view .LVU238
	movq	files(%rip), %r15	# files, f
.LVL63:
	.loc 1 49 35 is_stmt 1 discriminator 1 view .LVU239
	testq	%r15, %r15	# f
	jne	.L83	#,
.L79:
.LVL64:
	.loc 1 49 35 is_stmt 0 discriminator 1 view .LVU240
.LBE178:
.LBE177:
.LBB180:
	.loc 1 242 9 is_stmt 1 view .LVU241
	movq	%r14, %rdi	# tmp364,
	call	pthread_mutex_unlock@PLT	#
.LVL65:
.L154:
	.loc 1 243 9 view .LVU242
# tracker.c:244:         msg_send(fd, MSG_GET_FILE_INFO_RESP, &absent, 1);
	.loc 1 244 9 is_stmt 0 view .LVU243
	leaq	96(%rsp), %rdx	#, tmp307
	movl	$1, %ecx	#,
	movl	$10, %esi	#,
	movl	%r12d, %edi	# fd,
# tracker.c:243:         uint8_t absent = 0;
	.loc 1 243 17 view .LVU244
	movb	$0, 96(%rsp)	#, MEM[(unsigned char *)_207]
	.loc 1 244 9 is_stmt 1 view .LVU245
	call	msg_send@PLT	#
.LVL66:
	.loc 1 245 9 view .LVU246
	jmp	.L59	#
.LVL67:
	.p2align 4,,10
	.p2align 3
.L158:
	.loc 1 245 9 is_stmt 0 view .LVU247
.LBE180:
.LBB181:
.LBB179:
# tracker.c:50:         if (memcmp(f->file_hash, hash, HASH_SIZE) == 0) return f;
	.loc 1 50 13 view .LVU248
	movq	16(%r15), %rax	# MEM <char[1:32]> [(void *)f_340], tmp396
	movq	24(%r15), %rdx	# MEM <char[1:32]> [(void *)f_340], tmp398
	xorq	16(%rbp), %rax	# MEM <char[1:32]> [(void *)_82], tmp395
	xorq	24(%rbp), %rdx	# MEM <char[1:32]> [(void *)_82], tmp397
	orq	%rdx, %rax	# tmp397, tmp395
	je	.L157	#,
.L124:
	.loc 1 49 40 is_stmt 1 discriminator 2 view .LVU249
	movq	320(%r15), %r15	# f_340->next, f
.LVL68:
	.loc 1 49 35 discriminator 1 view .LVU250
	testq	%r15, %r15	# f
	je	.L79	#,
.L83:
	.loc 1 50 9 view .LVU251
# tracker.c:50:         if (memcmp(f->file_hash, hash, HASH_SIZE) == 0) return f;
	.loc 1 50 13 is_stmt 0 view .LVU252
	movq	(%r15), %rax	# MEM <char[1:32]> [(void *)f_340], tmp400
	movq	8(%r15), %rdx	# MEM <char[1:32]> [(void *)f_340], tmp402
	xorq	0(%rbp), %rax	# MEM <char[1:32]> [(void *)_82], tmp399
	xorq	8(%rbp), %rdx	# MEM <char[1:32]> [(void *)_82], tmp401
	orq	%rdx, %rax	# tmp401, tmp399
	jne	.L124	#,
	.loc 1 50 13 view .LVU253
	jmp	.L158	#
	.p2align 4,,10
	.p2align 3
.L157:
.LVL69:
	.loc 1 50 13 view .LVU254
.LBE179:
.LBE181:
	.loc 1 241 5 is_stmt 1 view .LVU255
	.loc 1 247 5 view .LVU256
# tracker.c:247:     size_t cap = 1 + HASH_SIZE + 2 + strlen(f->filename) + 8 + 4 + 4
	.loc 1 247 46 is_stmt 0 view .LVU257
	leaq	32(%r15), %rax	#, _163
# tracker.c:250:     buf_put_u8   (&w, 1);
	.loc 1 250 5 view .LVU258
	leaq	96(%rsp), %rbx	#, tmp344
# tracker.c:247:     size_t cap = 1 + HASH_SIZE + 2 + strlen(f->filename) + 8 + 4 + 4
	.loc 1 247 38 view .LVU259
	movq	%rax, %rdi	# _163,
	movq	%rax, 48(%rsp)	# _163, %sfp
	call	strlen@PLT	#
.LVL70:
	movq	%rax, %rdx	#, tmp381
.LVL71:
	.loc 1 249 5 is_stmt 1 view .LVU260
# tracker.c:248:                + (size_t)f->chunk_count * HASH_SIZE;
	.loc 1 248 18 is_stmt 0 view .LVU261
	movl	300(%r15), %eax	# f_340->chunk_count, f_340->chunk_count
.LVL72:
# tracker.c:248:                + (size_t)f->chunk_count * HASH_SIZE;
	.loc 1 248 41 view .LVU262
	salq	$5, %rax	#, tmp340
# tracker.c:247:     size_t cap = 1 + HASH_SIZE + 2 + strlen(f->filename) + 8 + 4 + 4
	.loc 1 247 12 view .LVU263
	leaq	51(%rax,%rdx), %rdi	#, cap
# tracker.c:249:     uint8_t *buf = malloc(cap), *w = buf;
	.loc 1 249 20 view .LVU264
	call	malloc@PLT	#
.LVL73:
# tracker.c:250:     buf_put_u8   (&w, 1);
	.loc 1 250 5 view .LVU265
	movl	$1, %esi	#,
	movq	%rbx, %rdi	# tmp344,
# tracker.c:249:     uint8_t *buf = malloc(cap), *w = buf;
	.loc 1 249 34 discriminator 1 view .LVU266
	movq	%rax, 96(%rsp)	# buf, MEM[(uint8_t * *)_207]
# tracker.c:249:     uint8_t *buf = malloc(cap), *w = buf;
	.loc 1 249 20 view .LVU267
	movq	%rax, %rbp	# tmp382, buf
.LVL74:
	.loc 1 250 5 is_stmt 1 view .LVU268
	call	buf_put_u8@PLT	#
.LVL75:
	.loc 1 251 5 view .LVU269
	movl	$32, %edx	#,
	movq	%r15, %rsi	# f,
	movq	%rbx, %rdi	# tmp344,
	call	buf_put_bytes@PLT	#
.LVL76:
	.loc 1 252 5 view .LVU270
# tracker.c:252:     uint16_t nl = (uint16_t)strlen(f->filename);
	.loc 1 252 29 is_stmt 0 view .LVU271
	movq	48(%rsp), %rdi	# %sfp,
	call	strlen@PLT	#
.LVL77:
	.loc 1 253 5 is_stmt 1 view .LVU272
	movq	%rbx, %rdi	# tmp344,
	movzwl	%ax, %esi	# tmp347, _172
	movq	%rax, 56(%rsp)	# tmp347, %sfp
	call	buf_put_u16@PLT	#
.LVL78:
	.loc 1 254 5 view .LVU273
	movq	56(%rsp), %rax	# %sfp, tmp347
	movq	48(%rsp), %rsi	# %sfp,
	movq	%rbx, %rdi	# tmp344,
	movzwl	%ax, %edx	# tmp347, _172
	call	buf_put_bytes@PLT	#
.LVL79:
	.loc 1 255 5 view .LVU274
	movq	288(%r15), %rsi	# f_340->file_size, f_340->file_size
	movq	%rbx, %rdi	# tmp344,
	call	buf_put_u64@PLT	#
.LVL80:
	.loc 1 256 5 view .LVU275
	movl	296(%r15), %esi	# f_340->chunk_size, f_340->chunk_size
	movq	%rbx, %rdi	# tmp344,
	call	buf_put_u32@PLT	#
.LVL81:
	.loc 1 257 5 view .LVU276
	movl	300(%r15), %esi	# f_340->chunk_count, f_340->chunk_count
	movq	%rbx, %rdi	# tmp344,
	call	buf_put_u32@PLT	#
.LVL82:
	.loc 1 258 5 view .LVU277
# tracker.c:258:     if (f->chunk_count > 0)
	.loc 1 258 10 is_stmt 0 view .LVU278
	movl	300(%r15), %eax	# f_340->chunk_count, _179
# tracker.c:258:     if (f->chunk_count > 0)
	.loc 1 258 8 view .LVU279
	testl	%eax, %eax	# _179
	jne	.L159	#,
.L105:
	.loc 1 260 5 is_stmt 1 view .LVU280
	movq	%r14, %rdi	# tmp364,
	call	pthread_mutex_unlock@PLT	#
.LVL83:
	.loc 1 261 5 view .LVU281
	movl	96(%rsp), %ecx	# MEM[(uint8_t * *)_207], tmp315
	movl	%r12d, %edi	# fd,
	movq	%rbp, %rdx	# buf,
	movl	$10, %esi	#,
	subl	%ebp, %ecx	# buf, tmp315
	call	msg_send@PLT	#
.LVL84:
	.loc 1 262 5 view .LVU282
	movq	%rbp, %rdi	# buf,
	call	free@PLT	#
.LVL85:
	jmp	.L59	#
.LVL86:
.L47:
	.loc 1 262 5 is_stmt 0 view .LVU283
.LBE176:
.LBE175:
	.loc 1 290 37 is_stmt 1 view .LVU284
	movq	80(%rsp), %rax	# payload, payload.12_13
.LVL87:
.LBB183:
.LBI183:
	.loc 1 207 13 view .LVU285
.LBB184:
	.loc 1 208 5 view .LVU286
# tracker.c:208:     const uint8_t *p = payload, *end = payload + plen;
	.loc 1 208 48 is_stmt 0 view .LVU287
	movl	76(%rsp), %edx	# plen, plen.11_12
# tracker.c:210:     if (buf_get_bytes(&p, end, fhash, HASH_SIZE) < 0) {
	.loc 1 210 9 view .LVU288
	leaq	88(%rsp), %rdi	#, tmp270
	leaq	128(%rsp), %rbp	#, tmp366
	movl	$32, %ecx	#,
# tracker.c:208:     const uint8_t *p = payload, *end = payload + plen;
	.loc 1 208 34 view .LVU289
	leaq	(%rax,%rdx), %rsi	#, end
# tracker.c:210:     if (buf_get_bytes(&p, end, fhash, HASH_SIZE) < 0) {
	.loc 1 210 9 view .LVU290
	movq	%rbp, %rdx	# tmp366,
# tracker.c:208:     const uint8_t *p = payload, *end = payload + plen;
	.loc 1 208 20 view .LVU291
	movq	%rax, 88(%rsp)	# payload.12_13, MEM[(const uint8_t * *)_57]
.LVL88:
	.loc 1 209 5 is_stmt 1 view .LVU292
	.loc 1 210 5 view .LVU293
# tracker.c:210:     if (buf_get_bytes(&p, end, fhash, HASH_SIZE) < 0) {
	.loc 1 210 9 is_stmt 0 view .LVU294
	call	buf_get_bytes@PLT	#
.LVL89:
# tracker.c:210:     if (buf_get_bytes(&p, end, fhash, HASH_SIZE) < 0) {
	.loc 1 210 8 discriminator 1 view .LVU295
	testl	%eax, %eax	# tmp378
	js	.L160	#,
	.loc 1 215 5 is_stmt 1 view .LVU296
	leaq	lock(%rip), %r14	#, tmp364
	movq	%r14, %rdi	# tmp364,
	call	pthread_mutex_lock@PLT	#
.LVL90:
	.loc 1 216 5 view .LVU297
.LBB185:
.LBI185:
	.loc 1 48 22 view .LVU298
	.loc 1 49 5 view .LVU299
.LBB186:
	.loc 1 49 10 view .LVU300
# tracker.c:49:     for (file_entry_t *f = files; f; f = f->next)
	.loc 1 49 24 is_stmt 0 view .LVU301
	movq	files(%rip), %r15	# files, f
.LVL91:
	.loc 1 49 35 is_stmt 1 discriminator 1 view .LVU302
	testq	%r15, %r15	# f
	jne	.L73	#,
.L69:
.LVL92:
	.loc 1 49 35 is_stmt 0 discriminator 1 view .LVU303
.LBE186:
.LBE185:
	.loc 1 219 5 is_stmt 1 view .LVU304
	.loc 1 220 5 view .LVU305
# tracker.c:220:     uint8_t *buf = malloc(cap), *w = buf;
	.loc 1 220 20 is_stmt 0 view .LVU306
	movl	$4, %edi	#,
	call	malloc@PLT	#
.LVL93:
# tracker.c:221:     buf_put_u32(&w, pc);
	.loc 1 221 5 view .LVU307
	leaq	96(%rsp), %rdi	#, tmp335
	xorl	%esi, %esi	#
# tracker.c:220:     uint8_t *buf = malloc(cap), *w = buf;
	.loc 1 220 34 discriminator 1 view .LVU308
	movq	%rax, 96(%rsp)	# buf, MEM[(uint8_t * *)_207]
# tracker.c:220:     uint8_t *buf = malloc(cap), *w = buf;
	.loc 1 220 20 view .LVU309
	movq	%rax, %rbp	# tmp386, buf
.LVL94:
	.loc 1 221 5 is_stmt 1 view .LVU310
	call	buf_put_u32@PLT	#
.LVL95:
	.loc 1 222 5 view .LVU311
.L101:
	.loc 1 227 5 view .LVU312
	movq	%r14, %rdi	# tmp364,
	call	pthread_mutex_unlock@PLT	#
.LVL96:
	.loc 1 228 5 view .LVU313
	movl	96(%rsp), %ecx	# MEM[(uint8_t * *)_207], tmp296
	movl	%r12d, %edi	# fd,
	movq	%rbp, %rdx	# buf,
	movl	$8, %esi	#,
	subl	%ebp, %ecx	# buf, tmp296
	call	msg_send@PLT	#
.LVL97:
	.loc 1 229 5 view .LVU314
	movq	%rbp, %rdi	# buf,
	call	free@PLT	#
.LVL98:
	jmp	.L59	#
.LVL99:
	.p2align 4,,10
	.p2align 3
.L162:
.LBB188:
.LBB187:
# tracker.c:50:         if (memcmp(f->file_hash, hash, HASH_SIZE) == 0) return f;
	.loc 1 50 13 is_stmt 0 view .LVU315
	movq	16(%r15), %rax	# MEM <char[1:32]> [(void *)f_339], tmp404
	movq	24(%r15), %rdx	# MEM <char[1:32]> [(void *)f_339], tmp406
	xorq	16(%rbp), %rax	# MEM <char[1:32]> [(void *)_82], tmp403
	xorq	24(%rbp), %rdx	# MEM <char[1:32]> [(void *)_82], tmp405
	orq	%rdx, %rax	# tmp405, tmp403
	je	.L161	#,
.L123:
	.loc 1 49 40 is_stmt 1 discriminator 2 view .LVU316
	movq	320(%r15), %r15	# f_339->next, f
.LVL100:
	.loc 1 49 35 discriminator 1 view .LVU317
	testq	%r15, %r15	# f
	je	.L69	#,
.L73:
	.loc 1 50 9 view .LVU318
# tracker.c:50:         if (memcmp(f->file_hash, hash, HASH_SIZE) == 0) return f;
	.loc 1 50 13 is_stmt 0 view .LVU319
	movq	(%r15), %rax	# MEM <char[1:32]> [(void *)f_339], tmp408
	movq	8(%r15), %rdx	# MEM <char[1:32]> [(void *)f_339], tmp410
	xorq	0(%rbp), %rax	# MEM <char[1:32]> [(void *)_82], tmp407
	xorq	8(%rbp), %rdx	# MEM <char[1:32]> [(void *)_82], tmp409
	orq	%rdx, %rax	# tmp409, tmp407
	jne	.L123	#,
	.loc 1 50 13 view .LVU320
	jmp	.L162	#
	.p2align 4,,10
	.p2align 3
.L161:
.LVL101:
	.loc 1 50 13 view .LVU321
.LBE187:
.LBE188:
	.loc 1 217 5 is_stmt 1 view .LVU322
	.loc 1 218 5 view .LVU323
	.loc 1 218 12 discriminator 1 view .LVU324
.LBB189:
	.loc 1 218 17 discriminator 1 view .LVU325
# tracker.c:218:     if (f) for (peer_entry_t *pp = f->peers; pp; pp = pp->next) pc++;
	.loc 1 218 31 is_stmt 0 discriminator 1 view .LVU326
	movq	312(%r15), %rax	# f_339->peers, pp
.LVL102:
	.loc 1 218 46 is_stmt 1 discriminator 2 view .LVU327
.LBE189:
# tracker.c:217:     uint32_t pc = 0;
	.loc 1 217 14 is_stmt 0 view .LVU328
	xorl	%esi, %esi	# pc
.LBB190:
# tracker.c:218:     if (f) for (peer_entry_t *pp = f->peers; pp; pp = pp->next) pc++;
	.loc 1 218 46 discriminator 2 view .LVU329
	testq	%rax, %rax	# pp
	je	.L163	#,
.LVL103:
	.p2align 4,,10
	.p2align 3
.L74:
	.loc 1 218 65 is_stmt 1 discriminator 4 view .LVU330
# tracker.c:218:     if (f) for (peer_entry_t *pp = f->peers; pp; pp = pp->next) pc++;
	.loc 1 218 53 is_stmt 0 discriminator 4 view .LVU331
	movq	24(%rax), %rax	# pp_337->next, pp
.LVL104:
# tracker.c:218:     if (f) for (peer_entry_t *pp = f->peers; pp; pp = pp->next) pc++;
	.loc 1 218 67 discriminator 4 view .LVU332
	addl	$1, %esi	#, pc
.LVL105:
	.loc 1 218 53 is_stmt 1 discriminator 4 view .LVU333
	.loc 1 218 46 discriminator 2 view .LVU334
	testq	%rax, %rax	# pp
	jne	.L74	#,
	.loc 1 218 46 is_stmt 0 discriminator 2 view .LVU335
.LBE190:
	.loc 1 219 5 is_stmt 1 view .LVU336
.LVL106:
	.loc 1 220 5 view .LVU337
# tracker.c:219:     size_t cap = 4 + (size_t)pc * (PEER_ID_SIZE + 4 + 2);
	.loc 1 219 22 is_stmt 0 view .LVU338
	movl	%esi, %eax	# pc, pc
.LVL107:
	.loc 1 219 22 view .LVU339
	movl	%esi, 48(%rsp)	# pc, %sfp
# tracker.c:221:     buf_put_u32(&w, pc);
	.loc 1 221 5 view .LVU340
	leaq	96(%rsp), %rbx	#, tmp363
# tracker.c:219:     size_t cap = 4 + (size_t)pc * (PEER_ID_SIZE + 4 + 2);
	.loc 1 219 33 view .LVU341
	leaq	(%rax,%rax,4), %rdx	#, tmp281
	leaq	(%rax,%rdx,2), %rax	#, tmp283
# tracker.c:219:     size_t cap = 4 + (size_t)pc * (PEER_ID_SIZE + 4 + 2);
	.loc 1 219 12 view .LVU342
	leaq	4(%rax,%rax), %rdi	#, cap
# tracker.c:220:     uint8_t *buf = malloc(cap), *w = buf;
	.loc 1 220 20 view .LVU343
	call	malloc@PLT	#
.LVL108:
# tracker.c:221:     buf_put_u32(&w, pc);
	.loc 1 221 5 view .LVU344
	movl	48(%rsp), %esi	# %sfp, pc
	movq	%rbx, %rdi	# tmp363,
# tracker.c:220:     uint8_t *buf = malloc(cap), *w = buf;
	.loc 1 220 34 discriminator 1 view .LVU345
	movq	%rax, 96(%rsp)	# buf, MEM[(uint8_t * *)_207]
# tracker.c:220:     uint8_t *buf = malloc(cap), *w = buf;
	.loc 1 220 20 view .LVU346
	movq	%rax, %rbp	# tmp379, buf
.LVL109:
	.loc 1 221 5 is_stmt 1 view .LVU347
	call	buf_put_u32@PLT	#
.LVL110:
	.loc 1 222 5 view .LVU348
.L100:
	.loc 1 222 12 discriminator 1 view .LVU349
.LBB191:
	.loc 1 222 17 discriminator 1 view .LVU350
# tracker.c:222:     if (f) for (peer_entry_t *pp = f->peers; pp; pp = pp->next) {
	.loc 1 222 31 is_stmt 0 discriminator 1 view .LVU351
	movq	312(%r15), %r15	# f_339->peers, pp
.LVL111:
	.loc 1 222 46 is_stmt 1 discriminator 2 view .LVU352
	testq	%r15, %r15	# pp
	je	.L101	#,
	.p2align 4,,10
	.p2align 3
.L76:
	.loc 1 223 9 view .LVU353
	movl	$16, %edx	#,
	movq	%r15, %rsi	# pp,
	movq	%rbx, %rdi	# tmp363,
	call	buf_put_bytes@PLT	#
.LVL112:
	.loc 1 224 9 view .LVU354
	movl	16(%r15), %esi	# pp_338->ip, pp_338->ip
	movq	%rbx, %rdi	# tmp363,
	call	buf_put_u32@PLT	#
.LVL113:
	.loc 1 225 9 view .LVU355
	movzwl	20(%r15), %esi	# pp_338->port, pp_338->port
	movq	%rbx, %rdi	# tmp363,
	call	buf_put_u16@PLT	#
.LVL114:
	.loc 1 222 53 discriminator 4 view .LVU356
	movq	24(%r15), %r15	# pp_338->next, pp
.LVL115:
	.loc 1 222 46 discriminator 2 view .LVU357
	testq	%r15, %r15	# pp
	jne	.L76	#,
	jmp	.L101	#
.LVL116:
.L48:
	.loc 1 222 46 is_stmt 0 discriminator 2 view .LVU358
.LBE191:
.LBE184:
.LBE183:
	.loc 1 289 37 is_stmt 1 view .LVU359
.LBB195:
.LBI195:
	.loc 1 180 13 view .LVU360
.LBB196:
	.loc 1 181 5 view .LVU361
	leaq	lock(%rip), %r14	#, tmp364
# tracker.c:183:     size_t   cap   = 4;
	.loc 1 183 14 is_stmt 0 view .LVU362
	movl	$4, %r15d	#, cap
# tracker.c:182:     uint32_t count = 0;
	.loc 1 182 14 view .LVU363
	xorl	%ebp, %ebp	# count
# tracker.c:181:     pthread_mutex_lock(&lock);
	.loc 1 181 5 view .LVU364
	movq	%r14, %rdi	# tmp364,
	call	pthread_mutex_lock@PLT	#
.LVL117:
	.loc 1 182 5 is_stmt 1 view .LVU365
	.loc 1 183 5 view .LVU366
	.loc 1 184 5 view .LVU367
.LBB197:
	.loc 1 184 10 view .LVU368
# tracker.c:184:     for (file_entry_t *f = files; f; f = f->next) {
	.loc 1 184 24 is_stmt 0 view .LVU369
	movq	files(%rip), %rbx	# files, f
.LVL118:
	.loc 1 184 35 is_stmt 1 discriminator 1 view .LVU370
	testq	%rbx, %rbx	# f
	je	.L61	#,
.LVL119:
	.p2align 4,,10
	.p2align 3
.L62:
	.loc 1 185 9 view .LVU371
# tracker.c:186:         cap += HASH_SIZE + 2 + strlen(f->filename) + 8 + 4 + 4 + 4;
	.loc 1 186 32 is_stmt 0 view .LVU372
	leaq	32(%rbx), %rdi	#, tmp242
# tracker.c:185:         count++;
	.loc 1 185 14 view .LVU373
	addl	$1, %ebp	#, count
.LVL120:
	.loc 1 186 9 is_stmt 1 view .LVU374
# tracker.c:186:         cap += HASH_SIZE + 2 + strlen(f->filename) + 8 + 4 + 4 + 4;
	.loc 1 186 32 is_stmt 0 view .LVU375
	call	strlen@PLT	#
.LVL121:
# tracker.c:184:     for (file_entry_t *f = files; f; f = f->next) {
	.loc 1 184 40 discriminator 3 view .LVU376
	movq	320(%rbx), %rbx	# f_37->next, f
.LVL122:
# tracker.c:186:         cap += HASH_SIZE + 2 + strlen(f->filename) + 8 + 4 + 4 + 4;
	.loc 1 186 13 discriminator 1 view .LVU377
	leaq	54(%r15,%rax), %r15	#, cap
.LVL123:
	.loc 1 184 40 is_stmt 1 discriminator 3 view .LVU378
	.loc 1 184 35 discriminator 1 view .LVU379
	testq	%rbx, %rbx	# f
	jne	.L62	#,
.LVL124:
.L61:
	.loc 1 184 35 is_stmt 0 discriminator 1 view .LVU380
.LBE197:
	.loc 1 188 5 is_stmt 1 view .LVU381
# tracker.c:188:     uint8_t *buf = malloc(cap), *w = buf;
	.loc 1 188 20 is_stmt 0 view .LVU382
	movq	%r15, %rdi	# cap,
# tracker.c:189:     buf_put_u32(&w, count);
	.loc 1 189 5 view .LVU383
	leaq	96(%rsp), %rbx	#, tmp363
.LVL125:
# tracker.c:188:     uint8_t *buf = malloc(cap), *w = buf;
	.loc 1 188 20 view .LVU384
	call	malloc@PLT	#
.LVL126:
# tracker.c:189:     buf_put_u32(&w, count);
	.loc 1 189 5 view .LVU385
	movl	%ebp, %esi	# count,
	movq	%rbx, %rdi	# tmp363,
# tracker.c:188:     uint8_t *buf = malloc(cap), *w = buf;
	.loc 1 188 34 discriminator 1 view .LVU386
	movq	%rax, 96(%rsp)	# buf, MEM[(uint8_t * *)_207]
# tracker.c:188:     uint8_t *buf = malloc(cap), *w = buf;
	.loc 1 188 20 view .LVU387
	movq	%rax, %r15	# tmp376, buf
.LVL127:
	.loc 1 189 5 is_stmt 1 view .LVU388
	call	buf_put_u32@PLT	#
.LVL128:
	.loc 1 190 5 view .LVU389
.LBB198:
	.loc 1 190 10 view .LVU390
# tracker.c:190:     for (file_entry_t *f = files; f; f = f->next) {
	.loc 1 190 24 is_stmt 0 view .LVU391
	movq	files(%rip), %rbp	# files, f
.LVL129:
	.loc 1 190 35 is_stmt 1 discriminator 1 view .LVU392
	testq	%rbp, %rbp	# f
	je	.L67	#,
	movl	%r12d, 48(%rsp)	# fd, %sfp
	movq	%r14, 56(%rsp)	# tmp364, %sfp
	.p2align 4,,10
	.p2align 3
.L63:
.LBB199:
	.loc 1 191 9 view .LVU393
	movl	$32, %edx	#,
	movq	%rbp, %rsi	# f,
# tracker.c:192:         uint16_t nl = (uint16_t)strlen(f->filename);
	.loc 1 192 41 is_stmt 0 view .LVU394
	leaq	32(%rbp), %r12	#, _110
# tracker.c:191:         buf_put_bytes(&w, f->file_hash, HASH_SIZE);
	.loc 1 191 9 view .LVU395
	movq	%rbx, %rdi	# tmp363,
	call	buf_put_bytes@PLT	#
.LVL130:
	.loc 1 192 9 is_stmt 1 view .LVU396
# tracker.c:192:         uint16_t nl = (uint16_t)strlen(f->filename);
	.loc 1 192 33 is_stmt 0 view .LVU397
	movq	%r12, %rdi	# _110,
	call	strlen@PLT	#
.LVL131:
# tracker.c:193:         buf_put_u16  (&w, nl);
	.loc 1 193 9 view .LVU398
	movq	%rbx, %rdi	# tmp363,
# tracker.c:192:         uint16_t nl = (uint16_t)strlen(f->filename);
	.loc 1 192 33 view .LVU399
	movq	%rax, %r14	# tmp377, tmp254
.LVL132:
	.loc 1 193 9 is_stmt 1 view .LVU400
	movzwl	%ax, %esi	# tmp254, _111
	call	buf_put_u16@PLT	#
.LVL133:
	.loc 1 194 9 view .LVU401
	movzwl	%r14w, %edx	# tmp254, _111
	movq	%r12, %rsi	# _110,
	movq	%rbx, %rdi	# tmp363,
	call	buf_put_bytes@PLT	#
.LVL134:
	.loc 1 195 9 view .LVU402
	movq	288(%rbp), %rsi	# f_47->file_size, f_47->file_size
	movq	%rbx, %rdi	# tmp363,
	call	buf_put_u64@PLT	#
.LVL135:
	.loc 1 196 9 view .LVU403
	movl	296(%rbp), %esi	# f_47->chunk_size, f_47->chunk_size
	movq	%rbx, %rdi	# tmp363,
	call	buf_put_u32@PLT	#
.LVL136:
	.loc 1 197 9 view .LVU404
	movl	300(%rbp), %esi	# f_47->chunk_count, f_47->chunk_count
	movq	%rbx, %rdi	# tmp363,
	call	buf_put_u32@PLT	#
.LVL137:
	.loc 1 198 9 view .LVU405
	.loc 1 199 9 view .LVU406
.LBB200:
	.loc 1 199 14 view .LVU407
# tracker.c:199:         for (peer_entry_t *p = f->peers; p; p = p->next) pc++;
	.loc 1 199 28 is_stmt 0 view .LVU408
	movq	312(%rbp), %rax	# f_47->peers, p
.LVL138:
	.loc 1 199 42 is_stmt 1 discriminator 1 view .LVU409
.LBE200:
# tracker.c:198:         uint32_t pc = 0;
	.loc 1 198 18 is_stmt 0 view .LVU410
	xorl	%esi, %esi	# pc
.LBB201:
# tracker.c:199:         for (peer_entry_t *p = f->peers; p; p = p->next) pc++;
	.loc 1 199 42 discriminator 1 view .LVU411
	testq	%rax, %rax	# p
	je	.L65	#,
.LVL139:
	.p2align 4,,10
	.p2align 3
.L66:
	.loc 1 199 58 is_stmt 1 discriminator 3 view .LVU412
# tracker.c:199:         for (peer_entry_t *p = f->peers; p; p = p->next) pc++;
	.loc 1 199 47 is_stmt 0 discriminator 3 view .LVU413
	movq	24(%rax), %rax	# p_335->next, p
.LVL140:
# tracker.c:199:         for (peer_entry_t *p = f->peers; p; p = p->next) pc++;
	.loc 1 199 60 discriminator 3 view .LVU414
	addl	$1, %esi	#, pc
.LVL141:
	.loc 1 199 47 is_stmt 1 discriminator 3 view .LVU415
	.loc 1 199 42 discriminator 1 view .LVU416
	testq	%rax, %rax	# p
	jne	.L66	#,
.LVL142:
.L65:
	.loc 1 199 42 is_stmt 0 discriminator 1 view .LVU417
.LBE201:
	.loc 1 200 9 is_stmt 1 view .LVU418
	movq	%rbx, %rdi	# tmp363,
	call	buf_put_u32@PLT	#
.LVL143:
	.loc 1 200 9 is_stmt 0 view .LVU419
.LBE199:
	.loc 1 190 40 is_stmt 1 discriminator 2 view .LVU420
	movq	320(%rbp), %rbp	# f_47->next, f
.LVL144:
	.loc 1 190 35 discriminator 1 view .LVU421
	testq	%rbp, %rbp	# f
	jne	.L63	#,
	movl	48(%rsp), %r12d	# %sfp, fd
	movq	56(%rsp), %r14	# %sfp, tmp364
.LVL145:
.L67:
	.loc 1 190 35 is_stmt 0 discriminator 1 view .LVU422
.LBE198:
	.loc 1 202 5 is_stmt 1 view .LVU423
	movq	%r14, %rdi	# tmp364,
	call	pthread_mutex_unlock@PLT	#
.LVL146:
	.loc 1 203 5 view .LVU424
	movl	96(%rsp), %ecx	# MEM[(uint8_t * *)_207], tmp251
	movl	%r12d, %edi	# fd,
	movq	%r15, %rdx	# buf,
	movl	$6, %esi	#,
	subl	%r15d, %ecx	# buf, tmp251
	call	msg_send@PLT	#
.LVL147:
	.loc 1 204 5 view .LVU425
	movq	%r15, %rdi	# buf,
	call	free@PLT	#
.LVL148:
	.loc 1 204 5 is_stmt 0 view .LVU426
.LBE196:
.LBE195:
	.loc 1 289 63 is_stmt 1 discriminator 1 view .LVU427
.LBB203:
.LBB202:
# tracker.c:205: }
	.loc 1 205 1 is_stmt 0 view .LVU428
	jmp	.L59	#
.L49:
.LBE202:
.LBE203:
	.loc 1 284 17 is_stmt 1 view .LVU429
# tracker.c:284:                 if (registered)
	.loc 1 284 20 is_stmt 0 view .LVU430
	movl	40(%rsp), %edx	# %sfp,
	testl	%edx, %edx	#
	je	.L60	#,
	.loc 1 285 21 is_stmt 1 view .LVU431
	movq	32(%rsp), %rax	# %sfp, arg
	movzwl	46(%rsp), %r9d	# %sfp,
	leaq	112(%rsp), %rcx	#, tmp365
	movl	%r12d, %edi	# fd,
	movl	76(%rsp), %edx	# plen,
	movq	80(%rsp), %rsi	# payload,
	movl	4(%rax), %r8d	# MEM[(struct client_ctx_t *)arg_32(D)].ip,
	call	handle_announce	#
.LVL149:
.L52:
# tracker.c:281:                 registered = 1;
	.loc 1 281 28 is_stmt 0 view .LVU432
	movl	$1, 40(%rsp)	#, %sfp
.LVL150:
	.loc 1 281 28 view .LVU433
	jmp	.L59	#
.LVL151:
.L50:
	.loc 1 280 17 is_stmt 1 view .LVU434
	movq	32(%rsp), %rax	# %sfp, arg
.LBB204:
.LBB205:
# tracker.c:105:     const uint8_t *p = payload, *end = payload + plen;
	.loc 1 105 48 is_stmt 0 view .LVU435
	movl	76(%rsp), %edx	# plen, plen.6_5
# tracker.c:108:     if (buf_get_bytes(&p, end, pid, PEER_ID_SIZE) < 0 ||
	.loc 1 108 9 view .LVU436
	leaq	96(%rsp), %r15	#, tmp219
	leaq	128(%rsp), %rbp	#, tmp366
	movl	$16, %ecx	#,
	movq	%r15, %rdi	# tmp219,
.LBE205:
.LBE204:
# tracker.c:280:                 handle_register(fd, payload, plen, ctx->ip, peer_id, &listen_port);
	.loc 1 280 17 view .LVU437
	movl	4(%rax), %ebx	# MEM[(struct client_ctx_t *)arg_32(D)].ip, _4
	movq	80(%rsp), %rax	# payload, payload.7_6
.LVL152:
.LBB236:
.LBI204:
	.loc 1 101 13 is_stmt 1 view .LVU438
.LBB232:
	.loc 1 105 5 view .LVU439
# tracker.c:105:     const uint8_t *p = payload, *end = payload + plen;
	.loc 1 105 34 is_stmt 0 view .LVU440
	leaq	(%rax,%rdx), %r14	#, end
.LVL153:
	.loc 1 106 5 is_stmt 1 view .LVU441
	.loc 1 107 5 view .LVU442
	.loc 1 108 5 view .LVU443
# tracker.c:108:     if (buf_get_bytes(&p, end, pid, PEER_ID_SIZE) < 0 ||
	.loc 1 108 9 is_stmt 0 view .LVU444
	movq	%rbp, %rdx	# tmp366,
# tracker.c:105:     const uint8_t *p = payload, *end = payload + plen;
	.loc 1 105 20 view .LVU445
	movq	%rax, 96(%rsp)	# payload.7_6, MEM[(const uint8_t * *)_207]
# tracker.c:108:     if (buf_get_bytes(&p, end, pid, PEER_ID_SIZE) < 0 ||
	.loc 1 108 9 view .LVU446
	movq	%r14, %rsi	# end,
	call	buf_get_bytes@PLT	#
.LVL154:
# tracker.c:108:     if (buf_get_bytes(&p, end, pid, PEER_ID_SIZE) < 0 ||
	.loc 1 108 8 discriminator 1 view .LVU447
	testl	%eax, %eax	# tmp371
	js	.L53	#,
# tracker.c:109:         buf_get_u16  (&p, end, &listen_port)       < 0) {
	.loc 1 109 9 view .LVU448
	leaq	88(%rsp), %rdx	#, tmp221
	movq	%r14, %rsi	# end,
	movq	%r15, %rdi	# tmp219,
	call	buf_get_u16@PLT	#
.LVL155:
# tracker.c:108:     if (buf_get_bytes(&p, end, pid, PEER_ID_SIZE) < 0 ||
	.loc 1 108 55 discriminator 1 view .LVU449
	testl	%eax, %eax	# tmp372
	js	.L53	#,
	.loc 1 112 5 is_stmt 1 view .LVU450
	leaq	lock(%rip), %r14	#, tmp364
.LVL156:
	.loc 1 112 5 is_stmt 0 view .LVU451
	movq	%r14, %rdi	# tmp364,
	call	pthread_mutex_lock@PLT	#
.LVL157:
	.loc 1 113 5 is_stmt 1 view .LVU452
	.loc 1 114 5 view .LVU453
.LBB206:
	.loc 1 114 10 view .LVU454
# tracker.c:114:     for (peer_entry_t *pe = peers; pe; pe = pe->next)
	.loc 1 114 24 is_stmt 0 view .LVU455
	movq	peers(%rip), %r15	# peers, pe
.LVL158:
	.loc 1 114 36 is_stmt 1 discriminator 1 view .LVU456
	testq	%r15, %r15	# pe
	je	.L54	#,
# tracker.c:114:     for (peer_entry_t *pe = peers; pe; pe = pe->next)
	.loc 1 114 24 is_stmt 0 view .LVU457
	movq	%r15, %rdx	# pe, pe
	jmp	.L58	#
.LVL159:
	.p2align 4,,10
	.p2align 3
.L122:
	.loc 1 114 43 is_stmt 1 discriminator 2 view .LVU458
	movq	24(%rdx), %rdx	# pe_333->next, pe
.LVL160:
	.loc 1 114 36 discriminator 1 view .LVU459
	testq	%rdx, %rdx	# pe
	je	.L54	#,
.L58:
	.loc 1 115 9 view .LVU460
# tracker.c:115:         if (memcmp(pe->peer_id, pid, PEER_ID_SIZE) == 0) { exist = pe; break; }
	.loc 1 115 13 is_stmt 0 view .LVU461
	movq	(%rdx), %rax	# MEM <char[1:16]> [(void *)pe_333], tmp412
	movq	8(%rdx), %rcx	# MEM <char[1:16]> [(void *)pe_333], tmp414
	xorq	0(%rbp), %rax	# MEM <char[1:16]> [(void *)_82], tmp411
	xorq	8(%rbp), %rcx	# MEM <char[1:16]> [(void *)_82], tmp413
	orq	%rcx, %rax	# tmp413, tmp411
	jne	.L122	#,
.LVL161:
	.loc 1 115 13 view .LVU462
.LBE206:
	.loc 1 116 5 is_stmt 1 view .LVU463
.LBB207:
# tracker.c:121:         np->ip = client_ip; np->port = listen_port;
	.loc 1 121 38 is_stmt 0 view .LVU464
	movzwl	88(%rsp), %eax	# MEM[(short unsigned int *)_57], pretmp_45
	.loc 1 121 38 view .LVU465
.LBE207:
	.loc 1 117 9 is_stmt 1 view .LVU466
# tracker.c:117:         exist->ip = client_ip; exist->port = listen_port;
	.loc 1 117 19 is_stmt 0 view .LVU467
	movl	%ebx, 16(%rdx)	# _4, pe_333->ip
	.loc 1 117 32 is_stmt 1 view .LVU468
# tracker.c:117:         exist->ip = client_ip; exist->port = listen_port;
	.loc 1 117 44 is_stmt 0 view .LVU469
	movw	%ax, 20(%rdx)	# pretmp_45, pe_333->port
.LVL162:
.L102:
	.loc 1 124 5 is_stmt 1 view .LVU470
	movq	%r14, %rdi	# tmp364,
	call	pthread_mutex_unlock@PLT	#
.LVL163:
	.loc 1 125 5 view .LVU471
.LBB214:
.LBI214:
	.loc 3 26 1 view .LVU472
.LBB215:
	.loc 3 29 3 view .LVU473
.LBE215:
.LBE214:
# tracker.c:126:     *out_listen_port = listen_port;
	.loc 1 126 22 is_stmt 0 view .LVU474
	movzwl	88(%rsp), %eax	# MEM[(short unsigned int *)_57], listen_port
.LBB218:
.LBB219:
# tracker.c:98:     msg_send(fd, type, &status, 1);
	.loc 1 98 5 view .LVU475
	leaq	75(%rsp), %rdx	#, tmp231
	movl	%r12d, %edi	# fd,
	movl	$1, %ecx	#,
	movl	$2, %esi	#,
	movb	$0, 75(%rsp)	#, MEM[(unsigned char *)_44]
.LBE219:
.LBE218:
.LBB221:
.LBB216:
# /usr/include/x86_64-linux-gnu/bits/string_fortified.h:29:   return __builtin___memcpy_chk (__dest, __src, __len,
	.loc 3 29 10 discriminator 1 view .LVU476
	movdqa	128(%rsp), %xmm1	# MEM <uint128_t> [(char * {ref-all})_82], tmp475
.LBE216:
.LBE221:
# tracker.c:126:     *out_listen_port = listen_port;
	.loc 1 126 22 view .LVU477
	movw	%ax, 46(%rsp)	# listen_port, %sfp
.LVL164:
.LBB222:
.LBB217:
# /usr/include/x86_64-linux-gnu/bits/string_fortified.h:29:   return __builtin___memcpy_chk (__dest, __src, __len,
	.loc 3 29 10 discriminator 1 view .LVU478
	movaps	%xmm1, 112(%rsp)	# tmp475, MEM <uint128_t> [(char * {ref-all})&peer_id]
.LVL165:
	.loc 3 29 10 discriminator 1 view .LVU479
.LBE217:
.LBE222:
	.loc 1 126 5 is_stmt 1 view .LVU480
	.loc 1 127 5 view .LVU481
.LBB223:
.LBI218:
	.loc 1 97 13 view .LVU482
.LBB220:
	.loc 1 98 5 view .LVU483
	call	msg_send@PLT	#
.LVL166:
	.loc 1 98 5 is_stmt 0 view .LVU484
.LBE220:
.LBE223:
	.loc 1 128 5 is_stmt 1 view .LVU485
	movzwl	88(%rsp), %ebp	# MEM[(short unsigned int *)_57], _91
	movl	%ebx, %edi	# _4,
	call	ip_to_str@PLT	#
.LVL167:
.LBB224:
.LBB225:
# /usr/include/x86_64-linux-gnu/bits/stdio2.h:79:   return __fprintf_chk (__stream, __USE_FORTIFY_LEVEL - 1, __fmt,
	.loc 2 79 10 is_stmt 0 view .LVU486
	movq	stderr(%rip), %rdi	# stderr,
	movl	$2, %esi	#,
	leaq	.LC2(%rip), %rdx	#, tmp233
.LBE225:
.LBE224:
# tracker.c:128:     LOG_INFO("REGISTER %s:%u", ip_to_str(client_ip), listen_port);
	.loc 1 128 5 view .LVU487
	movq	%rax, %rcx	# tmp374, _92
.LVL168:
.LBB227:
.LBI224:
	.loc 2 77 1 is_stmt 1 view .LVU488
.LBB226:
	.loc 2 79 3 view .LVU489
# /usr/include/x86_64-linux-gnu/bits/stdio2.h:79:   return __fprintf_chk (__stream, __USE_FORTIFY_LEVEL - 1, __fmt,
	.loc 2 79 10 is_stmt 0 view .LVU490
	movl	%ebp, %r8d	# _91,
	xorl	%eax, %eax	#
	call	__fprintf_chk@PLT	#
.LVL169:
	.loc 2 79 10 view .LVU491
.LBE226:
.LBE227:
.LBE232:
.LBE236:
# tracker.c:281:                 registered = 1;
	.loc 1 281 28 view .LVU492
	movl	$1, 40(%rsp)	#, %sfp
.LVL170:
.LBB237:
.LBB233:
	.loc 1 281 28 view .LVU493
	jmp	.L59	#
.LVL171:
.L60:
	.loc 1 281 28 view .LVU494
.LBE233:
.LBE237:
	.loc 1 287 21 is_stmt 1 view .LVU495
.LBB238:
.LBB239:
# tracker.c:98:     msg_send(fd, type, &status, 1);
	.loc 1 98 5 is_stmt 0 view .LVU496
	leaq	96(%rsp), %rdx	#, tmp239
	movl	$1, %ecx	#,
	movl	$4, %esi	#,
	movl	%r12d, %edi	# fd,
	movb	$1, 96(%rsp)	#, MEM[(unsigned char *)_207]
.LVL172:
	.loc 1 98 5 view .LVU497
.LBE239:
.LBI238:
	.loc 1 97 13 is_stmt 1 view .LVU498
.LBB240:
	.loc 1 98 5 view .LVU499
	call	msg_send@PLT	#
.LVL173:
	.loc 1 98 5 is_stmt 0 view .LVU500
	jmp	.L59	#
.LVL174:
.L53:
	.loc 1 98 5 view .LVU501
.LBE240:
.LBE238:
.LBB241:
.LBB234:
	.loc 1 110 9 is_stmt 1 view .LVU502
.LBB228:
.LBB229:
# tracker.c:98:     msg_send(fd, type, &status, 1);
	.loc 1 98 5 is_stmt 0 view .LVU503
	leaq	75(%rsp), %rdx	#, tmp220
	movl	$1, %ecx	#,
	movl	$2, %esi	#,
	movl	%r12d, %edi	# fd,
	movb	$1, 75(%rsp)	#, MEM[(unsigned char *)_44]
.LVL175:
	.loc 1 98 5 view .LVU504
.LBE229:
.LBI228:
	.loc 1 97 13 is_stmt 1 view .LVU505
.LBB230:
	.loc 1 98 5 view .LVU506
	call	msg_send@PLT	#
.LVL176:
	.loc 1 98 5 is_stmt 0 view .LVU507
.LBE230:
.LBE228:
	.loc 1 110 47 is_stmt 1 discriminator 1 view .LVU508
	jmp	.L52	#
.LVL177:
.L155:
	.loc 1 110 47 is_stmt 0 discriminator 1 view .LVU509
.LBE234:
.LBE241:
.LBE248:
	.loc 1 303 9 is_stmt 1 view .LVU510
	leaq	lock(%rip), %rbx	#, tmp364
	movq	%rbx, %rdi	# tmp364,
	call	pthread_mutex_lock@PLT	#
.LVL178:
	.loc 1 304 9 view .LVU511
.LBB249:
.LBI249:
	.loc 1 68 13 view .LVU512
.LBB250:
	.loc 1 69 5 view .LVU513
.LBB251:
	.loc 1 69 10 view .LVU514
# tracker.c:69:     for (file_entry_t *f = files; f; f = f->next) {
	.loc 1 69 24 is_stmt 0 view .LVU515
	movq	files(%rip), %r14	# files, f
.LVL179:
	.loc 1 69 35 is_stmt 1 discriminator 1 view .LVU516
	testq	%r14, %r14	# f
	je	.L90	#,
	.p2align 4,,10
	.p2align 3
.L86:
.LBB252:
	.loc 1 70 9 view .LVU517
# tracker.c:71:         while (*pp) {
	.loc 1 71 16 is_stmt 0 view .LVU518
	movq	312(%r14), %rdi	# MEM[(struct peer_entry_t * *)f_341 + 312B], _196
# tracker.c:70:         peer_entry_t **pp = &f->peers;
	.loc 1 70 24 view .LVU519
	leaq	312(%r14), %r13	#, pp
.LVL180:
	.loc 1 71 9 is_stmt 1 view .LVU520
	.loc 1 71 16 view .LVU521
	leaq	112(%rsp), %rbp	#, tmp365
.LVL181:
	.loc 1 71 16 is_stmt 0 view .LVU522
	testq	%rdi, %rdi	# _196
	jne	.L89	#,
	.loc 1 71 16 view .LVU523
	jmp	.L95	#
	.p2align 4,,10
	.p2align 3
.L91:
	.loc 1 77 17 is_stmt 1 view .LVU524
# tracker.c:77:                 pp = &(*pp)->next;
	.loc 1 77 20 is_stmt 0 view .LVU525
	leaq	24(%rdi), %r13	#, pp
.LVL182:
	.loc 1 71 16 is_stmt 1 view .LVU526
	movq	0(%r13), %rdi	# *pp_213, _196
	testq	%rdi, %rdi	# _196
	je	.L95	#,
.L89:
	.loc 1 72 13 view .LVU527
# tracker.c:72:             if (memcmp((*pp)->peer_id, pid, PEER_ID_SIZE) == 0) {
	.loc 1 72 17 is_stmt 0 view .LVU528
	movq	(%rdi), %rax	# MEM <char[1:16]> [(void *)_342], tmp392
	movq	8(%rdi), %rdx	# MEM <char[1:16]> [(void *)_342], tmp394
	xorq	0(%rbp), %rax	# MEM <char[1:16]> [(void *)&peer_id], tmp391
	xorq	8(%rbp), %rdx	# MEM <char[1:16]> [(void *)&peer_id], tmp393
	orq	%rdx, %rax	# tmp393, tmp391
	jne	.L91	#,
.LBB253:
# tracker.c:74:                 *pp = dead->next;
	.loc 1 74 27 view .LVU529
	movq	24(%rdi), %rax	# _342->next, pretmp_222
	.loc 1 73 17 is_stmt 1 view .LVU530
.LVL183:
	.loc 1 74 17 view .LVU531
# tracker.c:74:                 *pp = dead->next;
	.loc 1 74 21 is_stmt 0 view .LVU532
	movq	%rax, 0(%r13)	# pretmp_222, *pp_343
	.loc 1 75 17 is_stmt 1 view .LVU533
	call	free@PLT	#
.LVL184:
	.loc 1 75 17 is_stmt 0 view .LVU534
.LBE253:
	.loc 1 71 16 is_stmt 1 view .LVU535
	movq	0(%r13), %rdi	# *pp_213, _196
	testq	%rdi, %rdi	# _196
	jne	.L89	#,
.LVL185:
.L95:
	.loc 1 71 16 is_stmt 0 view .LVU536
.LBE252:
	.loc 1 69 40 is_stmt 1 discriminator 2 view .LVU537
	movq	320(%r14), %r14	# f_341->next, f
.LVL186:
	.loc 1 69 35 discriminator 1 view .LVU538
	testq	%r14, %r14	# f
	jne	.L86	#,
.LVL187:
.L90:
	.loc 1 69 35 is_stmt 0 discriminator 1 view .LVU539
.LBE251:
	.loc 1 82 12 is_stmt 1 view .LVU540
	movq	peers(%rip), %rdi	# peers, _203
# tracker.c:81:     peer_entry_t **pp = &peers;
	.loc 1 81 20 is_stmt 0 view .LVU541
	leaq	peers(%rip), %r13	#, pp
	leaq	112(%rsp), %rbp	#, tmp365
.LVL188:
# tracker.c:82:     while (*pp) {
	.loc 1 82 12 view .LVU542
	testq	%rdi, %rdi	# _203
	jne	.L87	#,
	jmp	.L88	#
.LVL189:
	.p2align 4,,10
	.p2align 3
.L96:
	.loc 1 86 13 is_stmt 1 view .LVU543
# tracker.c:86:             pp = &(*pp)->next;
	.loc 1 86 16 is_stmt 0 view .LVU544
	leaq	24(%rdi), %r13	#, pp
.LVL190:
	.loc 1 82 12 is_stmt 1 view .LVU545
	movq	0(%r13), %rdi	# *pp_3, _203
	testq	%rdi, %rdi	# _203
	je	.L88	#,
.LVL191:
.L87:
	.loc 1 83 9 view .LVU546
# tracker.c:83:         if (memcmp((*pp)->peer_id, pid, PEER_ID_SIZE) == 0) {
	.loc 1 83 13 is_stmt 0 view .LVU547
	movq	(%rdi), %rax	# MEM <char[1:16]> [(void *)_344], tmp388
	movq	8(%rdi), %rdx	# MEM <char[1:16]> [(void *)_344], tmp390
	xorq	0(%rbp), %rax	# MEM <char[1:16]> [(void *)&peer_id], tmp387
	xorq	8(%rbp), %rdx	# MEM <char[1:16]> [(void *)&peer_id], tmp389
	orq	%rdx, %rax	# tmp389, tmp387
	jne	.L96	#,
.LBB254:
# tracker.c:84:             peer_entry_t *d = *pp; *pp = d->next; free(d);
	.loc 1 84 43 view .LVU548
	movq	24(%rdi), %rax	# _344->next, pretmp_194
	.loc 1 84 13 is_stmt 1 view .LVU549
.LVL192:
	.loc 1 84 36 view .LVU550
# tracker.c:84:             peer_entry_t *d = *pp; *pp = d->next; free(d);
	.loc 1 84 40 is_stmt 0 view .LVU551
	movq	%rax, 0(%r13)	# pretmp_194, *pp_345
	.loc 1 84 51 is_stmt 1 view .LVU552
	call	free@PLT	#
.LVL193:
	.loc 1 84 51 is_stmt 0 view .LVU553
.LBE254:
	.loc 1 82 12 is_stmt 1 view .LVU554
	movq	0(%r13), %rdi	# *pp_3, _203
	testq	%rdi, %rdi	# _203
	jne	.L87	#,
.LVL194:
.L88:
	.loc 1 82 12 is_stmt 0 view .LVU555
.LBE250:
.LBE249:
	.loc 1 305 9 is_stmt 1 view .LVU556
	movq	%rbx, %rdi	# tmp364,
	call	pthread_mutex_unlock@PLT	#
.LVL195:
	.loc 1 306 9 view .LVU557
	movq	32(%rsp), %rax	# %sfp, arg
	movl	4(%rax), %edi	# MEM[(struct client_ctx_t *)arg_32(D)].ip, MEM[(struct client_ctx_t *)arg_32(D)].ip
	call	ip_to_str@PLT	#
.LVL196:
.LBB255:
.LBB256:
# /usr/include/x86_64-linux-gnu/bits/stdio2.h:79:   return __fprintf_chk (__stream, __USE_FORTIFY_LEVEL - 1, __fmt,
	.loc 2 79 10 is_stmt 0 view .LVU558
	movzwl	46(%rsp), %r8d	# %sfp,
	movl	$2, %esi	#,
	movq	stderr(%rip), %rdi	# stderr,
.LBE256:
.LBE255:
# tracker.c:306:         LOG_INFO("DISCONNECT %s:%u", ip_to_str(ctx->ip), listen_port);
	.loc 1 306 9 view .LVU559
	movq	%rax, %rcx	# tmp384, _24
.LVL197:
.LBB258:
.LBI255:
	.loc 2 77 1 is_stmt 1 view .LVU560
.LBB257:
	.loc 2 79 3 view .LVU561
# /usr/include/x86_64-linux-gnu/bits/stdio2.h:79:   return __fprintf_chk (__stream, __USE_FORTIFY_LEVEL - 1, __fmt,
	.loc 2 79 10 is_stmt 0 view .LVU562
	leaq	.LC4(%rip), %rdx	#, tmp328
	xorl	%eax, %eax	#
	call	__fprintf_chk@PLT	#
.LVL198:
	.loc 2 79 10 view .LVU563
	jmp	.L85	#
.LVL199:
.L159:
	.loc 2 79 10 view .LVU564
.LBE257:
.LBE258:
.LBB259:
.LBB242:
.LBB182:
	.loc 1 259 9 is_stmt 1 view .LVU565
# tracker.c:259:         buf_put_bytes(&w, f->chunk_hashes, (size_t)f->chunk_count * HASH_SIZE);
	.loc 1 259 44 is_stmt 0 view .LVU566
	movl	%eax, %edx	# _179, _179
# tracker.c:259:         buf_put_bytes(&w, f->chunk_hashes, (size_t)f->chunk_count * HASH_SIZE);
	.loc 1 259 9 view .LVU567
	movq	304(%r15), %rsi	# f_340->chunk_hashes, f_340->chunk_hashes
	movq	%rbx, %rdi	# tmp344,
	salq	$5, %rdx	#, tmp309
	call	buf_put_bytes@PLT	#
.LVL200:
	jmp	.L105	#
.LVL201:
.L160:
	.loc 1 259 9 view .LVU568
.LBE182:
.LBE242:
.LBB243:
.LBB193:
.LBB192:
	.loc 1 211 9 is_stmt 1 view .LVU569
	.loc 1 212 9 view .LVU570
	.loc 1 212 26 view .LVU571
# tracker.c:212:         uint8_t  tmp[4]; uint8_t *w = tmp; buf_put_u32(&w, zero);
	.loc 1 212 35 is_stmt 0 view .LVU572
	leaq	108(%rsp), %rbx	#, tmp271
# tracker.c:212:         uint8_t  tmp[4]; uint8_t *w = tmp; buf_put_u32(&w, zero);
	.loc 1 212 44 view .LVU573
	leaq	96(%rsp), %rdi	#, tmp272
	xorl	%esi, %esi	#
# tracker.c:212:         uint8_t  tmp[4]; uint8_t *w = tmp; buf_put_u32(&w, zero);
	.loc 1 212 35 view .LVU574
	movq	%rbx, 96(%rsp)	# tmp271, MEM[(uint8_t * *)_207]
	.loc 1 212 44 is_stmt 1 view .LVU575
	call	buf_put_u32@PLT	#
.LVL202:
	.loc 1 213 9 view .LVU576
	movl	$4, %ecx	#,
	movq	%rbx, %rdx	# tmp271,
	movl	%r12d, %edi	# fd,
	movl	$8, %esi	#,
	call	msg_send@PLT	#
.LVL203:
	.loc 1 213 51 discriminator 1 view .LVU577
	jmp	.L59	#
.LVL204:
.L54:
	.loc 1 213 51 is_stmt 0 discriminator 1 view .LVU578
.LBE192:
.LBE193:
.LBE243:
.LBB244:
.LBB235:
.LBB231:
	.loc 1 119 9 is_stmt 1 view .LVU579
# tracker.c:119:         peer_entry_t *np = calloc(1, sizeof *np);
	.loc 1 119 28 is_stmt 0 view .LVU580
	movl	$32, %esi	#,
	movl	$1, %edi	#,
	call	calloc@PLT	#
.LVL205:
	.loc 1 120 9 is_stmt 1 view .LVU581
.LBB208:
.LBI208:
	.loc 3 26 1 view .LVU582
.LBB209:
	.loc 3 29 3 view .LVU583
.LBE209:
.LBE208:
# tracker.c:121:         np->ip = client_ip; np->port = listen_port;
	.loc 1 121 38 is_stmt 0 view .LVU584
	movzwl	88(%rsp), %edx	# MEM[(short unsigned int *)_57], MEM[(short unsigned int *)_57]
.LBB212:
.LBB210:
# /usr/include/x86_64-linux-gnu/bits/string_fortified.h:29:   return __builtin___memcpy_chk (__dest, __src, __len,
	.loc 3 29 10 discriminator 1 view .LVU585
	movdqa	128(%rsp), %xmm2	# MEM <uint128_t> [(char * {ref-all})_82], tmp474
.LBE210:
.LBE212:
# tracker.c:121:         np->ip = client_ip; np->port = listen_port;
	.loc 1 121 16 view .LVU586
	movl	%ebx, 16(%rax)	# _4, np_84->ip
# tracker.c:121:         np->ip = client_ip; np->port = listen_port;
	.loc 1 121 38 view .LVU587
	movw	%dx, 20(%rax)	# MEM[(short unsigned int *)_57], np_84->port
# tracker.c:122:         np->next = peers; peers = np;
	.loc 1 122 18 view .LVU588
	movq	%r15, 24(%rax)	# pe, np_84->next
# tracker.c:122:         np->next = peers; peers = np;
	.loc 1 122 33 view .LVU589
	movq	%rax, peers(%rip)	# tmp226, peers
.LBB213:
.LBB211:
# /usr/include/x86_64-linux-gnu/bits/string_fortified.h:29:   return __builtin___memcpy_chk (__dest, __src, __len,
	.loc 3 29 10 discriminator 1 view .LVU590
	movups	%xmm2, (%rax)	# tmp474, MEM <uint128_t> [(char * {ref-all})np_84]
.LVL206:
	.loc 3 29 10 discriminator 1 view .LVU591
.LBE211:
.LBE213:
	.loc 1 121 9 is_stmt 1 view .LVU592
	.loc 1 121 29 view .LVU593
	.loc 1 122 9 view .LVU594
	.loc 1 122 27 view .LVU595
	jmp	.L102	#
.LVL207:
.L163:
	.loc 1 122 27 is_stmt 0 view .LVU596
.LBE231:
.LBE235:
.LBE244:
.LBB245:
.LBB194:
	.loc 1 219 5 is_stmt 1 view .LVU597
	.loc 1 220 5 view .LVU598
# tracker.c:220:     uint8_t *buf = malloc(cap), *w = buf;
	.loc 1 220 20 is_stmt 0 view .LVU599
	movl	$4, %edi	#,
# tracker.c:221:     buf_put_u32(&w, pc);
	.loc 1 221 5 view .LVU600
	leaq	96(%rsp), %rbx	#, tmp363
# tracker.c:220:     uint8_t *buf = malloc(cap), *w = buf;
	.loc 1 220 20 view .LVU601
	call	malloc@PLT	#
.LVL208:
# tracker.c:221:     buf_put_u32(&w, pc);
	.loc 1 221 5 view .LVU602
	xorl	%esi, %esi	#
	movq	%rbx, %rdi	# tmp363,
# tracker.c:220:     uint8_t *buf = malloc(cap), *w = buf;
	.loc 1 220 34 discriminator 1 view .LVU603
	movq	%rax, 96(%rsp)	# buf, MEM[(uint8_t * *)_207]
# tracker.c:220:     uint8_t *buf = malloc(cap), *w = buf;
	.loc 1 220 20 view .LVU604
	movq	%rax, %rbp	# tmp385, buf
.LVL209:
	.loc 1 221 5 is_stmt 1 view .LVU605
	call	buf_put_u32@PLT	#
.LVL210:
	.loc 1 222 5 view .LVU606
	jmp	.L100	#
.LVL211:
.L156:
	.loc 1 222 5 is_stmt 0 view .LVU607
.LBE194:
.LBE245:
.LBE259:
# tracker.c:311: }
	.loc 1 311 1 view .LVU608
	call	__stack_chk_fail@PLT	#
.LVL212:
	.cfi_endproc
.LFE84:
	.size	client_thread, .-client_thread
	.section	.rodata.str1.1
.LC5:
	.string	"listen"
	.section	.rodata.str1.8
	.align 8
.LC6:
	.string	"[INFO] tracker listening on port %u\n"
	.section	.text.unlikely,"ax",@progbits
.LCOLDB7:
	.section	.text.startup,"ax",@progbits
.LHOTB7:
	.p2align 4
	.section	.text.unlikely
.Ltext_cold0:
	.section	.text.startup
	.globl	main
	.type	main, @function
main:
.LVL213:
.LFB85:
	.loc 1 313 33 is_stmt 1 view -0
	.cfi_startproc
	.loc 1 313 33 is_stmt 0 view .LVU610
	endbr64	
	pushq	%r15	#
	.cfi_def_cfa_offset 16
	.cfi_offset 15, -16
	pushq	%r14	#
	.cfi_def_cfa_offset 24
	.cfi_offset 14, -24
	pushq	%r13	#
	.cfi_def_cfa_offset 32
	.cfi_offset 13, -32
	pushq	%r12	#
	.cfi_def_cfa_offset 40
	.cfi_offset 12, -40
	pushq	%rbp	#
	.cfi_def_cfa_offset 48
	.cfi_offset 6, -48
	pushq	%rbx	#
	.cfi_def_cfa_offset 56
	.cfi_offset 3, -56
	movl	$6881, %ebx	#,
	subq	$40, %rsp	#,
	.cfi_def_cfa_offset 96
# tracker.c:313: int main(int argc, char **argv) {
	.loc 1 313 33 view .LVU611
	movq	%fs:40, %rax	# MEM[(<address-space-1> long unsigned int *)40B], tmp125
	movq	%rax, 24(%rsp)	# tmp125, D.7419
	xorl	%eax, %eax	# tmp125
	.loc 1 314 5 is_stmt 1 view .LVU612
.LVL214:
	.loc 1 315 5 view .LVU613
# tracker.c:315:     if (argc > 1) port = (uint16_t)atoi(argv[1]);
	.loc 1 315 8 is_stmt 0 view .LVU614
	cmpl	$1, %edi	#, tmp118
	jle	.L165	#,
	.loc 1 315 19 is_stmt 1 discriminator 1 view .LVU615
.LVL215:
.LBB260:
.LBI260:
	.file 4 "/usr/include/stdlib.h"
	.loc 4 481 1 view .LVU616
.LBB261:
	.loc 4 483 3 view .LVU617
# /usr/include/stdlib.h:483:   return (int) strtol (__nptr, (char **) NULL, 10);
	.loc 4 483 16 is_stmt 0 view .LVU618
	movq	8(%rsi), %rdi	# MEM[(char * *)argv_13(D) + 8B], MEM[(char * *)argv_13(D) + 8B]
.LVL216:
	.loc 4 483 16 view .LVU619
	movl	$10, %edx	#,
	xorl	%esi, %esi	#
.LVL217:
	.loc 4 483 16 view .LVU620
	call	__isoc23_strtol@PLT	#
.LVL218:
	.loc 4 483 16 view .LVU621
.LBE261:
.LBE260:
# tracker.c:315:     if (argc > 1) port = (uint16_t)atoi(argv[1]);
	.loc 1 315 24 discriminator 1 view .LVU622
	movzwl	%ax, %ebx	# tmp120,
.LVL219:
.L165:
	.loc 1 317 5 is_stmt 1 view .LVU623
	movl	$1, %esi	#,
	movl	$13, %edi	#,
	call	signal@PLT	#
.LVL220:
	.loc 1 318 5 view .LVU624
	movq	stderr(%rip), %rdi	# stderr,
	xorl	%ecx, %ecx	#
	xorl	%esi, %esi	#
	movl	$1, %edx	#,
	call	setvbuf@PLT	#
.LVL221:
	.loc 1 320 5 view .LVU625
# tracker.c:320:     int srv = tcp_listen(port);
	.loc 1 320 15 is_stmt 0 view .LVU626
	movl	%ebx, %edi	# _3,
	call	tcp_listen@PLT	#
.LVL222:
	movl	%eax, %ebp	# tmp121, srv
.LVL223:
	.loc 1 321 5 is_stmt 1 view .LVU627
# tracker.c:321:     if (srv < 0) { perror("listen"); return 1; }
	.loc 1 321 8 is_stmt 0 view .LVU628
	testl	%eax, %eax	# srv
	js	.L173	#,
	.loc 1 322 5 is_stmt 1 view .LVU629
.LVL224:
.LBB262:
.LBI262:
	.loc 2 77 1 view .LVU630
.LBB263:
	.loc 2 79 3 view .LVU631
# /usr/include/x86_64-linux-gnu/bits/stdio2.h:79:   return __fprintf_chk (__stream, __USE_FORTIFY_LEVEL - 1, __fmt,
	.loc 2 79 10 is_stmt 0 view .LVU632
	movq	stderr(%rip), %rdi	# stderr,
	movl	%ebx, %ecx	# _3,
	movl	$2, %esi	#,
	xorl	%eax, %eax	#
.LVL225:
	.loc 2 79 10 view .LVU633
	leaq	.LC6(%rip), %rdx	#, tmp104
	leaq	10(%rsp), %r13	#, tmp117
	call	__fprintf_chk@PLT	#
.LVL226:
	.loc 2 79 10 view .LVU634
	leaq	12(%rsp), %r12	#, tmp114
	leaq	16(%rsp), %r15	#, tmp116
.LVL227:
	.p2align 4,,10
	.p2align 3
.L167:
	.loc 2 79 10 view .LVU635
.LBE263:
.LBE262:
	.loc 1 324 5 is_stmt 1 view .LVU636
.LBB264:
	.loc 1 325 9 view .LVU637
	.loc 1 326 9 view .LVU638
	.loc 1 327 9 view .LVU639
# tracker.c:327:         int fd = tcp_accept(srv, &ip, &cport);
	.loc 1 327 18 is_stmt 0 view .LVU640
	movq	%r13, %rdx	# tmp117,
	movq	%r12, %rsi	# tmp114,
	movl	%ebp, %edi	# srv,
	call	tcp_accept@PLT	#
.LVL228:
	movl	%eax, %ebx	# tmp122, fd
.LVL229:
	.loc 1 328 9 is_stmt 1 view .LVU641
# tracker.c:328:         if (fd < 0) continue;
	.loc 1 328 12 is_stmt 0 view .LVU642
	testl	%eax, %eax	# fd
	js	.L167	#,
	.loc 1 329 9 is_stmt 1 view .LVU643
# tracker.c:329:         client_ctx_t *ctx = malloc(sizeof *ctx);
	.loc 1 329 29 is_stmt 0 view .LVU644
	movl	$12, %edi	#,
	call	malloc@PLT	#
.LVL230:
# tracker.c:332:         if (pthread_create(&th, NULL, client_thread, ctx) != 0) {
	.loc 1 332 13 view .LVU645
	xorl	%esi, %esi	#
	leaq	client_thread(%rip), %rdx	#,
	movq	%r15, %rdi	# tmp116,
# tracker.c:329:         client_ctx_t *ctx = malloc(sizeof *ctx);
	.loc 1 329 29 view .LVU646
	movq	%rax, %r14	# tmp123, tmp107
.LVL231:
	.loc 1 330 9 is_stmt 1 view .LVU647
# tracker.c:330:         ctx->fd = fd; ctx->ip = ip; ctx->port = cport;
	.loc 1 330 17 is_stmt 0 view .LVU648
	movl	%ebx, (%rax)	# fd, ctx_23->fd
	.loc 1 330 23 is_stmt 1 view .LVU649
# tracker.c:330:         ctx->fd = fd; ctx->ip = ip; ctx->port = cport;
	.loc 1 330 31 is_stmt 0 view .LVU650
	movl	12(%rsp), %eax	# ip, ip
.LVL232:
# tracker.c:332:         if (pthread_create(&th, NULL, client_thread, ctx) != 0) {
	.loc 1 332 13 view .LVU651
	movq	%r14, %rcx	# tmp107,
# tracker.c:330:         ctx->fd = fd; ctx->ip = ip; ctx->port = cport;
	.loc 1 330 31 view .LVU652
	movl	%eax, 4(%r14)	# ip, ctx_23->ip
	.loc 1 330 37 is_stmt 1 view .LVU653
# tracker.c:330:         ctx->fd = fd; ctx->ip = ip; ctx->port = cport;
	.loc 1 330 47 is_stmt 0 view .LVU654
	movzwl	10(%rsp), %eax	# cport, cport
	movw	%ax, 8(%r14)	# cport, ctx_23->port
	.loc 1 331 9 is_stmt 1 view .LVU655
	.loc 1 332 9 view .LVU656
# tracker.c:332:         if (pthread_create(&th, NULL, client_thread, ctx) != 0) {
	.loc 1 332 13 is_stmt 0 view .LVU657
	call	pthread_create@PLT	#
.LVL233:
# tracker.c:332:         if (pthread_create(&th, NULL, client_thread, ctx) != 0) {
	.loc 1 332 12 discriminator 1 view .LVU658
	testl	%eax, %eax	# tmp124
	jne	.L177	#,
	.loc 1 335 9 is_stmt 1 view .LVU659
	movq	16(%rsp), %rdi	# th,
	call	pthread_detach@PLT	#
.LVL234:
	jmp	.L167	#
	.p2align 4,,10
	.p2align 3
.L177:
	.loc 1 333 13 view .LVU660
	movl	%ebx, %edi	# fd,
	call	close@PLT	#
.LVL235:
	.loc 1 333 24 discriminator 1 view .LVU661
	movq	%r14, %rdi	# tmp107,
	call	free@PLT	#
.LVL236:
	.loc 1 333 35 discriminator 2 view .LVU662
# tracker.c:333:             close(fd); free(ctx); continue;
	.loc 1 333 35 is_stmt 0 view .LVU663
	jmp	.L167	#
.LVL237:
	.loc 1 333 35 view .LVU664
.LBE264:
	.cfi_endproc
	.section	.text.unlikely
	.cfi_startproc
	.type	main.cold, @function
main.cold:
.LFSB85:
.LBB265:
.L173:
	.cfi_def_cfa_offset 96
	.cfi_offset 3, -56
	.cfi_offset 6, -48
	.cfi_offset 12, -40
	.cfi_offset 13, -32
	.cfi_offset 14, -24
	.cfi_offset 15, -16
.LBE265:
	.loc 1 321 20 is_stmt 1 discriminator 1 view -0
	leaq	.LC5(%rip), %rdi	#, tmp101
	call	perror@PLT	#
.LVL238:
	.loc 1 321 38 discriminator 1 view .LVU666
# tracker.c:338: }
	.loc 1 338 1 is_stmt 0 view .LVU667
	movq	24(%rsp), %rax	# D.7419, tmp126
	subq	%fs:40, %rax	# MEM[(<address-space-1> long unsigned int *)40B], tmp126
	jne	.L178	#,
	addq	$40, %rsp	#,
	.cfi_remember_state
	.cfi_def_cfa_offset 56
	movl	$1, %eax	#,
	popq	%rbx	#
	.cfi_def_cfa_offset 48
.LVL239:
	.loc 1 338 1 view .LVU668
	popq	%rbp	#
	.cfi_def_cfa_offset 40
.LVL240:
	.loc 1 338 1 view .LVU669
	popq	%r12	#
	.cfi_def_cfa_offset 32
	popq	%r13	#
	.cfi_def_cfa_offset 24
	popq	%r14	#
	.cfi_def_cfa_offset 16
	popq	%r15	#
	.cfi_def_cfa_offset 8
	ret	
.LVL241:
.L178:
	.cfi_restore_state
	.loc 1 338 1 view .LVU670
	call	__stack_chk_fail@PLT	#
.LVL242:
	.cfi_endproc
.LFE85:
	.section	.text.startup
	.size	main, .-main
	.section	.text.unlikely
	.size	main.cold, .-main.cold
.LCOLDE7:
	.section	.text.startup
.LHOTE7:
	.local	peers
	.comm	peers,8,8
	.local	files
	.comm	files,8,8
	.local	lock
	.comm	lock,40,32
	.text
.Letext0:
	.section	.text.unlikely
.Letext_cold0:
	.file 5 "/usr/include/x86_64-linux-gnu/bits/types.h"
	.file 6 "/usr/include/x86_64-linux-gnu/bits/stdint-uintn.h"
	.file 7 "/usr/lib/gcc/x86_64-linux-gnu/13/include/stddef.h"
	.file 8 "/usr/include/x86_64-linux-gnu/bits/types/struct_FILE.h"
	.file 9 "/usr/include/x86_64-linux-gnu/bits/types/FILE.h"
	.file 10 "/usr/include/x86_64-linux-gnu/bits/thread-shared-types.h"
	.file 11 "/usr/include/x86_64-linux-gnu/bits/struct_mutex.h"
	.file 12 "/usr/include/x86_64-linux-gnu/bits/pthreadtypes.h"
	.file 13 "protocol.h"
	.file 14 "/usr/include/pthread.h"
	.file 15 "/usr/include/signal.h"
	.file 16 "/usr/include/x86_64-linux-gnu/bits/stdio2-decl.h"
	.file 17 "/usr/include/string.h"
	.file 18 "chunk.h"
	.file 19 "net.h"
	.file 20 "/usr/include/unistd.h"
	.file 21 "/usr/include/stdio.h"
	.file 22 "<built-in>"
	.section	.note.GNU-stack,"",@progbits
	.section	.note.gnu.property,"a"
	.align 8
	.long	1f - 0f
	.long	4f - 1f
	.long	5
0:
	.string	"GNU"
1:
	.align 8
	.long	0xc0000002
	.long	3f - 2f
2:
	.long	0x3
3:
	.align 8
4:
