	.file	"tracker.c"
# GNU C17 (Ubuntu 13.3.0-6ubuntu2~24.04.1) version 13.3.0 (x86_64-linux-gnu)
#	compiled by GNU C version 13.3.0, GMP version 6.3.0, MPFR version 4.2.1, MPC version 1.3.1, isl version isl-0.26-GMP

# GGC heuristics: --param ggc-min-expand=100 --param ggc-min-heapsize=131072
# options passed: -mtune=generic -march=x86-64 -g -O2 -fasynchronous-unwind-tables -fstack-protector-strong -fstack-clash-protection -fcf-protection
	.text
.Ltext0:
	.file 0 "/home/dev/Project/socket" "tracker.c"
	.section	.rodata.str1.1,"aMS",@progbits,1
.LC0:
	.string	"%s"
	.section	.rodata.str1.8,"aMS",@progbits,1
	.align 8
.LC1:
	.string	"[INFO] ANNOUNCE %.16s\342\200\246 '%s' (%llu B, %u chunks) from %s:%u\n"
	.text
	.p2align 4
	.type	handle_announce, @function
handle_announce:
.LVL0:
.LFB80:
	.file 1 "tracker.c"
	.loc 1 133 71 view -0
	.cfi_startproc
	.loc 1 133 71 is_stmt 0 view .LVU1
	pushq	%r15	#
	.cfi_def_cfa_offset 16
	.cfi_offset 15, -16
# tracker.c:134:     const uint8_t *p = payload, *end = payload + plen;
	.loc 1 134 48 view .LVU2
	movl	%edx, %edx	# tmp205, plen
# tracker.c:137:     char     filename[MAX_FILENAME + 1] = {0};
	.loc 1 137 14 view .LVU3
	pxor	%xmm0, %xmm0	# tmp187
# tracker.c:133:                             uint32_t client_ip, uint16_t client_port) {
	.loc 1 133 71 view .LVU4
	pushq	%r14	#
	.cfi_def_cfa_offset 24
	.cfi_offset 14, -24
	movl	%r9d, %r14d	# tmp208, client_port
	pushq	%r13	#
	.cfi_def_cfa_offset 32
	.cfi_offset 13, -32
	pushq	%r12	#
	.cfi_def_cfa_offset 40
	.cfi_offset 12, -40
	movq	%rcx, %r12	# tmp206, peer_id
# tracker.c:141:     if (buf_get_bytes(&p, end, fhash, HASH_SIZE)         < 0 ||
	.loc 1 141 9 view .LVU5
	movl	$32, %ecx	#,
.LVL1:
# tracker.c:133:                             uint32_t client_ip, uint16_t client_port) {
	.loc 1 133 71 view .LVU6
	pushq	%rbp	#
	.cfi_def_cfa_offset 48
	.cfi_offset 6, -48
	movl	%edi, %ebp	# tmp203, fd
	pushq	%rbx	#
	.cfi_def_cfa_offset 56
	.cfi_offset 3, -56
# tracker.c:134:     const uint8_t *p = payload, *end = payload + plen;
	.loc 1 134 34 view .LVU7
	leaq	(%rsi,%rdx), %rbx	#, end
# tracker.c:133:                             uint32_t client_ip, uint16_t client_port) {
	.loc 1 133 71 view .LVU8
	subq	$456, %rsp	#,
	.cfi_def_cfa_offset 512
# tracker.c:133:                             uint32_t client_ip, uint16_t client_port) {
	.loc 1 133 71 view .LVU9
	movl	%r8d, 4(%rsp)	# tmp207, %sfp
# tracker.c:141:     if (buf_get_bytes(&p, end, fhash, HASH_SIZE)         < 0 ||
	.loc 1 141 9 view .LVU10
	leaq	64(%rsp), %r15	#, tmp184
	leaq	48(%rsp), %r13	#, tmp134
	movq	%r15, %rdx	# tmp184,
.LVL2:
	.loc 1 141 9 view .LVU11
	movq	%r13, %rdi	# tmp134,
.LVL3:
# tracker.c:133:                             uint32_t client_ip, uint16_t client_port) {
	.loc 1 133 71 view .LVU12
	movq	%fs:40, %rax	# MEM[(<address-space-1> long unsigned int *)40B], tmp231
	movq	%rax, 440(%rsp)	# tmp231, D.7290
	xorl	%eax, %eax	# tmp231
	.loc 1 134 5 is_stmt 1 view .LVU13
.LVL4:
	.loc 1 135 5 view .LVU14
	.loc 1 136 5 view .LVU15
	.loc 1 137 5 view .LVU16
# tracker.c:134:     const uint8_t *p = payload, *end = payload + plen;
	.loc 1 134 20 is_stmt 0 view .LVU17
	movq	%rsi, 48(%rsp)	# payload, p
# tracker.c:141:     if (buf_get_bytes(&p, end, fhash, HASH_SIZE)         < 0 ||
	.loc 1 141 9 view .LVU18
	movq	%rbx, %rsi	# end,
.LVL5:
# tracker.c:137:     char     filename[MAX_FILENAME + 1] = {0};
	.loc 1 137 14 view .LVU19
	movaps	%xmm0, 176(%rsp)	# tmp187, filename
	movaps	%xmm0, 192(%rsp)	# tmp187, filename
	movaps	%xmm0, 208(%rsp)	# tmp187, filename
	movaps	%xmm0, 224(%rsp)	# tmp187, filename
	movaps	%xmm0, 240(%rsp)	# tmp187, filename
	movaps	%xmm0, 256(%rsp)	# tmp187, filename
	movaps	%xmm0, 272(%rsp)	# tmp187, filename
	movaps	%xmm0, 288(%rsp)	# tmp187, filename
	movaps	%xmm0, 304(%rsp)	# tmp187, filename
	movaps	%xmm0, 320(%rsp)	# tmp187, filename
	movaps	%xmm0, 336(%rsp)	# tmp187, filename
	movaps	%xmm0, 352(%rsp)	# tmp187, filename
	movaps	%xmm0, 368(%rsp)	# tmp187, filename
	movaps	%xmm0, 384(%rsp)	# tmp187, filename
	movaps	%xmm0, 400(%rsp)	# tmp187, filename
	movaps	%xmm0, 416(%rsp)	# tmp187, filename
	.loc 1 138 5 is_stmt 1 view .LVU20
	.loc 1 139 5 view .LVU21
	.loc 1 141 5 view .LVU22
# tracker.c:141:     if (buf_get_bytes(&p, end, fhash, HASH_SIZE)         < 0 ||
	.loc 1 141 9 is_stmt 0 view .LVU23
	call	buf_get_bytes@PLT	#
.LVL6:
# tracker.c:141:     if (buf_get_bytes(&p, end, fhash, HASH_SIZE)         < 0 ||
	.loc 1 141 8 discriminator 1 view .LVU24
	testl	%eax, %eax	# tmp209
	js	.L35	#,
# tracker.c:142:         buf_get_u16  (&p, end, &nlen)                    < 0 || nlen > MAX_FILENAME ||
	.loc 1 142 9 view .LVU25
	leaq	38(%rsp), %rdx	#, tmp136
	movq	%rbx, %rsi	# end,
	movq	%r13, %rdi	# tmp134,
	call	buf_get_u16@PLT	#
.LVL7:
# tracker.c:141:     if (buf_get_bytes(&p, end, fhash, HASH_SIZE)         < 0 ||
	.loc 1 141 62 discriminator 1 view .LVU26
	testl	%eax, %eax	# tmp210
	js	.L35	#,
# tracker.c:142:         buf_get_u16  (&p, end, &nlen)                    < 0 || nlen > MAX_FILENAME ||
	.loc 1 142 70 view .LVU27
	movzwl	38(%rsp), %ecx	# nlen,
# tracker.c:142:         buf_get_u16  (&p, end, &nlen)                    < 0 || nlen > MAX_FILENAME ||
	.loc 1 142 62 view .LVU28
	cmpw	$255, %cx	#, nlen.27_4
	jbe	.L37	#,
.LVL8:
.L35:
	.loc 1 151 9 is_stmt 1 view .LVU29
.LBB86:
.LBB87:
# tracker.c:98:     msg_send(fd, type, &status, 1);
	.loc 1 98 5 is_stmt 0 view .LVU30
	leaq	37(%rsp), %rdx	#, tmp152
	movl	$1, %ecx	#,
	movl	$4, %esi	#,
	movl	%ebp, %edi	# fd,
	movb	$1, 37(%rsp)	#, MEM[(unsigned char *)_74]
.LVL9:
	.loc 1 98 5 view .LVU31
.LBE87:
.LBI86:
	.loc 1 97 13 is_stmt 1 view .LVU32
.LBB88:
	.loc 1 98 5 view .LVU33
	call	msg_send@PLT	#
.LVL10:
	.loc 1 98 5 is_stmt 0 view .LVU34
.LBE88:
.LBE86:
	.loc 1 151 47 is_stmt 1 discriminator 1 view .LVU35
.L1:
# tracker.c:178: }
	.loc 1 178 1 is_stmt 0 view .LVU36
	movq	440(%rsp), %rax	# D.7290, tmp232
	subq	%fs:40, %rax	# MEM[(<address-space-1> long unsigned int *)40B], tmp232
	jne	.L38	#,
	addq	$456, %rsp	#,
	.cfi_remember_state
	.cfi_def_cfa_offset 56
	popq	%rbx	#
	.cfi_def_cfa_offset 48
	popq	%rbp	#
	.cfi_def_cfa_offset 40
.LVL11:
	.loc 1 178 1 view .LVU37
	popq	%r12	#
	.cfi_def_cfa_offset 32
.LVL12:
	.loc 1 178 1 view .LVU38
	popq	%r13	#
	.cfi_def_cfa_offset 24
	popq	%r14	#
	.cfi_def_cfa_offset 16
.LVL13:
	.loc 1 178 1 view .LVU39
	popq	%r15	#
	.cfi_def_cfa_offset 8
	ret	
.LVL14:
	.p2align 4,,10
	.p2align 3
.L37:
	.cfi_restore_state
# tracker.c:143:         buf_get_bytes(&p, end, filename, nlen)           < 0 ||
	.loc 1 143 9 view .LVU40
	leaq	176(%rsp), %rax	#, tmp186
	movq	%rbx, %rsi	# end,
	movq	%r13, %rdi	# tmp134,
	movq	%rax, %rdx	# tmp186,
	movq	%rax, 8(%rsp)	# tmp186, %sfp
	call	buf_get_bytes@PLT	#
.LVL15:
# tracker.c:142:         buf_get_u16  (&p, end, &nlen)                    < 0 || nlen > MAX_FILENAME ||
	.loc 1 142 85 discriminator 1 view .LVU41
	testl	%eax, %eax	# tmp211
	js	.L35	#,
# tracker.c:144:         buf_get_u64  (&p, end, &fsize)                   < 0 ||
	.loc 1 144 9 view .LVU42
	leaq	56(%rsp), %rdx	#, tmp141
	movq	%rbx, %rsi	# end,
	movq	%r13, %rdi	# tmp134,
	call	buf_get_u64@PLT	#
.LVL16:
# tracker.c:143:         buf_get_bytes(&p, end, filename, nlen)           < 0 ||
	.loc 1 143 62 view .LVU43
	testl	%eax, %eax	# tmp212
	js	.L35	#,
# tracker.c:145:         buf_get_u32  (&p, end, &csize)                   < 0 ||
	.loc 1 145 9 view .LVU44
	leaq	40(%rsp), %rdx	#, tmp143
	movq	%rbx, %rsi	# end,
	movq	%r13, %rdi	# tmp134,
	call	buf_get_u32@PLT	#
.LVL17:
# tracker.c:144:         buf_get_u64  (&p, end, &fsize)                   < 0 ||
	.loc 1 144 62 view .LVU45
	testl	%eax, %eax	# tmp213
	js	.L35	#,
# tracker.c:146:         buf_get_u32  (&p, end, &ccnt)                    < 0) {
	.loc 1 146 9 view .LVU46
	leaq	44(%rsp), %rdx	#, tmp145
	movq	%rbx, %rsi	# end,
	movq	%r13, %rdi	# tmp134,
	call	buf_get_u32@PLT	#
.LVL18:
# tracker.c:145:         buf_get_u32  (&p, end, &csize)                   < 0 ||
	.loc 1 145 62 view .LVU47
	testl	%eax, %eax	# tmp214
	js	.L35	#,
	.loc 1 149 5 is_stmt 1 view .LVU48
# tracker.c:149:     filename[nlen] = '\0';
	.loc 1 149 20 is_stmt 0 view .LVU49
	movzwl	38(%rsp), %eax	# nlen, nlen
# tracker.c:150:     if ((size_t)(end - p) < (size_t)ccnt * HASH_SIZE) {
	.loc 1 150 22 view .LVU50
	subq	48(%rsp), %rbx	# p, tmp149
.LVL19:
# tracker.c:149:     filename[nlen] = '\0';
	.loc 1 149 20 view .LVU51
	movb	$0, 176(%rsp,%rax)	#, filename[_11]
	.loc 1 150 5 is_stmt 1 view .LVU52
# tracker.c:150:     if ((size_t)(end - p) < (size_t)ccnt * HASH_SIZE) {
	.loc 1 150 29 is_stmt 0 view .LVU53
	movl	44(%rsp), %eax	# ccnt, ccnt
# tracker.c:150:     if ((size_t)(end - p) < (size_t)ccnt * HASH_SIZE) {
	.loc 1 150 42 view .LVU54
	salq	$5, %rax	#, tmp151
# tracker.c:150:     if ((size_t)(end - p) < (size_t)ccnt * HASH_SIZE) {
	.loc 1 150 8 view .LVU55
	cmpq	%rax, %rbx	# tmp151, tmp149
	jb	.L35	#,
	.loc 1 154 5 is_stmt 1 view .LVU56
	leaq	lock(%rip), %rbx	#, tmp185
	movq	%rbx, %rdi	# tmp185,
	call	pthread_mutex_lock@PLT	#
.LVL20:
	.loc 1 155 5 view .LVU57
.LBB89:
.LBI89:
	.loc 1 48 22 view .LVU58
	.loc 1 49 5 view .LVU59
.LBB90:
	.loc 1 49 10 view .LVU60
# tracker.c:49:     for (file_entry_t *f = files; f; f = f->next)
	.loc 1 49 24 is_stmt 0 view .LVU61
	movq	files(%rip), %r8	# files, f
.LVL21:
	.loc 1 49 35 is_stmt 1 discriminator 1 view .LVU62
	testq	%r8, %r8	# f
	jne	.L10	#,
	jmp	.L6	#
	.p2align 4,,10
	.p2align 3
.L27:
	.loc 1 49 40 discriminator 2 view .LVU63
	movq	320(%r8), %r8	# f_53->next, f
.LVL22:
	.loc 1 49 35 discriminator 1 view .LVU64
	testq	%r8, %r8	# f
	je	.L6	#,
.L10:
	.loc 1 50 9 view .LVU65
# tracker.c:50:         if (memcmp(f->file_hash, hash, HASH_SIZE) == 0) return f;
	.loc 1 50 13 is_stmt 0 view .LVU66
	movq	(%r8), %rax	# MEM <char[1:32]> [(void *)f_53], tmp228
	movq	8(%r8), %rdx	# MEM <char[1:32]> [(void *)f_53], tmp230
	xorq	(%r15), %rax	# MEM <char[1:32]> [(void *)&fhash], tmp227
	xorq	8(%r15), %rdx	# MEM <char[1:32]> [(void *)&fhash], tmp229
	orq	%rdx, %rax	# tmp229, tmp227
	jne	.L27	#,
	.loc 1 50 13 view .LVU67
	movq	16(%r8), %rax	# MEM <char[1:32]> [(void *)f_53], tmp224
	movq	24(%r8), %rdx	# MEM <char[1:32]> [(void *)f_53], tmp226
	xorq	16(%r15), %rax	# MEM <char[1:32]> [(void *)&fhash], tmp223
	xorq	24(%r15), %rdx	# MEM <char[1:32]> [(void *)&fhash], tmp225
	orq	%rdx, %rax	# tmp225, tmp223
	jne	.L27	#,
.LVL23:
.L9:
	.loc 1 50 13 view .LVU68
.LBE90:
.LBE89:
	.loc 1 169 5 is_stmt 1 view .LVU69
.LBB91:
.LBB92:
.LBB93:
# tracker.c:56:     for (peer_entry_t *p = f->peers; p; p = p->next) {
	.loc 1 56 24 is_stmt 0 view .LVU70
	movq	312(%r8), %r9	# f_33->peers, p
.LBE93:
.LBE92:
.LBE91:
# tracker.c:169:     add_peer_to_file_locked(f, peer_id, client_ip, client_port);
	.loc 1 169 5 view .LVU71
	movzwl	%r14w, %r13d	# client_port, _28
.LVL24:
.LBB103:
.LBI91:
	.loc 1 54 13 is_stmt 1 view .LVU72
.LBB101:
	.loc 1 56 5 view .LVU73
.LBB94:
	.loc 1 56 10 view .LVU74
	.loc 1 56 38 discriminator 1 view .LVU75
	testq	%r9, %r9	# p
	je	.L12	#,
# tracker.c:56:     for (peer_entry_t *p = f->peers; p; p = p->next) {
	.loc 1 56 24 is_stmt 0 view .LVU76
	movq	%r9, %rdx	# p, p
	jmp	.L17	#
.LVL25:
	.p2align 4,,10
	.p2align 3
.L28:
	.loc 1 56 43 is_stmt 1 discriminator 2 view .LVU77
	movq	24(%rdx), %rdx	# p_110->next, p
.LVL26:
	.loc 1 56 38 discriminator 1 view .LVU78
	testq	%rdx, %rdx	# p
	je	.L12	#,
.L17:
	.loc 1 57 9 view .LVU79
# tracker.c:57:         if (memcmp(p->peer_id, pid, PEER_ID_SIZE) == 0) {
	.loc 1 57 13 is_stmt 0 view .LVU80
	movq	(%rdx), %rax	# MEM <char[1:16]> [(void *)p_110], tmp220
	movq	8(%rdx), %rcx	# MEM <char[1:16]> [(void *)p_110], tmp222
	xorq	(%r12), %rax	# MEM <char[1:16]> [(void *)peer_id_65(D)], tmp219
	xorq	8(%r12), %rcx	# MEM <char[1:16]> [(void *)peer_id_65(D)], tmp221
	orq	%rcx, %rax	# tmp221, tmp219
	jne	.L28	#,
	.loc 1 58 13 is_stmt 1 view .LVU81
# tracker.c:58:             p->ip = ip; p->port = port; return;
	.loc 1 58 19 is_stmt 0 view .LVU82
	movl	4(%rsp), %eax	# %sfp, client_ip
# tracker.c:58:             p->ip = ip; p->port = port; return;
	.loc 1 58 33 view .LVU83
	movw	%r14w, 20(%rdx)	# client_port, p_110->port
# tracker.c:58:             p->ip = ip; p->port = port; return;
	.loc 1 58 19 view .LVU84
	movl	%eax, 16(%rdx)	# client_ip, p_110->ip
	.loc 1 58 25 is_stmt 1 view .LVU85
	.loc 1 58 41 view .LVU86
.LVL27:
.L16:
	.loc 1 58 41 is_stmt 0 view .LVU87
.LBE94:
.LBE101:
.LBE103:
	.loc 1 170 5 is_stmt 1 view .LVU88
	movq	%rbx, %rdi	# tmp185,
# tracker.c:174:     char hex[HASH_SIZE * 2 + 1]; hash_to_hex(fhash, hex);
	.loc 1 174 34 is_stmt 0 view .LVU89
	leaq	96(%rsp), %rbx	#, tmp175
# tracker.c:170:     pthread_mutex_unlock(&lock);
	.loc 1 170 5 view .LVU90
	call	pthread_mutex_unlock@PLT	#
.LVL28:
	.loc 1 172 5 is_stmt 1 view .LVU91
.LBB104:
.LBB105:
# tracker.c:98:     msg_send(fd, type, &status, 1);
	.loc 1 98 5 is_stmt 0 view .LVU92
	leaq	37(%rsp), %rdx	#, tmp174
	movl	$1, %ecx	#,
	movl	%ebp, %edi	# fd,
	movl	$4, %esi	#,
	movb	$0, 37(%rsp)	#, MEM[(unsigned char *)_74]
.LVL29:
	.loc 1 98 5 view .LVU93
.LBE105:
.LBI104:
	.loc 1 97 13 is_stmt 1 view .LVU94
.LBB106:
	.loc 1 98 5 view .LVU95
	call	msg_send@PLT	#
.LVL30:
	.loc 1 98 5 is_stmt 0 view .LVU96
.LBE106:
.LBE104:
	.loc 1 174 5 is_stmt 1 view .LVU97
	.loc 1 174 34 view .LVU98
	movq	%rbx, %rsi	# tmp175,
	movq	%r15, %rdi	# tmp184,
	call	hash_to_hex@PLT	#
.LVL31:
	.loc 1 175 5 view .LVU99
	movl	4(%rsp), %edi	# %sfp,
	call	ip_to_str@PLT	#
.LVL32:
.LBB107:
.LBI107:
	.file 2 "/usr/include/x86_64-linux-gnu/bits/stdio2.h"
	.loc 2 77 1 view .LVU100
.LBB108:
	.loc 2 79 3 view .LVU101
# /usr/include/x86_64-linux-gnu/bits/stdio2.h:79:   return __fprintf_chk (__stream, __USE_FORTIFY_LEVEL - 1, __fmt,
	.loc 2 79 10 is_stmt 0 view .LVU102
	subq	$8, %rsp	#,
	.cfi_def_cfa_offset 520
	movq	%rbx, %rcx	# tmp175,
	movq	stderr(%rip), %rdi	# stderr,
	pushq	%r13	# _28
	.cfi_def_cfa_offset 528
	leaq	.LC1(%rip), %rdx	#, tmp182
	movl	$2, %esi	#,
	pushq	%rax	# tmp218
	.cfi_def_cfa_offset 536
	movl	68(%rsp), %eax	# ccnt, ccnt
	pushq	%rax	# ccnt
	.cfi_def_cfa_offset 544
	movq	88(%rsp), %r9	# fsize,
	xorl	%eax, %eax	#
	movq	40(%rsp), %r8	# %sfp,
	call	__fprintf_chk@PLT	#
.LVL33:
	.loc 2 79 10 view .LVU103
.LBE108:
.LBE107:
	addq	$32, %rsp	#,
	.cfi_def_cfa_offset 512
	jmp	.L1	#
.LVL34:
	.p2align 4,,10
	.p2align 3
.L12:
.LBB109:
.LBB102:
# tracker.c:61:     peer_entry_t *np = calloc(1, sizeof *np);
	.loc 1 61 24 view .LVU104
	movl	$1, %edi	#,
	movl	$32, %esi	#,
	movq	%r9, 24(%rsp)	# p, %sfp
	movq	%r8, 16(%rsp)	# f, %sfp
	.loc 1 61 5 is_stmt 1 view .LVU105
# tracker.c:61:     peer_entry_t *np = calloc(1, sizeof *np);
	.loc 1 61 24 is_stmt 0 view .LVU106
	call	calloc@PLT	#
.LVL35:
	.loc 1 62 5 is_stmt 1 view .LVU107
.LBB95:
.LBI95:
	.file 3 "/usr/include/x86_64-linux-gnu/bits/string_fortified.h"
	.loc 3 26 1 view .LVU108
.LBB96:
	.loc 3 29 3 view .LVU109
	.loc 3 29 3 is_stmt 0 view .LVU110
.LBE96:
.LBE95:
	.loc 1 63 5 is_stmt 1 view .LVU111
.LBB99:
.LBB97:
# /usr/include/x86_64-linux-gnu/bits/string_fortified.h:29:   return __builtin___memcpy_chk (__dest, __src, __len,
	.loc 3 29 10 is_stmt 0 discriminator 1 view .LVU112
	movdqu	(%r12), %xmm1	# MEM <uint128_t> [(char * {ref-all})peer_id_65(D)], tmp241
.LBE97:
.LBE99:
# tracker.c:63:     np->ip = ip; np->port = port;
	.loc 1 63 12 view .LVU113
	movl	4(%rsp), %edi	# %sfp, client_ip
# tracker.c:64:     np->next = f->peers;
	.loc 1 64 14 view .LVU114
	movq	24(%rsp), %r9	# %sfp, p
# tracker.c:65:     f->peers = np;
	.loc 1 65 14 view .LVU115
	movq	16(%rsp), %r8	# %sfp, f
# tracker.c:63:     np->ip = ip; np->port = port;
	.loc 1 63 27 view .LVU116
	movw	%r14w, 20(%rax)	# client_port, np_118->port
# tracker.c:63:     np->ip = ip; np->port = port;
	.loc 1 63 12 view .LVU117
	movl	%edi, 16(%rax)	# client_ip, np_118->ip
	.loc 1 63 18 is_stmt 1 view .LVU118
	.loc 1 64 5 view .LVU119
# tracker.c:64:     np->next = f->peers;
	.loc 1 64 14 is_stmt 0 view .LVU120
	movq	%r9, 24(%rax)	# p, np_118->next
	.loc 1 65 5 is_stmt 1 view .LVU121
.LBB100:
.LBB98:
# /usr/include/x86_64-linux-gnu/bits/string_fortified.h:29:   return __builtin___memcpy_chk (__dest, __src, __len,
	.loc 3 29 10 is_stmt 0 discriminator 1 view .LVU122
	movups	%xmm1, (%rax)	# tmp241, MEM <uint128_t> [(char * {ref-all})np_118]
.LBE98:
.LBE100:
# tracker.c:65:     f->peers = np;
	.loc 1 65 14 view .LVU123
	movq	%rax, 312(%r8)	# tmp171, f_33->peers
	jmp	.L16	#
.LVL36:
	.p2align 4,,10
	.p2align 3
.L6:
	.loc 1 65 14 view .LVU124
.LBE102:
.LBE109:
	.loc 1 156 5 is_stmt 1 view .LVU125
	.loc 1 157 9 view .LVU126
# tracker.c:157:         f = calloc(1, sizeof *f);
	.loc 1 157 13 is_stmt 0 view .LVU127
	movl	$328, %esi	#,
	movl	$1, %edi	#,
	call	calloc@PLT	#
.LVL37:
	.loc 1 158 9 is_stmt 1 view .LVU128
.LBB110:
.LBI110:
	.loc 3 26 1 view .LVU129
.LBB111:
	.loc 3 29 3 view .LVU130
# /usr/include/x86_64-linux-gnu/bits/string_fortified.h:29:   return __builtin___memcpy_chk (__dest, __src, __len,
	.loc 3 29 10 is_stmt 0 discriminator 1 view .LVU131
	movdqa	64(%rsp), %xmm2	# MEM <unsigned char[32]> [(char * {ref-all})&fhash], tmp235
	movdqa	80(%rsp), %xmm3	# MEM <unsigned char[32]> [(char * {ref-all})&fhash], tmp236
.LBE111:
.LBE110:
.LBB113:
.LBB114:
# /usr/include/x86_64-linux-gnu/bits/stdio2.h:54:   return __builtin___snprintf_chk (__s, __n, __USE_FORTIFY_LEVEL - 1,
	.loc 2 54 10 discriminator 1 view .LVU132
	leaq	.LC0(%rip), %rdx	#, tmp162
	movq	8(%rsp), %rcx	# %sfp,
	movq	%rax, 16(%rsp)	# f, %sfp
	leaq	32(%rax), %rdi	#, tmp161
	movl	$256, %esi	#,
.LBE114:
.LBE113:
.LBB116:
.LBB112:
# /usr/include/x86_64-linux-gnu/bits/string_fortified.h:29:   return __builtin___memcpy_chk (__dest, __src, __len,
	.loc 3 29 10 discriminator 1 view .LVU133
	movups	%xmm2, (%rax)	# tmp235, MEM <unsigned char[32]> [(char * {ref-all})f_56]
	movups	%xmm3, 16(%rax)	# tmp236, MEM <unsigned char[32]> [(char * {ref-all})f_56]
.LVL38:
	.loc 3 29 10 discriminator 1 view .LVU134
.LBE112:
.LBE116:
	.loc 1 159 9 is_stmt 1 view .LVU135
.LBB117:
.LBI113:
	.loc 2 51 1 view .LVU136
.LBB115:
	.loc 2 54 3 view .LVU137
# /usr/include/x86_64-linux-gnu/bits/stdio2.h:54:   return __builtin___snprintf_chk (__s, __n, __USE_FORTIFY_LEVEL - 1,
	.loc 2 54 10 is_stmt 0 discriminator 1 view .LVU138
	xorl	%eax, %eax	#
.LVL39:
	.loc 2 54 10 discriminator 1 view .LVU139
	call	snprintf@PLT	#
.LVL40:
	.loc 2 54 10 discriminator 1 view .LVU140
.LBE115:
.LBE117:
	.loc 1 160 9 is_stmt 1 view .LVU141
# tracker.c:160:         f->file_size   = fsize;
	.loc 1 160 24 is_stmt 0 view .LVU142
	movq	56(%rsp), %rax	# fsize, fsize
	movq	16(%rsp), %r8	# %sfp, f
# tracker.c:161:         f->chunk_size  = csize;
	.loc 1 161 24 view .LVU143
	movd	40(%rsp), %xmm0	# csize, tmp164
# tracker.c:160:         f->file_size   = fsize;
	.loc 1 160 24 view .LVU144
	movq	%rax, 288(%r8)	# fsize, f_56->file_size
	.loc 1 161 9 is_stmt 1 view .LVU145
	.loc 1 162 9 view .LVU146
# tracker.c:162:         f->chunk_count = ccnt;
	.loc 1 162 24 is_stmt 0 view .LVU147
	movl	44(%rsp), %eax	# ccnt,
# tracker.c:161:         f->chunk_size  = csize;
	.loc 1 161 24 view .LVU148
	movd	%eax, %xmm4	# ccnt.34_22, ccnt.34_22
	punpckldq	%xmm4, %xmm0	# ccnt.34_22, tmp164
	movq	%xmm0, 296(%r8)	# tmp164, MEM <vector(2) unsigned int> [(unsigned int *)f_56 + 296B]
	.loc 1 163 9 is_stmt 1 view .LVU149
# tracker.c:163:         if (ccnt > 0) {
	.loc 1 163 12 is_stmt 0 view .LVU150
	testl	%eax, %eax	# ccnt.34_22
	jne	.L39	#,
.L11:
	.loc 1 167 9 is_stmt 1 view .LVU151
# tracker.c:167:         f->next = files; files = f;
	.loc 1 167 17 is_stmt 0 view .LVU152
	movq	files(%rip), %rax	# files, files
# tracker.c:167:         f->next = files; files = f;
	.loc 1 167 32 view .LVU153
	movq	%r8, files(%rip)	# f, files
# tracker.c:167:         f->next = files; files = f;
	.loc 1 167 17 view .LVU154
	movq	%rax, 320(%r8)	# files, f_56->next
	.loc 1 167 26 is_stmt 1 view .LVU155
	jmp	.L9	#
.L39:
	.loc 1 164 13 view .LVU156
# tracker.c:164:             f->chunk_hashes = malloc((size_t)ccnt * HASH_SIZE);
	.loc 1 164 31 is_stmt 0 view .LVU157
	salq	$5, %rax	#, ccnt.34_22
	movq	%rax, %rdi	# _24,
	movq	%rax, %r13	# ccnt.34_22, _24
	call	malloc@PLT	#
.LVL41:
# tracker.c:164:             f->chunk_hashes = malloc((size_t)ccnt * HASH_SIZE);
	.loc 1 164 29 discriminator 1 view .LVU158
	movq	16(%rsp), %r8	# %sfp, f
.LBB118:
.LBB119:
# /usr/include/x86_64-linux-gnu/bits/string_fortified.h:29:   return __builtin___memcpy_chk (__dest, __src, __len,
	.loc 3 29 10 discriminator 1 view .LVU159
	movq	%r13, %rcx	# _24,
	movq	%r13, %rdx	# _24,
	movq	48(%rsp), %rsi	# p,
.LBE119:
.LBE118:
# tracker.c:164:             f->chunk_hashes = malloc((size_t)ccnt * HASH_SIZE);
	.loc 1 164 31 view .LVU160
	movq	%rax, %rdi	# tmp216, tmp167
# tracker.c:164:             f->chunk_hashes = malloc((size_t)ccnt * HASH_SIZE);
	.loc 1 164 29 discriminator 1 view .LVU161
	movq	%rax, 304(%r8)	# tmp167, f_56->chunk_hashes
	.loc 1 165 13 is_stmt 1 view .LVU162
.LVL42:
.LBB121:
.LBI118:
	.loc 3 26 1 view .LVU163
.LBB120:
	.loc 3 29 3 view .LVU164
# /usr/include/x86_64-linux-gnu/bits/string_fortified.h:29:   return __builtin___memcpy_chk (__dest, __src, __len,
	.loc 3 29 10 is_stmt 0 discriminator 1 view .LVU165
	call	__memcpy_chk@PLT	#
.LVL43:
	.loc 3 29 10 discriminator 1 view .LVU166
	movq	16(%rsp), %r8	# %sfp, f
.LVL44:
# /usr/include/x86_64-linux-gnu/bits/string_fortified.h:29:   return __builtin___memcpy_chk (__dest, __src, __len,
	.loc 3 29 10 view .LVU167
	jmp	.L11	#
.LVL45:
.L38:
	.loc 3 29 10 view .LVU168
.LBE120:
.LBE121:
# tracker.c:178: }
	.loc 1 178 1 view .LVU169
	call	__stack_chk_fail@PLT	#
.LVL46:
	.cfi_endproc
.LFE80:
	.size	handle_announce, .-handle_announce
	.section	.rodata.str1.1
.LC2:
	.string	"[INFO] REGISTER %s:%u\n"
	.section	.rodata.str1.8
	.align 8
.LC3:
	.string	"[WARN] unknown message type 0x%02x\n"
	.section	.rodata.str1.1
.LC4:
	.string	"[INFO] DISCONNECT %s:%u\n"
	.text
	.p2align 4
	.type	client_thread, @function
client_thread:
.LVL47:
.LFB84:
	.loc 1 265 39 is_stmt 1 view -0
	.cfi_startproc
	.loc 1 265 39 is_stmt 0 view .LVU171
	endbr64	
	pushq	%r15	#
	.cfi_def_cfa_offset 16
	.cfi_offset 15, -16
# tracker.c:270:     uint16_t listen_port = 0;
	.loc 1 270 14 view .LVU172
	xorl	%ecx, %ecx	#
# tracker.c:268:     uint8_t  peer_id[PEER_ID_SIZE] = {0};
	.loc 1 268 14 view .LVU173
	pxor	%xmm0, %xmm0	# tmp368
# tracker.c:265: static void *client_thread(void *arg) {
	.loc 1 265 39 view .LVU174
	pushq	%r14	#
	.cfi_def_cfa_offset 24
	.cfi_offset 14, -24
	pushq	%r13	#
	.cfi_def_cfa_offset 32
	.cfi_offset 13, -32
.LBB170:
# tracker.c:278:         switch (type) {
	.loc 1 278 9 view .LVU175
	leaq	.L44(%rip), %r13	#, tmp367
.LBE170:
# tracker.c:265: static void *client_thread(void *arg) {
	.loc 1 265 39 view .LVU176
	pushq	%r12	#
	.cfi_def_cfa_offset 40
	.cfi_offset 12, -40
	pushq	%rbp	#
	.cfi_def_cfa_offset 48
	.cfi_offset 6, -48
	pushq	%rbx	#
	.cfi_def_cfa_offset 56
	.cfi_offset 3, -56
	subq	$184, %rsp	#,
	.cfi_def_cfa_offset 240
# tracker.c:265: static void *client_thread(void *arg) {
	.loc 1 265 39 view .LVU177
	movq	%rdi, 32(%rsp)	# arg, %sfp
# tracker.c:267:     int  fd = ctx->fd;
	.loc 1 267 10 view .LVU178
	movq	%fs:40, %rax	# MEM[(<address-space-1> long unsigned int *)40B], tmp415
	movq	%rax, 168(%rsp)	# tmp415, D.7410
	movq	%rdi, %rax	# arg, tmp415
# tracker.c:270:     uint16_t listen_port = 0;
	.loc 1 270 14 view .LVU179
	movw	%cx, 46(%rsp)	#, %sfp
# tracker.c:269:     int      registered  = 0;
	.loc 1 269 14 view .LVU180
	movl	$0, 40(%rsp)	#, %sfp
# tracker.c:268:     uint8_t  peer_id[PEER_ID_SIZE] = {0};
	.loc 1 268 14 view .LVU181
	movaps	%xmm0, 112(%rsp)	# tmp368, peer_id
# tracker.c:267:     int  fd = ctx->fd;
	.loc 1 267 10 view .LVU182
	movl	(%rax), %r12d	# MEM[(struct client_ctx_t *)arg_32(D)].fd, fd
.LVL48:
	.loc 1 268 5 is_stmt 1 view .LVU183
	.loc 1 269 5 view .LVU184
	.loc 1 270 5 view .LVU185
	.loc 1 270 5 is_stmt 0 view .LVU186
	leaq	76(%rsp), %rax	#, tmp361
	movq	%rax, 16(%rsp)	# tmp361, %sfp
	leaq	80(%rsp), %rax	#, tmp362
	movq	%rax, 24(%rsp)	# tmp362, %sfp
	leaq	74(%rsp), %rax	#, tmp360
	movq	%rax, 8(%rsp)	# tmp360, %sfp
.LVL49:
	.p2align 4,,10
	.p2align 3
.L84:
	.loc 1 272 5 is_stmt 1 view .LVU187
.LBB246:
	.loc 1 273 9 view .LVU188
	.loc 1 274 9 view .LVU189
# tracker.c:276:         if (msg_recv(fd, &type, &payload, &plen) < 0) break;
	.loc 1 276 13 is_stmt 0 view .LVU190
	movq	16(%rsp), %rcx	# %sfp,
	movq	24(%rsp), %rdx	# %sfp,
	movl	%r12d, %edi	# fd,
# tracker.c:274:         uint8_t *payload = NULL;
	.loc 1 274 18 view .LVU191
	movq	$0, 80(%rsp)	#, payload
	.loc 1 275 9 is_stmt 1 view .LVU192
# tracker.c:276:         if (msg_recv(fd, &type, &payload, &plen) < 0) break;
	.loc 1 276 13 is_stmt 0 view .LVU193
	movq	8(%rsp), %rsi	# %sfp,
# tracker.c:275:         uint32_t plen    = 0;
	.loc 1 275 18 view .LVU194
	movl	$0, 76(%rsp)	#, plen
	.loc 1 276 9 is_stmt 1 view .LVU195
# tracker.c:276:         if (msg_recv(fd, &type, &payload, &plen) < 0) break;
	.loc 1 276 13 is_stmt 0 view .LVU196
	call	msg_recv@PLT	#
.LVL50:
# tracker.c:276:         if (msg_recv(fd, &type, &payload, &plen) < 0) break;
	.loc 1 276 12 discriminator 1 view .LVU197
	testl	%eax, %eax	# tmp370
	js	.L41	#,
	.loc 1 278 9 is_stmt 1 view .LVU198
	movzbl	74(%rsp), %edx	# type, type.5_2
	cmpb	$12, %dl	#, type.5_2
	ja	.L42	#,
	movzbl	%dl, %eax	# type.5_2, type.5_2
	movslq	0(%r13,%rax,4), %rax	#, tmp214
	addq	%r13, %rax	# tmp367, tmp215
	notrack jmp	*%rax	# tmp215
	.section	.rodata
	.align 4
	.align 4
.L44:
	.long	.L42-.L44
	.long	.L50-.L44
	.long	.L42-.L44
	.long	.L49-.L44
	.long	.L42-.L44
	.long	.L48-.L44
	.long	.L42-.L44
	.long	.L47-.L44
	.long	.L42-.L44
	.long	.L46-.L44
	.long	.L42-.L44
	.long	.L45-.L44
	.long	.L43-.L44
	.text
	.p2align 4,,10
	.p2align 3
.L42:
	.loc 1 296 17 view .LVU199
.LVL51:
.LBB171:
.LBI171:
	.loc 2 77 1 view .LVU200
.LBB172:
	.loc 2 79 3 view .LVU201
# /usr/include/x86_64-linux-gnu/bits/stdio2.h:79:   return __fprintf_chk (__stream, __USE_FORTIFY_LEVEL - 1, __fmt,
	.loc 2 79 10 is_stmt 0 view .LVU202
	movq	stderr(%rip), %rdi	# stderr,
.LBE172:
.LBE171:
# tracker.c:296:                 LOG_WARN("unknown message type 0x%02x", type);
	.loc 1 296 17 view .LVU203
	movzbl	%dl, %ecx	# type.5_2, type.5_2
.LBB174:
.LBB173:
# /usr/include/x86_64-linux-gnu/bits/stdio2.h:79:   return __fprintf_chk (__stream, __USE_FORTIFY_LEVEL - 1, __fmt,
	.loc 2 79 10 view .LVU204
	movl	$2, %esi	#,
	xorl	%eax, %eax	#
	leaq	.LC3(%rip), %rdx	#, tmp319
	call	__fprintf_chk@PLT	#
.LVL52:
	.loc 2 79 10 view .LVU205
.LBE173:
.LBE174:
	.loc 1 297 17 is_stmt 1 view .LVU206
	.p2align 4,,10
	.p2align 3
.L59:
	.loc 1 299 9 view .LVU207
	movq	80(%rsp), %rdi	# payload,
	call	free@PLT	#
.LVL53:
.LBE246:
	.loc 1 272 11 view .LVU208
# tracker.c:272:     while (1) {
	.loc 1 272 15 is_stmt 0 view .LVU209
	jmp	.L84	#
.L43:
.LBB247:
	.loc 1 292 37 is_stmt 1 view .LVU210
	xorl	%ecx, %ecx	#
	xorl	%edx, %edx	#
	movl	$13, %esi	#,
	movl	%r12d, %edi	# fd,
	call	msg_send@PLT	#
.LVL54:
	.loc 1 292 70 discriminator 1 view .LVU211
# tracker.c:292:             case MSG_PING:          msg_send(fd, MSG_PONG, NULL, 0); break;
	.loc 1 292 70 is_stmt 0 view .LVU212
	jmp	.L59	#
.L45:
	.loc 1 294 17 is_stmt 1 view .LVU213
	movq	80(%rsp), %rdi	# payload,
	call	free@PLT	#
.LVL55:
	.loc 1 294 32 discriminator 1 view .LVU214
.L41:
.LBE247:
	.loc 1 302 5 view .LVU215
# tracker.c:302:     if (registered) {
	.loc 1 302 8 is_stmt 0 view .LVU216
	movl	40(%rsp), %eax	# %sfp,
	testl	%eax, %eax	#
	jne	.L155	#,
.L85:
	.loc 1 308 5 is_stmt 1 view .LVU217
	movl	%r12d, %edi	# fd,
	call	close@PLT	#
.LVL56:
	.loc 1 309 5 view .LVU218
	movq	32(%rsp), %rdi	# %sfp,
	call	free@PLT	#
.LVL57:
	.loc 1 310 5 view .LVU219
# tracker.c:311: }
	.loc 1 311 1 is_stmt 0 view .LVU220
	movq	168(%rsp), %rax	# D.7410, tmp416
	subq	%fs:40, %rax	# MEM[(<address-space-1> long unsigned int *)40B], tmp416
	jne	.L156	#,
	addq	$184, %rsp	#,
	.cfi_remember_state
	.cfi_def_cfa_offset 56
	xorl	%eax, %eax	#
	popq	%rbx	#
	.cfi_def_cfa_offset 48
	popq	%rbp	#
	.cfi_def_cfa_offset 40
	popq	%r12	#
	.cfi_def_cfa_offset 32
	popq	%r13	#
	.cfi_def_cfa_offset 24
	popq	%r14	#
	.cfi_def_cfa_offset 16
	popq	%r15	#
	.cfi_def_cfa_offset 8
	ret	
.LVL58:
.L46:
	.cfi_restore_state
.LBB248:
	.loc 1 291 37 is_stmt 1 view .LVU221
	movq	80(%rsp), %rax	# payload, payload.14_15
.LVL59:
.LBB175:
.LBI175:
	.loc 1 232 13 view .LVU222
.LBB176:
	.loc 1 233 5 view .LVU223
# tracker.c:233:     const uint8_t *p = payload, *end = payload + plen;
	.loc 1 233 48 is_stmt 0 view .LVU224
	movl	76(%rsp), %edx	# plen, plen.13_14
# tracker.c:235:     if (buf_get_bytes(&p, end, fhash, HASH_SIZE) < 0) {
	.loc 1 235 9 view .LVU225
	leaq	88(%rsp), %rdi	#, tmp300
	leaq	128(%rsp), %rbp	#, tmp366
	movl	$32, %ecx	#,
# tracker.c:233:     const uint8_t *p = payload, *end = payload + plen;
	.loc 1 233 34 view .LVU226
	leaq	(%rax,%rdx), %rsi	#, end
# tracker.c:235:     if (buf_get_bytes(&p, end, fhash, HASH_SIZE) < 0) {
	.loc 1 235 9 view .LVU227
	movq	%rbp, %rdx	# tmp366,
# tracker.c:233:     const uint8_t *p = payload, *end = payload + plen;
	.loc 1 233 20 view .LVU228
	movq	%rax, 88(%rsp)	# payload.14_15, MEM[(const uint8_t * *)_57]
.LVL60:
	.loc 1 234 5 is_stmt 1 view .LVU229
	.loc 1 235 5 view .LVU230
# tracker.c:235:     if (buf_get_bytes(&p, end, fhash, HASH_SIZE) < 0) {
	.loc 1 235 9 is_stmt 0 view .LVU231
	call	buf_get_bytes@PLT	#
.LVL61:
# tracker.c:235:     if (buf_get_bytes(&p, end, fhash, HASH_SIZE) < 0) {
	.loc 1 235 8 discriminator 1 view .LVU232
	testl	%eax, %eax	# tmp380
	js	.L154	#,
	.loc 1 239 5 is_stmt 1 view .LVU233
	leaq	lock(%rip), %r14	#, tmp364
	movq	%r14, %rdi	# tmp364,
	call	pthread_mutex_lock@PLT	#
.LVL62:
	.loc 1 240 5 view .LVU234
.LBB177:
.LBI177:
	.loc 1 48 22 view .LVU235
	.loc 1 49 5 view .LVU236
.LBB178:
	.loc 1 49 10 view .LVU237
# tracker.c:49:     for (file_entry_t *f = files; f; f = f->next)
	.loc 1 49 24 is_stmt 0 view .LVU238
	movq	files(%rip), %r15	# files, f
.LVL63:
	.loc 1 49 35 is_stmt 1 discriminator 1 view .LVU239
	testq	%r15, %r15	# f
	jne	.L83	#,
.L79:
.LVL64:
	.loc 1 49 35 is_stmt 0 discriminator 1 view .LVU240
.LBE178:
.LBE177:
.LBB180:
	.loc 1 242 9 is_stmt 1 view .LVU241
	movq	%r14, %rdi	# tmp364,
	call	pthread_mutex_unlock@PLT	#
.LVL65:
.L154:
	.loc 1 243 9 view .LVU242
# tracker.c:244:         msg_send(fd, MSG_GET_FILE_INFO_RESP, &absent, 1);
	.loc 1 244 9 is_stmt 0 view .LVU243
	leaq	96(%rsp), %rdx	#, tmp307
	movl	$1, %ecx	#,
	movl	$10, %esi	#,
	movl	%r12d, %edi	# fd,
# tracker.c:243:         uint8_t absent = 0;
	.loc 1 243 17 view .LVU244
	movb	$0, 96(%rsp)	#, MEM[(unsigned char *)_207]
	.loc 1 244 9 is_stmt 1 view .LVU245
	call	msg_send@PLT	#
.LVL66:
	.loc 1 245 9 view .LVU246
	jmp	.L59	#
.LVL67:
	.p2align 4,,10
	.p2align 3
.L158:
	.loc 1 245 9 is_stmt 0 view .LVU247
.LBE180:
.LBB181:
.LBB179:
# tracker.c:50:         if (memcmp(f->file_hash, hash, HASH_SIZE) == 0) return f;
	.loc 1 50 13 view .LVU248
	movq	16(%r15), %rax	# MEM <char[1:32]> [(void *)f_340], tmp396
	movq	24(%r15), %rdx	# MEM <char[1:32]> [(void *)f_340], tmp398
	xorq	16(%rbp), %rax	# MEM <char[1:32]> [(void *)_82], tmp395
	xorq	24(%rbp), %rdx	# MEM <char[1:32]> [(void *)_82], tmp397
	orq	%rdx, %rax	# tmp397, tmp395
	je	.L157	#,
.L124:
	.loc 1 49 40 is_stmt 1 discriminator 2 view .LVU249
	movq	320(%r15), %r15	# f_340->next, f
.LVL68:
	.loc 1 49 35 discriminator 1 view .LVU250
	testq	%r15, %r15	# f
	je	.L79	#,
.L83:
	.loc 1 50 9 view .LVU251
# tracker.c:50:         if (memcmp(f->file_hash, hash, HASH_SIZE) == 0) return f;
	.loc 1 50 13 is_stmt 0 view .LVU252
	movq	(%r15), %rax	# MEM <char[1:32]> [(void *)f_340], tmp400
	movq	8(%r15), %rdx	# MEM <char[1:32]> [(void *)f_340], tmp402
	xorq	0(%rbp), %rax	# MEM <char[1:32]> [(void *)_82], tmp399
	xorq	8(%rbp), %rdx	# MEM <char[1:32]> [(void *)_82], tmp401
	orq	%rdx, %rax	# tmp401, tmp399
	jne	.L124	#,
	.loc 1 50 13 view .LVU253
	jmp	.L158	#
	.p2align 4,,10
	.p2align 3
.L157:
.LVL69:
	.loc 1 50 13 view .LVU254
.LBE179:
.LBE181:
	.loc 1 241 5 is_stmt 1 view .LVU255
	.loc 1 247 5 view .LVU256
# tracker.c:247:     size_t cap = 1 + HASH_SIZE + 2 + strlen(f->filename) + 8 + 4 + 4
	.loc 1 247 46 is_stmt 0 view .LVU257
	leaq	32(%r15), %rax	#, _163
# tracker.c:250:     buf_put_u8   (&w, 1);
	.loc 1 250 5 view .LVU258
	leaq	96(%rsp), %rbx	#, tmp344
# tracker.c:247:     size_t cap = 1 + HASH_SIZE + 2 + strlen(f->filename) + 8 + 4 + 4
	.loc 1 247 38 view .LVU259
	movq	%rax, %rdi	# _163,
	movq	%rax, 48(%rsp)	# _163, %sfp
	call	strlen@PLT	#
.LVL70:
	movq	%rax, %rdx	#, tmp381
.LVL71:
	.loc 1 249 5 is_stmt 1 view .LVU260
# tracker.c:248:                + (size_t)f->chunk_count * HASH_SIZE;
	.loc 1 248 18 is_stmt 0 view .LVU261
	movl	300(%r15), %eax	# f_340->chunk_count, f_340->chunk_count
.LVL72:
# tracker.c:248:                + (size_t)f->chunk_count * HASH_SIZE;
	.loc 1 248 41 view .LVU262
	salq	$5, %rax	#, tmp340
# tracker.c:247:     size_t cap = 1 + HASH_SIZE + 2 + strlen(f->filename) + 8 + 4 + 4
	.loc 1 247 12 view .LVU263
	leaq	51(%rax,%rdx), %rdi	#, cap
# tracker.c:249:     uint8_t *buf = malloc(cap), *w = buf;
	.loc 1 249 20 view .LVU264
	call	malloc@PLT	#
.LVL73:
# tracker.c:250:     buf_put_u8   (&w, 1);
	.loc 1 250 5 view .LVU265
	movl	$1, %esi	#,
	movq	%rbx, %rdi	# tmp344,
# tracker.c:249:     uint8_t *buf = malloc(cap), *w = buf;
	.loc 1 249 34 discriminator 1 view .LVU266
	movq	%rax, 96(%rsp)	# buf, MEM[(uint8_t * *)_207]
# tracker.c:249:     uint8_t *buf = malloc(cap), *w = buf;
	.loc 1 249 20 view .LVU267
	movq	%rax, %rbp	# tmp382, buf
.LVL74:
	.loc 1 250 5 is_stmt 1 view .LVU268
	call	buf_put_u8@PLT	#
.LVL75:
	.loc 1 251 5 view .LVU269
	movl	$32, %edx	#,
	movq	%r15, %rsi	# f,
	movq	%rbx, %rdi	# tmp344,
	call	buf_put_bytes@PLT	#
.LVL76:
	.loc 1 252 5 view .LVU270
# tracker.c:252:     uint16_t nl = (uint16_t)strlen(f->filename);
	.loc 1 252 29 is_stmt 0 view .LVU271
	movq	48(%rsp), %rdi	# %sfp,
	call	strlen@PLT	#
.LVL77:
	.loc 1 253 5 is_stmt 1 view .LVU272
	movq	%rbx, %rdi	# tmp344,
	movzwl	%ax, %esi	# tmp347, _172
	movq	%rax, 56(%rsp)	# tmp347, %sfp
	call	buf_put_u16@PLT	#
.LVL78:
	.loc 1 254 5 view .LVU273
	movq	56(%rsp), %rax	# %sfp, tmp347
	movq	48(%rsp), %rsi	# %sfp,
	movq	%rbx, %rdi	# tmp344,
	movzwl	%ax, %edx	# tmp347, _172
	call	buf_put_bytes@PLT	#
.LVL79:
	.loc 1 255 5 view .LVU274
	movq	288(%r15), %rsi	# f_340->file_size, f_340->file_size
	movq	%rbx, %rdi	# tmp344,
	call	buf_put_u64@PLT	#
.LVL80:
	.loc 1 256 5 view .LVU275
	movl	296(%r15), %esi	# f_340->chunk_size, f_340->chunk_size
	movq	%rbx, %rdi	# tmp344,
	call	buf_put_u32@PLT	#
.LVL81:
	.loc 1 257 5 view .LVU276
	movl	300(%r15), %esi	# f_340->chunk_count, f_340->chunk_count
	movq	%rbx, %rdi	# tmp344,
	call	buf_put_u32@PLT	#
.LVL82:
	.loc 1 258 5 view .LVU277
# tracker.c:258:     if (f->chunk_count > 0)
	.loc 1 258 10 is_stmt 0 view .LVU278
	movl	300(%r15), %eax	# f_340->chunk_count, _179
# tracker.c:258:     if (f->chunk_count > 0)
	.loc 1 258 8 view .LVU279
	testl	%eax, %eax	# _179
	jne	.L159	#,
.L105:
	.loc 1 260 5 is_stmt 1 view .LVU280
	movq	%r14, %rdi	# tmp364,
	call	pthread_mutex_unlock@PLT	#
.LVL83:
	.loc 1 261 5 view .LVU281
	movl	96(%rsp), %ecx	# MEM[(uint8_t * *)_207], tmp315
	movl	%r12d, %edi	# fd,
	movq	%rbp, %rdx	# buf,
	movl	$10, %esi	#,
	subl	%ebp, %ecx	# buf, tmp315
	call	msg_send@PLT	#
.LVL84:
	.loc 1 262 5 view .LVU282
	movq	%rbp, %rdi	# buf,
	call	free@PLT	#
.LVL85:
	jmp	.L59	#
.LVL86:
.L47:
	.loc 1 262 5 is_stmt 0 view .LVU283
.LBE176:
.LBE175:
	.loc 1 290 37 is_stmt 1 view .LVU284
	movq	80(%rsp), %rax	# payload, payload.12_13
.LVL87:
.LBB183:
.LBI183:
	.loc 1 207 13 view .LVU285
.LBB184:
	.loc 1 208 5 view .LVU286
# tracker.c:208:     const uint8_t *p = payload, *end = payload + plen;
	.loc 1 208 48 is_stmt 0 view .LVU287
	movl	76(%rsp), %edx	# plen, plen.11_12
# tracker.c:210:     if (buf_get_bytes(&p, end, fhash, HASH_SIZE) < 0) {
	.loc 1 210 9 view .LVU288
	leaq	88(%rsp), %rdi	#, tmp270
	leaq	128(%rsp), %rbp	#, tmp366
	movl	$32, %ecx	#,
# tracker.c:208:     const uint8_t *p = payload, *end = payload + plen;
	.loc 1 208 34 view .LVU289
	leaq	(%rax,%rdx), %rsi	#, end
# tracker.c:210:     if (buf_get_bytes(&p, end, fhash, HASH_SIZE) < 0) {
	.loc 1 210 9 view .LVU290
	movq	%rbp, %rdx	# tmp366,
# tracker.c:208:     const uint8_t *p = payload, *end = payload + plen;
	.loc 1 208 20 view .LVU291
	movq	%rax, 88(%rsp)	# payload.12_13, MEM[(const uint8_t * *)_57]
.LVL88:
	.loc 1 209 5 is_stmt 1 view .LVU292
	.loc 1 210 5 view .LVU293
# tracker.c:210:     if (buf_get_bytes(&p, end, fhash, HASH_SIZE) < 0) {
	.loc 1 210 9 is_stmt 0 view .LVU294
	call	buf_get_bytes@PLT	#
.LVL89:
# tracker.c:210:     if (buf_get_bytes(&p, end, fhash, HASH_SIZE) < 0) {
	.loc 1 210 8 discriminator 1 view .LVU295
	testl	%eax, %eax	# tmp378
	js	.L160	#,
	.loc 1 215 5 is_stmt 1 view .LVU296
	leaq	lock(%rip), %r14	#, tmp364
	movq	%r14, %rdi	# tmp364,
	call	pthread_mutex_lock@PLT	#
.LVL90:
	.loc 1 216 5 view .LVU297
.LBB185:
.LBI185:
	.loc 1 48 22 view .LVU298
	.loc 1 49 5 view .LVU299
.LBB186:
	.loc 1 49 10 view .LVU300
# tracker.c:49:     for (file_entry_t *f = files; f; f = f->next)
	.loc 1 49 24 is_stmt 0 view .LVU301
	movq	files(%rip), %r15	# files, f
.LVL91:
	.loc 1 49 35 is_stmt 1 discriminator 1 view .LVU302
	testq	%r15, %r15	# f
	jne	.L73	#,
.L69:
.LVL92:
	.loc 1 49 35 is_stmt 0 discriminator 1 view .LVU303
.LBE186:
.LBE185:
	.loc 1 219 5 is_stmt 1 view .LVU304
	.loc 1 220 5 view .LVU305
# tracker.c:220:     uint8_t *buf = malloc(cap), *w = buf;
	.loc 1 220 20 is_stmt 0 view .LVU306
	movl	$4, %edi	#,
	call	malloc@PLT	#
.LVL93:
# tracker.c:221:     buf_put_u32(&w, pc);
	.loc 1 221 5 view .LVU307
	leaq	96(%rsp), %rdi	#, tmp335
	xorl	%esi, %esi	#
# tracker.c:220:     uint8_t *buf = malloc(cap), *w = buf;
	.loc 1 220 34 discriminator 1 view .LVU308
	movq	%rax, 96(%rsp)	# buf, MEM[(uint8_t * *)_207]
# tracker.c:220:     uint8_t *buf = malloc(cap), *w = buf;
	.loc 1 220 20 view .LVU309
	movq	%rax, %rbp	# tmp386, buf
.LVL94:
	.loc 1 221 5 is_stmt 1 view .LVU310
	call	buf_put_u32@PLT	#
.LVL95:
	.loc 1 222 5 view .LVU311
.L101:
	.loc 1 227 5 view .LVU312
	movq	%r14, %rdi	# tmp364,
	call	pthread_mutex_unlock@PLT	#
.LVL96:
	.loc 1 228 5 view .LVU313
	movl	96(%rsp), %ecx	# MEM[(uint8_t * *)_207], tmp296
	movl	%r12d, %edi	# fd,
	movq	%rbp, %rdx	# buf,
	movl	$8, %esi	#,
	subl	%ebp, %ecx	# buf, tmp296
	call	msg_send@PLT	#
.LVL97:
	.loc 1 229 5 view .LVU314
	movq	%rbp, %rdi	# buf,
	call	free@PLT	#
.LVL98:
	jmp	.L59	#
.LVL99:
	.p2align 4,,10
	.p2align 3
.L162:
.LBB188:
.LBB187:
# tracker.c:50:         if (memcmp(f->file_hash, hash, HASH_SIZE) == 0) return f;
	.loc 1 50 13 is_stmt 0 view .LVU315
	movq	16(%r15), %rax	# MEM <char[1:32]> [(void *)f_339], tmp404
	movq	24(%r15), %rdx	# MEM <char[1:32]> [(void *)f_339], tmp406
	xorq	16(%rbp), %rax	# MEM <char[1:32]> [(void *)_82], tmp403
	xorq	24(%rbp), %rdx	# MEM <char[1:32]> [(void *)_82], tmp405
	orq	%rdx, %rax	# tmp405, tmp403
	je	.L161	#,
.L123:
	.loc 1 49 40 is_stmt 1 discriminator 2 view .LVU316
	movq	320(%r15), %r15	# f_339->next, f
.LVL100:
	.loc 1 49 35 discriminator 1 view .LVU317
	testq	%r15, %r15	# f
	je	.L69	#,
.L73:
	.loc 1 50 9 view .LVU318
# tracker.c:50:         if (memcmp(f->file_hash, hash, HASH_SIZE) == 0) return f;
	.loc 1 50 13 is_stmt 0 view .LVU319
	movq	(%r15), %rax	# MEM <char[1:32]> [(void *)f_339], tmp408
	movq	8(%r15), %rdx	# MEM <char[1:32]> [(void *)f_339], tmp410
	xorq	0(%rbp), %rax	# MEM <char[1:32]> [(void *)_82], tmp407
	xorq	8(%rbp), %rdx	# MEM <char[1:32]> [(void *)_82], tmp409
	orq	%rdx, %rax	# tmp409, tmp407
	jne	.L123	#,
	.loc 1 50 13 view .LVU320
	jmp	.L162	#
	.p2align 4,,10
	.p2align 3
.L161:
.LVL101:
	.loc 1 50 13 view .LVU321
.LBE187:
.LBE188:
	.loc 1 217 5 is_stmt 1 view .LVU322
	.loc 1 218 5 view .LVU323
	.loc 1 218 12 discriminator 1 view .LVU324
.LBB189:
	.loc 1 218 17 discriminator 1 view .LVU325
# tracker.c:218:     if (f) for (peer_entry_t *pp = f->peers; pp; pp = pp->next) pc++;
	.loc 1 218 31 is_stmt 0 discriminator 1 view .LVU326
	movq	312(%r15), %rax	# f_339->peers, pp
.LVL102:
	.loc 1 218 46 is_stmt 1 discriminator 2 view .LVU327
.LBE189:
# tracker.c:217:     uint32_t pc = 0;
	.loc 1 217 14 is_stmt 0 view .LVU328
	xorl	%esi, %esi	# pc
.LBB190:
# tracker.c:218:     if (f) for (peer_entry_t *pp = f->peers; pp; pp = pp->next) pc++;
	.loc 1 218 46 discriminator 2 view .LVU329
	testq	%rax, %rax	# pp
	je	.L163	#,
.LVL103:
	.p2align 4,,10
	.p2align 3
.L74:
	.loc 1 218 65 is_stmt 1 discriminator 4 view .LVU330
# tracker.c:218:     if (f) for (peer_entry_t *pp = f->peers; pp; pp = pp->next) pc++;
	.loc 1 218 53 is_stmt 0 discriminator 4 view .LVU331
	movq	24(%rax), %rax	# pp_337->next, pp
.LVL104:
# tracker.c:218:     if (f) for (peer_entry_t *pp = f->peers; pp; pp = pp->next) pc++;
	.loc 1 218 67 discriminator 4 view .LVU332
	addl	$1, %esi	#, pc
.LVL105:
	.loc 1 218 53 is_stmt 1 discriminator 4 view .LVU333
	.loc 1 218 46 discriminator 2 view .LVU334
	testq	%rax, %rax	# pp
	jne	.L74	#,
	.loc 1 218 46 is_stmt 0 discriminator 2 view .LVU335
.LBE190:
	.loc 1 219 5 is_stmt 1 view .LVU336
.LVL106:
	.loc 1 220 5 view .LVU337
# tracker.c:219:     size_t cap = 4 + (size_t)pc * (PEER_ID_SIZE + 4 + 2);
	.loc 1 219 22 is_stmt 0 view .LVU338
	movl	%esi, %eax	# pc, pc
.LVL107:
	.loc 1 219 22 view .LVU339
	movl	%esi, 48(%rsp)	# pc, %sfp
# tracker.c:221:     buf_put_u32(&w, pc);
	.loc 1 221 5 view .LVU340
	leaq	96(%rsp), %rbx	#, tmp363
# tracker.c:219:     size_t cap = 4 + (size_t)pc * (PEER_ID_SIZE + 4 + 2);
	.loc 1 219 33 view .LVU341
	leaq	(%rax,%rax,4), %rdx	#, tmp281
	leaq	(%rax,%rdx,2), %rax	#, tmp283
# tracker.c:219:     size_t cap = 4 + (size_t)pc * (PEER_ID_SIZE + 4 + 2);
	.loc 1 219 12 view .LVU342
	leaq	4(%rax,%rax), %rdi	#, cap
# tracker.c:220:     uint8_t *buf = malloc(cap), *w = buf;
	.loc 1 220 20 view .LVU343
	call	malloc@PLT	#
.LVL108:
# tracker.c:221:     buf_put_u32(&w, pc);
	.loc 1 221 5 view .LVU344
	movl	48(%rsp), %esi	# %sfp, pc
	movq	%rbx, %rdi	# tmp363,
# tracker.c:220:     uint8_t *buf = malloc(cap), *w = buf;
	.loc 1 220 34 discriminator 1 view .LVU345
	movq	%rax, 96(%rsp)	# buf, MEM[(uint8_t * *)_207]
# tracker.c:220:     uint8_t *buf = malloc(cap), *w = buf;
	.loc 1 220 20 view .LVU346
	movq	%rax, %rbp	# tmp379, buf
.LVL109:
	.loc 1 221 5 is_stmt 1 view .LVU347
	call	buf_put_u32@PLT	#
.LVL110:
	.loc 1 222 5 view .LVU348
.L100:
	.loc 1 222 12 discriminator 1 view .LVU349
.LBB191:
	.loc 1 222 17 discriminator 1 view .LVU350
# tracker.c:222:     if (f) for (peer_entry_t *pp = f->peers; pp; pp = pp->next) {
	.loc 1 222 31 is_stmt 0 discriminator 1 view .LVU351
	movq	312(%r15), %r15	# f_339->peers, pp
.LVL111:
	.loc 1 222 46 is_stmt 1 discriminator 2 view .LVU352
	testq	%r15, %r15	# pp
	je	.L101	#,
	.p2align 4,,10
	.p2align 3
.L76:
	.loc 1 223 9 view .LVU353
	movl	$16, %edx	#,
	movq	%r15, %rsi	# pp,
	movq	%rbx, %rdi	# tmp363,
	call	buf_put_bytes@PLT	#
.LVL112:
	.loc 1 224 9 view .LVU354
	movl	16(%r15), %esi	# pp_338->ip, pp_338->ip
	movq	%rbx, %rdi	# tmp363,
	call	buf_put_u32@PLT	#
.LVL113:
	.loc 1 225 9 view .LVU355
	movzwl	20(%r15), %esi	# pp_338->port, pp_338->port
	movq	%rbx, %rdi	# tmp363,
	call	buf_put_u16@PLT	#
.LVL114:
	.loc 1 222 53 discriminator 4 view .LVU356
	movq	24(%r15), %r15	# pp_338->next, pp
.LVL115:
	.loc 1 222 46 discriminator 2 view .LVU357
	testq	%r15, %r15	# pp
	jne	.L76	#,
	jmp	.L101	#
.LVL116:
.L48:
	.loc 1 222 46 is_stmt 0 discriminator 2 view .LVU358
.LBE191:
.LBE184:
.LBE183:
	.loc 1 289 37 is_stmt 1 view .LVU359
.LBB195:
.LBI195:
	.loc 1 180 13 view .LVU360
.LBB196:
	.loc 1 181 5 view .LVU361
	leaq	lock(%rip), %r14	#, tmp364
# tracker.c:183:     size_t   cap   = 4;
	.loc 1 183 14 is_stmt 0 view .LVU362
	movl	$4, %r15d	#, cap
# tracker.c:182:     uint32_t count = 0;
	.loc 1 182 14 view .LVU363
	xorl	%ebp, %ebp	# count
# tracker.c:181:     pthread_mutex_lock(&lock);
	.loc 1 181 5 view .LVU364
	movq	%r14, %rdi	# tmp364,
	call	pthread_mutex_lock@PLT	#
.LVL117:
	.loc 1 182 5 is_stmt 1 view .LVU365
	.loc 1 183 5 view .LVU366
	.loc 1 184 5 view .LVU367
.LBB197:
	.loc 1 184 10 view .LVU368
# tracker.c:184:     for (file_entry_t *f = files; f; f = f->next) {
	.loc 1 184 24 is_stmt 0 view .LVU369
	movq	files(%rip), %rbx	# files, f
.LVL118:
	.loc 1 184 35 is_stmt 1 discriminator 1 view .LVU370
	testq	%rbx, %rbx	# f
	je	.L61	#,
.LVL119:
	.p2align 4,,10
	.p2align 3
.L62:
	.loc 1 185 9 view .LVU371
# tracker.c:186:         cap += HASH_SIZE + 2 + strlen(f->filename) + 8 + 4 + 4 + 4;
	.loc 1 186 32 is_stmt 0 view .LVU372
	leaq	32(%rbx), %rdi	#, tmp242
# tracker.c:185:         count++;
	.loc 1 185 14 view .LVU373
	addl	$1, %ebp	#, count
.LVL120:
	.loc 1 186 9 is_stmt 1 view .LVU374
# tracker.c:186:         cap += HASH_SIZE + 2 + strlen(f->filename) + 8 + 4 + 4 + 4;
	.loc 1 186 32 is_stmt 0 view .LVU375
	call	strlen@PLT	#
.LVL121:
# tracker.c:184:     for (file_entry_t *f = files; f; f = f->next) {
	.loc 1 184 40 discriminator 3 view .LVU376
	movq	320(%rbx), %rbx	# f_37->next, f
.LVL122:
# tracker.c:186:         cap += HASH_SIZE + 2 + strlen(f->filename) + 8 + 4 + 4 + 4;
	.loc 1 186 13 discriminator 1 view .LVU377
	leaq	54(%r15,%rax), %r15	#, cap
.LVL123:
	.loc 1 184 40 is_stmt 1 discriminator 3 view .LVU378
	.loc 1 184 35 discriminator 1 view .LVU379
	testq	%rbx, %rbx	# f
	jne	.L62	#,
.LVL124:
.L61:
	.loc 1 184 35 is_stmt 0 discriminator 1 view .LVU380
.LBE197:
	.loc 1 188 5 is_stmt 1 view .LVU381
# tracker.c:188:     uint8_t *buf = malloc(cap), *w = buf;
	.loc 1 188 20 is_stmt 0 view .LVU382
	movq	%r15, %rdi	# cap,
# tracker.c:189:     buf_put_u32(&w, count);
	.loc 1 189 5 view .LVU383
	leaq	96(%rsp), %rbx	#, tmp363
.LVL125:
# tracker.c:188:     uint8_t *buf = malloc(cap), *w = buf;
	.loc 1 188 20 view .LVU384
	call	malloc@PLT	#
.LVL126:
# tracker.c:189:     buf_put_u32(&w, count);
	.loc 1 189 5 view .LVU385
	movl	%ebp, %esi	# count,
	movq	%rbx, %rdi	# tmp363,
# tracker.c:188:     uint8_t *buf = malloc(cap), *w = buf;
	.loc 1 188 34 discriminator 1 view .LVU386
	movq	%rax, 96(%rsp)	# buf, MEM[(uint8_t * *)_207]
# tracker.c:188:     uint8_t *buf = malloc(cap), *w = buf;
	.loc 1 188 20 view .LVU387
	movq	%rax, %r15	# tmp376, buf
.LVL127:
	.loc 1 189 5 is_stmt 1 view .LVU388
	call	buf_put_u32@PLT	#
.LVL128:
	.loc 1 190 5 view .LVU389
.LBB198:
	.loc 1 190 10 view .LVU390
# tracker.c:190:     for (file_entry_t *f = files; f; f = f->next) {
	.loc 1 190 24 is_stmt 0 view .LVU391
	movq	files(%rip), %rbp	# files, f
.LVL129:
	.loc 1 190 35 is_stmt 1 discriminator 1 view .LVU392
	testq	%rbp, %rbp	# f
	je	.L67	#,
	movl	%r12d, 48(%rsp)	# fd, %sfp
	movq	%r14, 56(%rsp)	# tmp364, %sfp
	.p2align 4,,10
	.p2align 3
.L63:
.LBB199:
	.loc 1 191 9 view .LVU393
	movl	$32, %edx	#,
	movq	%rbp, %rsi	# f,
# tracker.c:192:         uint16_t nl = (uint16_t)strlen(f->filename);
	.loc 1 192 41 is_stmt 0 view .LVU394
	leaq	32(%rbp), %r12	#, _110
# tracker.c:191:         buf_put_bytes(&w, f->file_hash, HASH_SIZE);
	.loc 1 191 9 view .LVU395
	movq	%rbx, %rdi	# tmp363,
	call	buf_put_bytes@PLT	#
.LVL130:
	.loc 1 192 9 is_stmt 1 view .LVU396
# tracker.c:192:         uint16_t nl = (uint16_t)strlen(f->filename);
	.loc 1 192 33 is_stmt 0 view .LVU397
	movq	%r12, %rdi	# _110,
	call	strlen@PLT	#
.LVL131:
# tracker.c:193:         buf_put_u16  (&w, nl);
	.loc 1 193 9 view .LVU398
	movq	%rbx, %rdi	# tmp363,
# tracker.c:192:         uint16_t nl = (uint16_t)strlen(f->filename);
	.loc 1 192 33 view .LVU399
	movq	%rax, %r14	# tmp377, tmp254
.LVL132:
	.loc 1 193 9 is_stmt 1 view .LVU400
	movzwl	%ax, %esi	# tmp254, _111
	call	buf_put_u16@PLT	#
.LVL133:
	.loc 1 194 9 view .LVU401
	movzwl	%r14w, %edx	# tmp254, _111
	movq	%r12, %rsi	# _110,
	movq	%rbx, %rdi	# tmp363,
	call	buf_put_bytes@PLT	#
.LVL134:
	.loc 1 195 9 view .LVU402
	movq	288(%rbp), %rsi	# f_47->file_size, f_47->file_size
	movq	%rbx, %rdi	# tmp363,
	call	buf_put_u64@PLT	#
.LVL135:
	.loc 1 196 9 view .LVU403
	movl	296(%rbp), %esi	# f_47->chunk_size, f_47->chunk_size
	movq	%rbx, %rdi	# tmp363,
	call	buf_put_u32@PLT	#
.LVL136:
	.loc 1 197 9 view .LVU404
	movl	300(%rbp), %esi	# f_47->chunk_count, f_47->chunk_count
	movq	%rbx, %rdi	# tmp363,
	call	buf_put_u32@PLT	#
.LVL137:
	.loc 1 198 9 view .LVU405
	.loc 1 199 9 view .LVU406
.LBB200:
	.loc 1 199 14 view .LVU407
# tracker.c:199:         for (peer_entry_t *p = f->peers; p; p = p->next) pc++;
	.loc 1 199 28 is_stmt 0 view .LVU408
	movq	312(%rbp), %rax	# f_47->peers, p
.LVL138:
	.loc 1 199 42 is_stmt 1 discriminator 1 view .LVU409
.LBE200:
# tracker.c:198:         uint32_t pc = 0;
	.loc 1 198 18 is_stmt 0 view .LVU410
	xorl	%esi, %esi	# pc
.LBB201:
# tracker.c:199:         for (peer_entry_t *p = f->peers; p; p = p->next) pc++;
	.loc 1 199 42 discriminator 1 view .LVU411
	testq	%rax, %rax	# p
	je	.L65	#,
.LVL139:
	.p2align 4,,10
	.p2align 3
.L66:
	.loc 1 199 58 is_stmt 1 discriminator 3 view .LVU412
# tracker.c:199:         for (peer_entry_t *p = f->peers; p; p = p->next) pc++;
	.loc 1 199 47 is_stmt 0 discriminator 3 view .LVU413
	movq	24(%rax), %rax	# p_335->next, p
.LVL140:
# tracker.c:199:         for (peer_entry_t *p = f->peers; p; p = p->next) pc++;
	.loc 1 199 60 discriminator 3 view .LVU414
	addl	$1, %esi	#, pc
.LVL141:
	.loc 1 199 47 is_stmt 1 discriminator 3 view .LVU415
	.loc 1 199 42 discriminator 1 view .LVU416
	testq	%rax, %rax	# p
	jne	.L66	#,
.LVL142:
.L65:
	.loc 1 199 42 is_stmt 0 discriminator 1 view .LVU417
.LBE201:
	.loc 1 200 9 is_stmt 1 view .LVU418
	movq	%rbx, %rdi	# tmp363,
	call	buf_put_u32@PLT	#
.LVL143:
	.loc 1 200 9 is_stmt 0 view .LVU419
.LBE199:
	.loc 1 190 40 is_stmt 1 discriminator 2 view .LVU420
	movq	320(%rbp), %rbp	# f_47->next, f
.LVL144:
	.loc 1 190 35 discriminator 1 view .LVU421
	testq	%rbp, %rbp	# f
	jne	.L63	#,
	movl	48(%rsp), %r12d	# %sfp, fd
	movq	56(%rsp), %r14	# %sfp, tmp364
.LVL145:
.L67:
	.loc 1 190 35 is_stmt 0 discriminator 1 view .LVU422
.LBE198:
	.loc 1 202 5 is_stmt 1 view .LVU423
	movq	%r14, %rdi	# tmp364,
	call	pthread_mutex_unlock@PLT	#
.LVL146:
	.loc 1 203 5 view .LVU424
	movl	96(%rsp), %ecx	# MEM[(uint8_t * *)_207], tmp251
	movl	%r12d, %edi	# fd,
	movq	%r15, %rdx	# buf,
	movl	$6, %esi	#,
	subl	%r15d, %ecx	# buf, tmp251
	call	msg_send@PLT	#
.LVL147:
	.loc 1 204 5 view .LVU425
	movq	%r15, %rdi	# buf,
	call	free@PLT	#
.LVL148:
	.loc 1 204 5 is_stmt 0 view .LVU426
.LBE196:
.LBE195:
	.loc 1 289 63 is_stmt 1 discriminator 1 view .LVU427
.LBB203:
.LBB202:
# tracker.c:205: }
	.loc 1 205 1 is_stmt 0 view .LVU428
	jmp	.L59	#
.L49:
.LBE202:
.LBE203:
	.loc 1 284 17 is_stmt 1 view .LVU429
# tracker.c:284:                 if (registered)
	.loc 1 284 20 is_stmt 0 view .LVU430
	movl	40(%rsp), %edx	# %sfp,
	testl	%edx, %edx	#
	je	.L60	#,
	.loc 1 285 21 is_stmt 1 view .LVU431
	movq	32(%rsp), %rax	# %sfp, arg
	movzwl	46(%rsp), %r9d	# %sfp,
	leaq	112(%rsp), %rcx	#, tmp365
	movl	%r12d, %edi	# fd,
	movl	76(%rsp), %edx	# plen,
	movq	80(%rsp), %rsi	# payload,
	movl	4(%rax), %r8d	# MEM[(struct client_ctx_t *)arg_32(D)].ip,
	call	handle_announce	#
.LVL149:
.L52:
# tracker.c:281:                 registered = 1;
	.loc 1 281 28 is_stmt 0 view .LVU432
	movl	$1, 40(%rsp)	#, %sfp
.LVL150:
	.loc 1 281 28 view .LVU433
	jmp	.L59	#
.LVL151:
.L50:
	.loc 1 280 17 is_stmt 1 view .LVU434
	movq	32(%rsp), %rax	# %sfp, arg
.LBB204:
.LBB205:
# tracker.c:105:     const uint8_t *p = payload, *end = payload + plen;
	.loc 1 105 48 is_stmt 0 view .LVU435
	movl	76(%rsp), %edx	# plen, plen.6_5
# tracker.c:108:     if (buf_get_bytes(&p, end, pid, PEER_ID_SIZE) < 0 ||
	.loc 1 108 9 view .LVU436
	leaq	96(%rsp), %r15	#, tmp219
	leaq	128(%rsp), %rbp	#, tmp366
	movl	$16, %ecx	#,
	movq	%r15, %rdi	# tmp219,
.LBE205:
.LBE204:
# tracker.c:280:                 handle_register(fd, payload, plen, ctx->ip, peer_id, &listen_port);
	.loc 1 280 17 view .LVU437
	movl	4(%rax), %ebx	# MEM[(struct client_ctx_t *)arg_32(D)].ip, _4
	movq	80(%rsp), %rax	# payload, payload.7_6
.LVL152:
.LBB236:
.LBI204:
	.loc 1 101 13 is_stmt 1 view .LVU438
.LBB232:
	.loc 1 105 5 view .LVU439
# tracker.c:105:     const uint8_t *p = payload, *end = payload + plen;
	.loc 1 105 34 is_stmt 0 view .LVU440
	leaq	(%rax,%rdx), %r14	#, end
.LVL153:
	.loc 1 106 5 is_stmt 1 view .LVU441
	.loc 1 107 5 view .LVU442
	.loc 1 108 5 view .LVU443
# tracker.c:108:     if (buf_get_bytes(&p, end, pid, PEER_ID_SIZE) < 0 ||
	.loc 1 108 9 is_stmt 0 view .LVU444
	movq	%rbp, %rdx	# tmp366,
# tracker.c:105:     const uint8_t *p = payload, *end = payload + plen;
	.loc 1 105 20 view .LVU445
	movq	%rax, 96(%rsp)	# payload.7_6, MEM[(const uint8_t * *)_207]
# tracker.c:108:     if (buf_get_bytes(&p, end, pid, PEER_ID_SIZE) < 0 ||
	.loc 1 108 9 view .LVU446
	movq	%r14, %rsi	# end,
	call	buf_get_bytes@PLT	#
.LVL154:
# tracker.c:108:     if (buf_get_bytes(&p, end, pid, PEER_ID_SIZE) < 0 ||
	.loc 1 108 8 discriminator 1 view .LVU447
	testl	%eax, %eax	# tmp371
	js	.L53	#,
# tracker.c:109:         buf_get_u16  (&p, end, &listen_port)       < 0) {
	.loc 1 109 9 view .LVU448
	leaq	88(%rsp), %rdx	#, tmp221
	movq	%r14, %rsi	# end,
	movq	%r15, %rdi	# tmp219,
	call	buf_get_u16@PLT	#
.LVL155:
# tracker.c:108:     if (buf_get_bytes(&p, end, pid, PEER_ID_SIZE) < 0 ||
	.loc 1 108 55 discriminator 1 view .LVU449
	testl	%eax, %eax	# tmp372
	js	.L53	#,
	.loc 1 112 5 is_stmt 1 view .LVU450
	leaq	lock(%rip), %r14	#, tmp364
.LVL156:
	.loc 1 112 5 is_stmt 0 view .LVU451
	movq	%r14, %rdi	# tmp364,
	call	pthread_mutex_lock@PLT	#
.LVL157:
	.loc 1 113 5 is_stmt 1 view .LVU452
	.loc 1 114 5 view .LVU453
.LBB206:
	.loc 1 114 10 view .LVU454
# tracker.c:114:     for (peer_entry_t *pe = peers; pe; pe = pe->next)
	.loc 1 114 24 is_stmt 0 view .LVU455
	movq	peers(%rip), %r15	# peers, pe
.LVL158:
	.loc 1 114 36 is_stmt 1 discriminator 1 view .LVU456
	testq	%r15, %r15	# pe
	je	.L54	#,
# tracker.c:114:     for (peer_entry_t *pe = peers; pe; pe = pe->next)
	.loc 1 114 24 is_stmt 0 view .LVU457
	movq	%r15, %rdx	# pe, pe
	jmp	.L58	#
.LVL159:
	.p2align 4,,10
	.p2align 3
.L122:
	.loc 1 114 43 is_stmt 1 discriminator 2 view .LVU458
	movq	24(%rdx), %rdx	# pe_333->next, pe
.LVL160:
	.loc 1 114 36 discriminator 1 view .LVU459
	testq	%rdx, %rdx	# pe
	je	.L54	#,
.L58:
	.loc 1 115 9 view .LVU460
# tracker.c:115:         if (memcmp(pe->peer_id, pid, PEER_ID_SIZE) == 0) { exist = pe; break; }
	.loc 1 115 13 is_stmt 0 view .LVU461
	movq	(%rdx), %rax	# MEM <char[1:16]> [(void *)pe_333], tmp412
	movq	8(%rdx), %rcx	# MEM <char[1:16]> [(void *)pe_333], tmp414
	xorq	0(%rbp), %rax	# MEM <char[1:16]> [(void *)_82], tmp411
	xorq	8(%rbp), %rcx	# MEM <char[1:16]> [(void *)_82], tmp413
	orq	%rcx, %rax	# tmp413, tmp411
	jne	.L122	#,
.LVL161:
	.loc 1 115 13 view .LVU462
.LBE206:
	.loc 1 116 5 is_stmt 1 view .LVU463
.LBB207:
# tracker.c:121:         np->ip = client_ip; np->port = listen_port;
	.loc 1 121 38 is_stmt 0 view .LVU464
	movzwl	88(%rsp), %eax	# MEM[(short unsigned int *)_57], pretmp_45
	.loc 1 121 38 view .LVU465
.LBE207:
	.loc 1 117 9 is_stmt 1 view .LVU466
# tracker.c:117:         exist->ip = client_ip; exist->port = listen_port;
	.loc 1 117 19 is_stmt 0 view .LVU467
	movl	%ebx, 16(%rdx)	# _4, pe_333->ip
	.loc 1 117 32 is_stmt 1 view .LVU468
# tracker.c:117:         exist->ip = client_ip; exist->port = listen_port;
	.loc 1 117 44 is_stmt 0 view .LVU469
	movw	%ax, 20(%rdx)	# pretmp_45, pe_333->port
.LVL162:
.L102:
	.loc 1 124 5 is_stmt 1 view .LVU470
	movq	%r14, %rdi	# tmp364,
	call	pthread_mutex_unlock@PLT	#
.LVL163:
	.loc 1 125 5 view .LVU471
.LBB214:
.LBI214:
	.loc 3 26 1 view .LVU472
.LBB215:
	.loc 3 29 3 view .LVU473
.LBE215:
.LBE214:
# tracker.c:126:     *out_listen_port = listen_port;
	.loc 1 126 22 is_stmt 0 view .LVU474
	movzwl	88(%rsp), %eax	# MEM[(short unsigned int *)_57], listen_port
.LBB218:
.LBB219:
# tracker.c:98:     msg_send(fd, type, &status, 1);
	.loc 1 98 5 view .LVU475
	leaq	75(%rsp), %rdx	#, tmp231
	movl	%r12d, %edi	# fd,
	movl	$1, %ecx	#,
	movl	$2, %esi	#,
	movb	$0, 75(%rsp)	#, MEM[(unsigned char *)_44]
.LBE219:
.LBE218:
.LBB221:
.LBB216:
# /usr/include/x86_64-linux-gnu/bits/string_fortified.h:29:   return __builtin___memcpy_chk (__dest, __src, __len,
	.loc 3 29 10 discriminator 1 view .LVU476
	movdqa	128(%rsp), %xmm1	# MEM <uint128_t> [(char * {ref-all})_82], tmp475
.LBE216:
.LBE221:
# tracker.c:126:     *out_listen_port = listen_port;
	.loc 1 126 22 view .LVU477
	movw	%ax, 46(%rsp)	# listen_port, %sfp
.LVL164:
.LBB222:
.LBB217:
# /usr/include/x86_64-linux-gnu/bits/string_fortified.h:29:   return __builtin___memcpy_chk (__dest, __src, __len,
	.loc 3 29 10 discriminator 1 view .LVU478
	movaps	%xmm1, 112(%rsp)	# tmp475, MEM <uint128_t> [(char * {ref-all})&peer_id]
.LVL165:
	.loc 3 29 10 discriminator 1 view .LVU479
.LBE217:
.LBE222:
	.loc 1 126 5 is_stmt 1 view .LVU480
	.loc 1 127 5 view .LVU481
.LBB223:
.LBI218:
	.loc 1 97 13 view .LVU482
.LBB220:
	.loc 1 98 5 view .LVU483
	call	msg_send@PLT	#
.LVL166:
	.loc 1 98 5 is_stmt 0 view .LVU484
.LBE220:
.LBE223:
	.loc 1 128 5 is_stmt 1 view .LVU485
	movzwl	88(%rsp), %ebp	# MEM[(short unsigned int *)_57], _91
	movl	%ebx, %edi	# _4,
	call	ip_to_str@PLT	#
.LVL167:
.LBB224:
.LBB225:
# /usr/include/x86_64-linux-gnu/bits/stdio2.h:79:   return __fprintf_chk (__stream, __USE_FORTIFY_LEVEL - 1, __fmt,
	.loc 2 79 10 is_stmt 0 view .LVU486
	movq	stderr(%rip), %rdi	# stderr,
	movl	$2, %esi	#,
	leaq	.LC2(%rip), %rdx	#, tmp233
.LBE225:
.LBE224:
# tracker.c:128:     LOG_INFO("REGISTER %s:%u", ip_to_str(client_ip), listen_port);
	.loc 1 128 5 view .LVU487
	movq	%rax, %rcx	# tmp374, _92
.LVL168:
.LBB227:
.LBI224:
	.loc 2 77 1 is_stmt 1 view .LVU488
.LBB226:
	.loc 2 79 3 view .LVU489
# /usr/include/x86_64-linux-gnu/bits/stdio2.h:79:   return __fprintf_chk (__stream, __USE_FORTIFY_LEVEL - 1, __fmt,
	.loc 2 79 10 is_stmt 0 view .LVU490
	movl	%ebp, %r8d	# _91,
	xorl	%eax, %eax	#
	call	__fprintf_chk@PLT	#
.LVL169:
	.loc 2 79 10 view .LVU491
.LBE226:
.LBE227:
.LBE232:
.LBE236:
# tracker.c:281:                 registered = 1;
	.loc 1 281 28 view .LVU492
	movl	$1, 40(%rsp)	#, %sfp
.LVL170:
.LBB237:
.LBB233:
	.loc 1 281 28 view .LVU493
	jmp	.L59	#
.LVL171:
.L60:
	.loc 1 281 28 view .LVU494
.LBE233:
.LBE237:
	.loc 1 287 21 is_stmt 1 view .LVU495
.LBB238:
.LBB239:
# tracker.c:98:     msg_send(fd, type, &status, 1);
	.loc 1 98 5 is_stmt 0 view .LVU496
	leaq	96(%rsp), %rdx	#, tmp239
	movl	$1, %ecx	#,
	movl	$4, %esi	#,
	movl	%r12d, %edi	# fd,
	movb	$1, 96(%rsp)	#, MEM[(unsigned char *)_207]
.LVL172:
	.loc 1 98 5 view .LVU497
.LBE239:
.LBI238:
	.loc 1 97 13 is_stmt 1 view .LVU498
.LBB240:
	.loc 1 98 5 view .LVU499
	call	msg_send@PLT	#
.LVL173:
	.loc 1 98 5 is_stmt 0 view .LVU500
	jmp	.L59	#
.LVL174:
.L53:
	.loc 1 98 5 view .LVU501
.LBE240:
.LBE238:
.LBB241:
.LBB234:
	.loc 1 110 9 is_stmt 1 view .LVU502
.LBB228:
.LBB229:
# tracker.c:98:     msg_send(fd, type, &status, 1);
	.loc 1 98 5 is_stmt 0 view .LVU503
	leaq	75(%rsp), %rdx	#, tmp220
	movl	$1, %ecx	#,
	movl	$2, %esi	#,
	movl	%r12d, %edi	# fd,
	movb	$1, 75(%rsp)	#, MEM[(unsigned char *)_44]
.LVL175:
	.loc 1 98 5 view .LVU504
.LBE229:
.LBI228:
	.loc 1 97 13 is_stmt 1 view .LVU505
.LBB230:
	.loc 1 98 5 view .LVU506
	call	msg_send@PLT	#
.LVL176:
	.loc 1 98 5 is_stmt 0 view .LVU507
.LBE230:
.LBE228:
	.loc 1 110 47 is_stmt 1 discriminator 1 view .LVU508
	jmp	.L52	#
.LVL177:
.L155:
	.loc 1 110 47 is_stmt 0 discriminator 1 view .LVU509
.LBE234:
.LBE241:
.LBE248:
	.loc 1 303 9 is_stmt 1 view .LVU510
	leaq	lock(%rip), %rbx	#, tmp364
	movq	%rbx, %rdi	# tmp364,
	call	pthread_mutex_lock@PLT	#
.LVL178:
	.loc 1 304 9 view .LVU511
.LBB249:
.LBI249:
	.loc 1 68 13 view .LVU512
.LBB250:
	.loc 1 69 5 view .LVU513
.LBB251:
	.loc 1 69 10 view .LVU514
# tracker.c:69:     for (file_entry_t *f = files; f; f = f->next) {
	.loc 1 69 24 is_stmt 0 view .LVU515
	movq	files(%rip), %r14	# files, f
.LVL179:
	.loc 1 69 35 is_stmt 1 discriminator 1 view .LVU516
	testq	%r14, %r14	# f
	je	.L90	#,
	.p2align 4,,10
	.p2align 3
.L86:
.LBB252:
	.loc 1 70 9 view .LVU517
# tracker.c:71:         while (*pp) {
	.loc 1 71 16 is_stmt 0 view .LVU518
	movq	312(%r14), %rdi	# MEM[(struct peer_entry_t * *)f_341 + 312B], _196
# tracker.c:70:         peer_entry_t **pp = &f->peers;
	.loc 1 70 24 view .LVU519
	leaq	312(%r14), %r13	#, pp
.LVL180:
	.loc 1 71 9 is_stmt 1 view .LVU520
	.loc 1 71 16 view .LVU521
	leaq	112(%rsp), %rbp	#, tmp365
.LVL181:
	.loc 1 71 16 is_stmt 0 view .LVU522
	testq	%rdi, %rdi	# _196
	jne	.L89	#,
	.loc 1 71 16 view .LVU523
	jmp	.L95	#
	.p2align 4,,10
	.p2align 3
.L91:
	.loc 1 77 17 is_stmt 1 view .LVU524
# tracker.c:77:                 pp = &(*pp)->next;
	.loc 1 77 20 is_stmt 0 view .LVU525
	leaq	24(%rdi), %r13	#, pp
.LVL182:
	.loc 1 71 16 is_stmt 1 view .LVU526
	movq	0(%r13), %rdi	# *pp_213, _196
	testq	%rdi, %rdi	# _196
	je	.L95	#,
.L89:
	.loc 1 72 13 view .LVU527
# tracker.c:72:             if (memcmp((*pp)->peer_id, pid, PEER_ID_SIZE) == 0) {
	.loc 1 72 17 is_stmt 0 view .LVU528
	movq	(%rdi), %rax	# MEM <char[1:16]> [(void *)_342], tmp392
	movq	8(%rdi), %rdx	# MEM <char[1:16]> [(void *)_342], tmp394
	xorq	0(%rbp), %rax	# MEM <char[1:16]> [(void *)&peer_id], tmp391
	xorq	8(%rbp), %rdx	# MEM <char[1:16]> [(void *)&peer_id], tmp393
	orq	%rdx, %rax	# tmp393, tmp391
	jne	.L91	#,
.LBB253:
# tracker.c:74:                 *pp = dead->next;
	.loc 1 74 27 view .LVU529
	movq	24(%rdi), %rax	# _342->next, pretmp_222
	.loc 1 73 17 is_stmt 1 view .LVU530
.LVL183:
	.loc 1 74 17 view .LVU531
# tracker.c:74:                 *pp = dead->next;
	.loc 1 74 21 is_stmt 0 view .LVU532
	movq	%rax, 0(%r13)	# pretmp_222, *pp_343
	.loc 1 75 17 is_stmt 1 view .LVU533
	call	free@PLT	#
.LVL184:
	.loc 1 75 17 is_stmt 0 view .LVU534
.LBE253:
	.loc 1 71 16 is_stmt 1 view .LVU535
	movq	0(%r13), %rdi	# *pp_213, _196
	testq	%rdi, %rdi	# _196
	jne	.L89	#,
.LVL185:
.L95:
	.loc 1 71 16 is_stmt 0 view .LVU536
.LBE252:
	.loc 1 69 40 is_stmt 1 discriminator 2 view .LVU537
	movq	320(%r14), %r14	# f_341->next, f
.LVL186:
	.loc 1 69 35 discriminator 1 view .LVU538
	testq	%r14, %r14	# f
	jne	.L86	#,
.LVL187:
.L90:
	.loc 1 69 35 is_stmt 0 discriminator 1 view .LVU539
.LBE251:
	.loc 1 82 12 is_stmt 1 view .LVU540
	movq	peers(%rip), %rdi	# peers, _203
# tracker.c:81:     peer_entry_t **pp = &peers;
	.loc 1 81 20 is_stmt 0 view .LVU541
	leaq	peers(%rip), %r13	#, pp
	leaq	112(%rsp), %rbp	#, tmp365
.LVL188:
# tracker.c:82:     while (*pp) {
	.loc 1 82 12 view .LVU542
	testq	%rdi, %rdi	# _203
	jne	.L87	#,
	jmp	.L88	#
.LVL189:
	.p2align 4,,10
	.p2align 3
.L96:
	.loc 1 86 13 is_stmt 1 view .LVU543
# tracker.c:86:             pp = &(*pp)->next;
	.loc 1 86 16 is_stmt 0 view .LVU544
	leaq	24(%rdi), %r13	#, pp
.LVL190:
	.loc 1 82 12 is_stmt 1 view .LVU545
	movq	0(%r13), %rdi	# *pp_3, _203
	testq	%rdi, %rdi	# _203
	je	.L88	#,
.LVL191:
.L87:
	.loc 1 83 9 view .LVU546
# tracker.c:83:         if (memcmp((*pp)->peer_id, pid, PEER_ID_SIZE) == 0) {
	.loc 1 83 13 is_stmt 0 view .LVU547
	movq	(%rdi), %rax	# MEM <char[1:16]> [(void *)_344], tmp388
	movq	8(%rdi), %rdx	# MEM <char[1:16]> [(void *)_344], tmp390
	xorq	0(%rbp), %rax	# MEM <char[1:16]> [(void *)&peer_id], tmp387
	xorq	8(%rbp), %rdx	# MEM <char[1:16]> [(void *)&peer_id], tmp389
	orq	%rdx, %rax	# tmp389, tmp387
	jne	.L96	#,
.LBB254:
# tracker.c:84:             peer_entry_t *d = *pp; *pp = d->next; free(d);
	.loc 1 84 43 view .LVU548
	movq	24(%rdi), %rax	# _344->next, pretmp_194
	.loc 1 84 13 is_stmt 1 view .LVU549
.LVL192:
	.loc 1 84 36 view .LVU550
# tracker.c:84:             peer_entry_t *d = *pp; *pp = d->next; free(d);
	.loc 1 84 40 is_stmt 0 view .LVU551
	movq	%rax, 0(%r13)	# pretmp_194, *pp_345
	.loc 1 84 51 is_stmt 1 view .LVU552
	call	free@PLT	#
.LVL193:
	.loc 1 84 51 is_stmt 0 view .LVU553
.LBE254:
	.loc 1 82 12 is_stmt 1 view .LVU554
	movq	0(%r13), %rdi	# *pp_3, _203
	testq	%rdi, %rdi	# _203
	jne	.L87	#,
.LVL194:
.L88:
	.loc 1 82 12 is_stmt 0 view .LVU555
.LBE250:
.LBE249:
	.loc 1 305 9 is_stmt 1 view .LVU556
	movq	%rbx, %rdi	# tmp364,
	call	pthread_mutex_unlock@PLT	#
.LVL195:
	.loc 1 306 9 view .LVU557
	movq	32(%rsp), %rax	# %sfp, arg
	movl	4(%rax), %edi	# MEM[(struct client_ctx_t *)arg_32(D)].ip, MEM[(struct client_ctx_t *)arg_32(D)].ip
	call	ip_to_str@PLT	#
.LVL196:
.LBB255:
.LBB256:
# /usr/include/x86_64-linux-gnu/bits/stdio2.h:79:   return __fprintf_chk (__stream, __USE_FORTIFY_LEVEL - 1, __fmt,
	.loc 2 79 10 is_stmt 0 view .LVU558
	movzwl	46(%rsp), %r8d	# %sfp,
	movl	$2, %esi	#,
	movq	stderr(%rip), %rdi	# stderr,
.LBE256:
.LBE255:
# tracker.c:306:         LOG_INFO("DISCONNECT %s:%u", ip_to_str(ctx->ip), listen_port);
	.loc 1 306 9 view .LVU559
	movq	%rax, %rcx	# tmp384, _24
.LVL197:
.LBB258:
.LBI255:
	.loc 2 77 1 is_stmt 1 view .LVU560
.LBB257:
	.loc 2 79 3 view .LVU561
# /usr/include/x86_64-linux-gnu/bits/stdio2.h:79:   return __fprintf_chk (__stream, __USE_FORTIFY_LEVEL - 1, __fmt,
	.loc 2 79 10 is_stmt 0 view .LVU562
	leaq	.LC4(%rip), %rdx	#, tmp328
	xorl	%eax, %eax	#
	call	__fprintf_chk@PLT	#
.LVL198:
	.loc 2 79 10 view .LVU563
	jmp	.L85	#
.LVL199:
.L159:
	.loc 2 79 10 view .LVU564
.LBE257:
.LBE258:
.LBB259:
.LBB242:
.LBB182:
	.loc 1 259 9 is_stmt 1 view .LVU565
# tracker.c:259:         buf_put_bytes(&w, f->chunk_hashes, (size_t)f->chunk_count * HASH_SIZE);
	.loc 1 259 44 is_stmt 0 view .LVU566
	movl	%eax, %edx	# _179, _179
# tracker.c:259:         buf_put_bytes(&w, f->chunk_hashes, (size_t)f->chunk_count * HASH_SIZE);
	.loc 1 259 9 view .LVU567
	movq	304(%r15), %rsi	# f_340->chunk_hashes, f_340->chunk_hashes
	movq	%rbx, %rdi	# tmp344,
	salq	$5, %rdx	#, tmp309
	call	buf_put_bytes@PLT	#
.LVL200:
	jmp	.L105	#
.LVL201:
.L160:
	.loc 1 259 9 view .LVU568
.LBE182:
.LBE242:
.LBB243:
.LBB193:
.LBB192:
	.loc 1 211 9 is_stmt 1 view .LVU569
	.loc 1 212 9 view .LVU570
	.loc 1 212 26 view .LVU571
# tracker.c:212:         uint8_t  tmp[4]; uint8_t *w = tmp; buf_put_u32(&w, zero);
	.loc 1 212 35 is_stmt 0 view .LVU572
	leaq	108(%rsp), %rbx	#, tmp271
# tracker.c:212:         uint8_t  tmp[4]; uint8_t *w = tmp; buf_put_u32(&w, zero);
	.loc 1 212 44 view .LVU573
	leaq	96(%rsp), %rdi	#, tmp272
	xorl	%esi, %esi	#
# tracker.c:212:         uint8_t  tmp[4]; uint8_t *w = tmp; buf_put_u32(&w, zero);
	.loc 1 212 35 view .LVU574
	movq	%rbx, 96(%rsp)	# tmp271, MEM[(uint8_t * *)_207]
	.loc 1 212 44 is_stmt 1 view .LVU575
	call	buf_put_u32@PLT	#
.LVL202:
	.loc 1 213 9 view .LVU576
	movl	$4, %ecx	#,
	movq	%rbx, %rdx	# tmp271,
	movl	%r12d, %edi	# fd,
	movl	$8, %esi	#,
	call	msg_send@PLT	#
.LVL203:
	.loc 1 213 51 discriminator 1 view .LVU577
	jmp	.L59	#
.LVL204:
.L54:
	.loc 1 213 51 is_stmt 0 discriminator 1 view .LVU578
.LBE192:
.LBE193:
.LBE243:
.LBB244:
.LBB235:
.LBB231:
	.loc 1 119 9 is_stmt 1 view .LVU579
# tracker.c:119:         peer_entry_t *np = calloc(1, sizeof *np);
	.loc 1 119 28 is_stmt 0 view .LVU580
	movl	$32, %esi	#,
	movl	$1, %edi	#,
	call	calloc@PLT	#
.LVL205:
	.loc 1 120 9 is_stmt 1 view .LVU581
.LBB208:
.LBI208:
	.loc 3 26 1 view .LVU582
.LBB209:
	.loc 3 29 3 view .LVU583
.LBE209:
.LBE208:
# tracker.c:121:         np->ip = client_ip; np->port = listen_port;
	.loc 1 121 38 is_stmt 0 view .LVU584
	movzwl	88(%rsp), %edx	# MEM[(short unsigned int *)_57], MEM[(short unsigned int *)_57]
.LBB212:
.LBB210:
# /usr/include/x86_64-linux-gnu/bits/string_fortified.h:29:   return __builtin___memcpy_chk (__dest, __src, __len,
	.loc 3 29 10 discriminator 1 view .LVU585
	movdqa	128(%rsp), %xmm2	# MEM <uint128_t> [(char * {ref-all})_82], tmp474
.LBE210:
.LBE212:
# tracker.c:121:         np->ip = client_ip; np->port = listen_port;
	.loc 1 121 16 view .LVU586
	movl	%ebx, 16(%rax)	# _4, np_84->ip
# tracker.c:121:         np->ip = client_ip; np->port = listen_port;
	.loc 1 121 38 view .LVU587
	movw	%dx, 20(%rax)	# MEM[(short unsigned int *)_57], np_84->port
# tracker.c:122:         np->next = peers; peers = np;
	.loc 1 122 18 view .LVU588
	movq	%r15, 24(%rax)	# pe, np_84->next
# tracker.c:122:         np->next = peers; peers = np;
	.loc 1 122 33 view .LVU589
	movq	%rax, peers(%rip)	# tmp226, peers
.LBB213:
.LBB211:
# /usr/include/x86_64-linux-gnu/bits/string_fortified.h:29:   return __builtin___memcpy_chk (__dest, __src, __len,
	.loc 3 29 10 discriminator 1 view .LVU590
	movups	%xmm2, (%rax)	# tmp474, MEM <uint128_t> [(char * {ref-all})np_84]
.LVL206:
	.loc 3 29 10 discriminator 1 view .LVU591
.LBE211:
.LBE213:
	.loc 1 121 9 is_stmt 1 view .LVU592
	.loc 1 121 29 view .LVU593
	.loc 1 122 9 view .LVU594
	.loc 1 122 27 view .LVU595
	jmp	.L102	#
.LVL207:
.L163:
	.loc 1 122 27 is_stmt 0 view .LVU596
.LBE231:
.LBE235:
.LBE244:
.LBB245:
.LBB194:
	.loc 1 219 5 is_stmt 1 view .LVU597
	.loc 1 220 5 view .LVU598
# tracker.c:220:     uint8_t *buf = malloc(cap), *w = buf;
	.loc 1 220 20 is_stmt 0 view .LVU599
	movl	$4, %edi	#,
# tracker.c:221:     buf_put_u32(&w, pc);
	.loc 1 221 5 view .LVU600
	leaq	96(%rsp), %rbx	#, tmp363
# tracker.c:220:     uint8_t *buf = malloc(cap), *w = buf;
	.loc 1 220 20 view .LVU601
	call	malloc@PLT	#
.LVL208:
# tracker.c:221:     buf_put_u32(&w, pc);
	.loc 1 221 5 view .LVU602
	xorl	%esi, %esi	#
	movq	%rbx, %rdi	# tmp363,
# tracker.c:220:     uint8_t *buf = malloc(cap), *w = buf;
	.loc 1 220 34 discriminator 1 view .LVU603
	movq	%rax, 96(%rsp)	# buf, MEM[(uint8_t * *)_207]
# tracker.c:220:     uint8_t *buf = malloc(cap), *w = buf;
	.loc 1 220 20 view .LVU604
	movq	%rax, %rbp	# tmp385, buf
.LVL209:
	.loc 1 221 5 is_stmt 1 view .LVU605
	call	buf_put_u32@PLT	#
.LVL210:
	.loc 1 222 5 view .LVU606
	jmp	.L100	#
.LVL211:
.L156:
	.loc 1 222 5 is_stmt 0 view .LVU607
.LBE194:
.LBE245:
.LBE259:
# tracker.c:311: }
	.loc 1 311 1 view .LVU608
	call	__stack_chk_fail@PLT	#
.LVL212:
	.cfi_endproc
.LFE84:
	.size	client_thread, .-client_thread
	.section	.rodata.str1.1
.LC5:
	.string	"listen"
	.section	.rodata.str1.8
	.align 8
.LC6:
	.string	"[INFO] tracker listening on port %u\n"
	.section	.text.unlikely,"ax",@progbits
.LCOLDB7:
	.section	.text.startup,"ax",@progbits
.LHOTB7:
	.p2align 4
	.section	.text.unlikely
.Ltext_cold0:
	.section	.text.startup
	.globl	main
	.type	main, @function
main:
.LVL213:
.LFB85:
	.loc 1 313 33 is_stmt 1 view -0
	.cfi_startproc
	.loc 1 313 33 is_stmt 0 view .LVU610
	endbr64	
	pushq	%r15	#
	.cfi_def_cfa_offset 16
	.cfi_offset 15, -16
	pushq	%r14	#
	.cfi_def_cfa_offset 24
	.cfi_offset 14, -24
	pushq	%r13	#
	.cfi_def_cfa_offset 32
	.cfi_offset 13, -32
	pushq	%r12	#
	.cfi_def_cfa_offset 40
	.cfi_offset 12, -40
	pushq	%rbp	#
	.cfi_def_cfa_offset 48
	.cfi_offset 6, -48
	pushq	%rbx	#
	.cfi_def_cfa_offset 56
	.cfi_offset 3, -56
	movl	$6881, %ebx	#,
	subq	$40, %rsp	#,
	.cfi_def_cfa_offset 96
# tracker.c:313: int main(int argc, char **argv) {
	.loc 1 313 33 view .LVU611
	movq	%fs:40, %rax	# MEM[(<address-space-1> long unsigned int *)40B], tmp125
	movq	%rax, 24(%rsp)	# tmp125, D.7419
	xorl	%eax, %eax	# tmp125
	.loc 1 314 5 is_stmt 1 view .LVU612
.LVL214:
	.loc 1 315 5 view .LVU613
# tracker.c:315:     if (argc > 1) port = (uint16_t)atoi(argv[1]);
	.loc 1 315 8 is_stmt 0 view .LVU614
	cmpl	$1, %edi	#, tmp118
	jle	.L165	#,
	.loc 1 315 19 is_stmt 1 discriminator 1 view .LVU615
.LVL215:
.LBB260:
.LBI260:
	.file 4 "/usr/include/stdlib.h"
	.loc 4 481 1 view .LVU616
.LBB261:
	.loc 4 483 3 view .LVU617
# /usr/include/stdlib.h:483:   return (int) strtol (__nptr, (char **) NULL, 10);
	.loc 4 483 16 is_stmt 0 view .LVU618
	movq	8(%rsi), %rdi	# MEM[(char * *)argv_13(D) + 8B], MEM[(char * *)argv_13(D) + 8B]
.LVL216:
	.loc 4 483 16 view .LVU619
	movl	$10, %edx	#,
	xorl	%esi, %esi	#
.LVL217:
	.loc 4 483 16 view .LVU620
	call	__isoc23_strtol@PLT	#
.LVL218:
	.loc 4 483 16 view .LVU621
.LBE261:
.LBE260:
# tracker.c:315:     if (argc > 1) port = (uint16_t)atoi(argv[1]);
	.loc 1 315 24 discriminator 1 view .LVU622
	movzwl	%ax, %ebx	# tmp120,
.LVL219:
.L165:
	.loc 1 317 5 is_stmt 1 view .LVU623
	movl	$1, %esi	#,
	movl	$13, %edi	#,
	call	signal@PLT	#
.LVL220:
	.loc 1 318 5 view .LVU624
	movq	stderr(%rip), %rdi	# stderr,
	xorl	%ecx, %ecx	#
	xorl	%esi, %esi	#
	movl	$1, %edx	#,
	call	setvbuf@PLT	#
.LVL221:
	.loc 1 320 5 view .LVU625
# tracker.c:320:     int srv = tcp_listen(port);
	.loc 1 320 15 is_stmt 0 view .LVU626
	movl	%ebx, %edi	# _3,
	call	tcp_listen@PLT	#
.LVL222:
	movl	%eax, %ebp	# tmp121, srv
.LVL223:
	.loc 1 321 5 is_stmt 1 view .LVU627
# tracker.c:321:     if (srv < 0) { perror("listen"); return 1; }
	.loc 1 321 8 is_stmt 0 view .LVU628
	testl	%eax, %eax	# srv
	js	.L173	#,
	.loc 1 322 5 is_stmt 1 view .LVU629
.LVL224:
.LBB262:
.LBI262:
	.loc 2 77 1 view .LVU630
.LBB263:
	.loc 2 79 3 view .LVU631
# /usr/include/x86_64-linux-gnu/bits/stdio2.h:79:   return __fprintf_chk (__stream, __USE_FORTIFY_LEVEL - 1, __fmt,
	.loc 2 79 10 is_stmt 0 view .LVU632
	movq	stderr(%rip), %rdi	# stderr,
	movl	%ebx, %ecx	# _3,
	movl	$2, %esi	#,
	xorl	%eax, %eax	#
.LVL225:
	.loc 2 79 10 view .LVU633
	leaq	.LC6(%rip), %rdx	#, tmp104
	leaq	10(%rsp), %r13	#, tmp117
	call	__fprintf_chk@PLT	#
.LVL226:
	.loc 2 79 10 view .LVU634
	leaq	12(%rsp), %r12	#, tmp114
	leaq	16(%rsp), %r15	#, tmp116
.LVL227:
	.p2align 4,,10
	.p2align 3
.L167:
	.loc 2 79 10 view .LVU635
.LBE263:
.LBE262:
	.loc 1 324 5 is_stmt 1 view .LVU636
.LBB264:
	.loc 1 325 9 view .LVU637
	.loc 1 326 9 view .LVU638
	.loc 1 327 9 view .LVU639
# tracker.c:327:         int fd = tcp_accept(srv, &ip, &cport);
	.loc 1 327 18 is_stmt 0 view .LVU640
	movq	%r13, %rdx	# tmp117,
	movq	%r12, %rsi	# tmp114,
	movl	%ebp, %edi	# srv,
	call	tcp_accept@PLT	#
.LVL228:
	movl	%eax, %ebx	# tmp122, fd
.LVL229:
	.loc 1 328 9 is_stmt 1 view .LVU641
# tracker.c:328:         if (fd < 0) continue;
	.loc 1 328 12 is_stmt 0 view .LVU642
	testl	%eax, %eax	# fd
	js	.L167	#,
	.loc 1 329 9 is_stmt 1 view .LVU643
# tracker.c:329:         client_ctx_t *ctx = malloc(sizeof *ctx);
	.loc 1 329 29 is_stmt 0 view .LVU644
	movl	$12, %edi	#,
	call	malloc@PLT	#
.LVL230:
# tracker.c:332:         if (pthread_create(&th, NULL, client_thread, ctx) != 0) {
	.loc 1 332 13 view .LVU645
	xorl	%esi, %esi	#
	leaq	client_thread(%rip), %rdx	#,
	movq	%r15, %rdi	# tmp116,
# tracker.c:329:         client_ctx_t *ctx = malloc(sizeof *ctx);
	.loc 1 329 29 view .LVU646
	movq	%rax, %r14	# tmp123, tmp107
.LVL231:
	.loc 1 330 9 is_stmt 1 view .LVU647
# tracker.c:330:         ctx->fd = fd; ctx->ip = ip; ctx->port = cport;
	.loc 1 330 17 is_stmt 0 view .LVU648
	movl	%ebx, (%rax)	# fd, ctx_23->fd
	.loc 1 330 23 is_stmt 1 view .LVU649
# tracker.c:330:         ctx->fd = fd; ctx->ip = ip; ctx->port = cport;
	.loc 1 330 31 is_stmt 0 view .LVU650
	movl	12(%rsp), %eax	# ip, ip
.LVL232:
# tracker.c:332:         if (pthread_create(&th, NULL, client_thread, ctx) != 0) {
	.loc 1 332 13 view .LVU651
	movq	%r14, %rcx	# tmp107,
# tracker.c:330:         ctx->fd = fd; ctx->ip = ip; ctx->port = cport;
	.loc 1 330 31 view .LVU652
	movl	%eax, 4(%r14)	# ip, ctx_23->ip
	.loc 1 330 37 is_stmt 1 view .LVU653
# tracker.c:330:         ctx->fd = fd; ctx->ip = ip; ctx->port = cport;
	.loc 1 330 47 is_stmt 0 view .LVU654
	movzwl	10(%rsp), %eax	# cport, cport
	movw	%ax, 8(%r14)	# cport, ctx_23->port
	.loc 1 331 9 is_stmt 1 view .LVU655
	.loc 1 332 9 view .LVU656
# tracker.c:332:         if (pthread_create(&th, NULL, client_thread, ctx) != 0) {
	.loc 1 332 13 is_stmt 0 view .LVU657
	call	pthread_create@PLT	#
.LVL233:
# tracker.c:332:         if (pthread_create(&th, NULL, client_thread, ctx) != 0) {
	.loc 1 332 12 discriminator 1 view .LVU658
	testl	%eax, %eax	# tmp124
	jne	.L177	#,
	.loc 1 335 9 is_stmt 1 view .LVU659
	movq	16(%rsp), %rdi	# th,
	call	pthread_detach@PLT	#
.LVL234:
	jmp	.L167	#
	.p2align 4,,10
	.p2align 3
.L177:
	.loc 1 333 13 view .LVU660
	movl	%ebx, %edi	# fd,
	call	close@PLT	#
.LVL235:
	.loc 1 333 24 discriminator 1 view .LVU661
	movq	%r14, %rdi	# tmp107,
	call	free@PLT	#
.LVL236:
	.loc 1 333 35 discriminator 2 view .LVU662
# tracker.c:333:             close(fd); free(ctx); continue;
	.loc 1 333 35 is_stmt 0 view .LVU663
	jmp	.L167	#
.LVL237:
	.loc 1 333 35 view .LVU664
.LBE264:
	.cfi_endproc
	.section	.text.unlikely
	.cfi_startproc
	.type	main.cold, @function
main.cold:
.LFSB85:
.LBB265:
.L173:
	.cfi_def_cfa_offset 96
	.cfi_offset 3, -56
	.cfi_offset 6, -48
	.cfi_offset 12, -40
	.cfi_offset 13, -32
	.cfi_offset 14, -24
	.cfi_offset 15, -16
.LBE265:
	.loc 1 321 20 is_stmt 1 discriminator 1 view -0
	leaq	.LC5(%rip), %rdi	#, tmp101
	call	perror@PLT	#
.LVL238:
	.loc 1 321 38 discriminator 1 view .LVU666
# tracker.c:338: }
	.loc 1 338 1 is_stmt 0 view .LVU667
	movq	24(%rsp), %rax	# D.7419, tmp126
	subq	%fs:40, %rax	# MEM[(<address-space-1> long unsigned int *)40B], tmp126
	jne	.L178	#,
	addq	$40, %rsp	#,
	.cfi_remember_state
	.cfi_def_cfa_offset 56
	movl	$1, %eax	#,
	popq	%rbx	#
	.cfi_def_cfa_offset 48
.LVL239:
	.loc 1 338 1 view .LVU668
	popq	%rbp	#
	.cfi_def_cfa_offset 40
.LVL240:
	.loc 1 338 1 view .LVU669
	popq	%r12	#
	.cfi_def_cfa_offset 32
	popq	%r13	#
	.cfi_def_cfa_offset 24
	popq	%r14	#
	.cfi_def_cfa_offset 16
	popq	%r15	#
	.cfi_def_cfa_offset 8
	ret	
.LVL241:
.L178:
	.cfi_restore_state
	.loc 1 338 1 view .LVU670
	call	__stack_chk_fail@PLT	#
.LVL242:
	.cfi_endproc
.LFE85:
	.section	.text.startup
	.size	main, .-main
	.section	.text.unlikely
	.size	main.cold, .-main.cold
.LCOLDE7:
	.section	.text.startup
.LHOTE7:
	.local	peers
	.comm	peers,8,8
	.local	files
	.comm	files,8,8
	.local	lock
	.comm	lock,40,32
	.text
.Letext0:
	.section	.text.unlikely
.Letext_cold0:
	.file 5 "/usr/include/x86_64-linux-gnu/bits/types.h"
	.file 6 "/usr/include/x86_64-linux-gnu/bits/stdint-uintn.h"
	.file 7 "/usr/lib/gcc/x86_64-linux-gnu/13/include/stddef.h"
	.file 8 "/usr/include/x86_64-linux-gnu/bits/types/struct_FILE.h"
	.file 9 "/usr/include/x86_64-linux-gnu/bits/types/FILE.h"
	.file 10 "/usr/include/x86_64-linux-gnu/bits/thread-shared-types.h"
	.file 11 "/usr/include/x86_64-linux-gnu/bits/struct_mutex.h"
	.file 12 "/usr/include/x86_64-linux-gnu/bits/pthreadtypes.h"
	.file 13 "protocol.h"
	.file 14 "/usr/include/pthread.h"
	.file 15 "/usr/include/signal.h"
	.file 16 "/usr/include/x86_64-linux-gnu/bits/stdio2-decl.h"
	.file 17 "/usr/include/string.h"
	.file 18 "chunk.h"
	.file 19 "net.h"
	.file 20 "/usr/include/unistd.h"
	.file 21 "/usr/include/stdio.h"
	.file 22 "<built-in>"
	.section	.debug_info,"",@progbits
.Ldebug_info0:
	.long	0x2789
	.value	0x5
	.byte	0x1
	.byte	0x8
	.long	.Ldebug_abbrev0
	.uleb128 0x3a
	.long	.LASF198
	.byte	0x1d
	.long	.LASF0
	.long	.LASF1
	.long	.LLRL135
	.quad	0
	.long	.Ldebug_line0
	.uleb128 0xf
	.byte	0x1
	.byte	0x8
	.long	.LASF2
	.uleb128 0xf
	.byte	0x2
	.byte	0x7
	.long	.LASF3
	.uleb128 0xf
	.byte	0x4
	.byte	0x7
	.long	.LASF4
	.uleb128 0xf
	.byte	0x8
	.byte	0x7
	.long	.LASF5
	.uleb128 0xf
	.byte	0x1
	.byte	0x6
	.long	.LASF6
	.uleb128 0xb
	.long	.LASF8
	.byte	0x5
	.byte	0x26
	.byte	0x17
	.long	0x2a
	.uleb128 0xf
	.byte	0x2
	.byte	0x5
	.long	.LASF7
	.uleb128 0xb
	.long	.LASF9
	.byte	0x5
	.byte	0x28
	.byte	0x1c
	.long	0x31
	.uleb128 0x3b
	.byte	0x4
	.byte	0x5
	.string	"int"
	.uleb128 0xb
	.long	.LASF10
	.byte	0x5
	.byte	0x2a
	.byte	0x16
	.long	0x38
	.uleb128 0xf
	.byte	0x8
	.byte	0x5
	.long	.LASF11
	.uleb128 0xb
	.long	.LASF12
	.byte	0x5
	.byte	0x2d
	.byte	0x1b
	.long	0x3f
	.uleb128 0xb
	.long	.LASF13
	.byte	0x5
	.byte	0x98
	.byte	0x19
	.long	0x7f
	.uleb128 0xb
	.long	.LASF14
	.byte	0x5
	.byte	0x99
	.byte	0x1b
	.long	0x7f
	.uleb128 0x3c
	.byte	0x8
	.uleb128 0x18
	.long	0xaa
	.uleb128 0x8
	.long	0xbb
	.uleb128 0x18
	.long	0xb1
	.uleb128 0xf
	.byte	0x1
	.byte	0x6
	.long	.LASF15
	.uleb128 0x2b
	.long	0xbb
	.uleb128 0xb
	.long	.LASF16
	.byte	0x6
	.byte	0x18
	.byte	0x13
	.long	0x4d
	.uleb128 0x2b
	.long	0xc7
	.uleb128 0xb
	.long	.LASF17
	.byte	0x6
	.byte	0x19
	.byte	0x14
	.long	0x60
	.uleb128 0xb
	.long	.LASF18
	.byte	0x6
	.byte	0x1a
	.byte	0x14
	.long	0x73
	.uleb128 0xb
	.long	.LASF19
	.byte	0x6
	.byte	0x1b
	.byte	0x14
	.long	0x86
	.uleb128 0xb
	.long	.LASF20
	.byte	0x7
	.byte	0xd6
	.byte	0x17
	.long	0x3f
	.uleb128 0xf
	.byte	0x8
	.byte	0x5
	.long	.LASF21
	.uleb128 0xf
	.byte	0x10
	.byte	0x4
	.long	.LASF22
	.uleb128 0x27
	.long	.LASF76
	.byte	0xd8
	.byte	0x8
	.byte	0x31
	.byte	0x8
	.long	0x29d
	.uleb128 0x5
	.long	.LASF23
	.byte	0x8
	.byte	0x33
	.byte	0x7
	.long	0x6c
	.byte	0
	.uleb128 0x5
	.long	.LASF24
	.byte	0x8
	.byte	0x36
	.byte	0x9
	.long	0xb1
	.byte	0x8
	.uleb128 0x5
	.long	.LASF25
	.byte	0x8
	.byte	0x37
	.byte	0x9
	.long	0xb1
	.byte	0x10
	.uleb128 0x5
	.long	.LASF26
	.byte	0x8
	.byte	0x38
	.byte	0x9
	.long	0xb1
	.byte	0x18
	.uleb128 0x5
	.long	.LASF27
	.byte	0x8
	.byte	0x39
	.byte	0x9
	.long	0xb1
	.byte	0x20
	.uleb128 0x5
	.long	.LASF28
	.byte	0x8
	.byte	0x3a
	.byte	0x9
	.long	0xb1
	.byte	0x28
	.uleb128 0x5
	.long	.LASF29
	.byte	0x8
	.byte	0x3b
	.byte	0x9
	.long	0xb1
	.byte	0x30
	.uleb128 0x5
	.long	.LASF30
	.byte	0x8
	.byte	0x3c
	.byte	0x9
	.long	0xb1
	.byte	0x38
	.uleb128 0x5
	.long	.LASF31
	.byte	0x8
	.byte	0x3d
	.byte	0x9
	.long	0xb1
	.byte	0x40
	.uleb128 0x5
	.long	.LASF32
	.byte	0x8
	.byte	0x40
	.byte	0x9
	.long	0xb1
	.byte	0x48
	.uleb128 0x5
	.long	.LASF33
	.byte	0x8
	.byte	0x41
	.byte	0x9
	.long	0xb1
	.byte	0x50
	.uleb128 0x5
	.long	.LASF34
	.byte	0x8
	.byte	0x42
	.byte	0x9
	.long	0xb1
	.byte	0x58
	.uleb128 0x5
	.long	.LASF35
	.byte	0x8
	.byte	0x44
	.byte	0x16
	.long	0x2b6
	.byte	0x60
	.uleb128 0x5
	.long	.LASF36
	.byte	0x8
	.byte	0x46
	.byte	0x14
	.long	0x2bb
	.byte	0x68
	.uleb128 0x5
	.long	.LASF37
	.byte	0x8
	.byte	0x48
	.byte	0x7
	.long	0x6c
	.byte	0x70
	.uleb128 0x5
	.long	.LASF38
	.byte	0x8
	.byte	0x49
	.byte	0x7
	.long	0x6c
	.byte	0x74
	.uleb128 0x5
	.long	.LASF39
	.byte	0x8
	.byte	0x4a
	.byte	0xb
	.long	0x92
	.byte	0x78
	.uleb128 0x5
	.long	.LASF40
	.byte	0x8
	.byte	0x4d
	.byte	0x12
	.long	0x31
	.byte	0x80
	.uleb128 0x5
	.long	.LASF41
	.byte	0x8
	.byte	0x4e
	.byte	0xf
	.long	0x46
	.byte	0x82
	.uleb128 0x5
	.long	.LASF42
	.byte	0x8
	.byte	0x4f
	.byte	0x8
	.long	0x2c0
	.byte	0x83
	.uleb128 0x5
	.long	.LASF43
	.byte	0x8
	.byte	0x51
	.byte	0xf
	.long	0x2d0
	.byte	0x88
	.uleb128 0x5
	.long	.LASF44
	.byte	0x8
	.byte	0x59
	.byte	0xd
	.long	0x9e
	.byte	0x90
	.uleb128 0x5
	.long	.LASF45
	.byte	0x8
	.byte	0x5b
	.byte	0x17
	.long	0x2da
	.byte	0x98
	.uleb128 0x5
	.long	.LASF46
	.byte	0x8
	.byte	0x5c
	.byte	0x19
	.long	0x2e4
	.byte	0xa0
	.uleb128 0x5
	.long	.LASF47
	.byte	0x8
	.byte	0x5d
	.byte	0x14
	.long	0x2bb
	.byte	0xa8
	.uleb128 0x5
	.long	.LASF48
	.byte	0x8
	.byte	0x5e
	.byte	0x9
	.long	0xaa
	.byte	0xb0
	.uleb128 0x5
	.long	.LASF49
	.byte	0x8
	.byte	0x5f
	.byte	0xa
	.long	0xfc
	.byte	0xb8
	.uleb128 0x5
	.long	.LASF50
	.byte	0x8
	.byte	0x60
	.byte	0x7
	.long	0x6c
	.byte	0xc0
	.uleb128 0x5
	.long	.LASF51
	.byte	0x8
	.byte	0x62
	.byte	0x8
	.long	0x2e9
	.byte	0xc4
	.byte	0
	.uleb128 0xb
	.long	.LASF52
	.byte	0x9
	.byte	0x7
	.byte	0x19
	.long	0x116
	.uleb128 0x3d
	.long	.LASF199
	.byte	0x8
	.byte	0x2b
	.byte	0xe
	.uleb128 0x2c
	.long	.LASF53
	.uleb128 0x8
	.long	0x2b1
	.uleb128 0x8
	.long	0x116
	.uleb128 0x14
	.long	0xbb
	.long	0x2d0
	.uleb128 0x15
	.long	0x3f
	.byte	0
	.byte	0
	.uleb128 0x8
	.long	0x2a9
	.uleb128 0x2c
	.long	.LASF54
	.uleb128 0x8
	.long	0x2d5
	.uleb128 0x2c
	.long	.LASF55
	.uleb128 0x8
	.long	0x2df
	.uleb128 0x14
	.long	0xbb
	.long	0x2f9
	.uleb128 0x15
	.long	0x3f
	.byte	0x13
	.byte	0
	.uleb128 0x8
	.long	0xc2
	.uleb128 0x18
	.long	0x2f9
	.uleb128 0x8
	.long	0x29d
	.uleb128 0x18
	.long	0x303
	.uleb128 0x3e
	.long	.LASF154
	.byte	0x15
	.byte	0x97
	.byte	0xe
	.long	0x303
	.uleb128 0x31
	.long	0x38
	.byte	0xd
	.byte	0x11
	.byte	0xe
	.long	0x398
	.uleb128 0x9
	.long	.LASF56
	.byte	0x1
	.uleb128 0x9
	.long	.LASF57
	.byte	0x2
	.uleb128 0x9
	.long	.LASF58
	.byte	0x3
	.uleb128 0x9
	.long	.LASF59
	.byte	0x4
	.uleb128 0x9
	.long	.LASF60
	.byte	0x5
	.uleb128 0x9
	.long	.LASF61
	.byte	0x6
	.uleb128 0x9
	.long	.LASF62
	.byte	0x7
	.uleb128 0x9
	.long	.LASF63
	.byte	0x8
	.uleb128 0x9
	.long	.LASF64
	.byte	0x9
	.uleb128 0x9
	.long	.LASF65
	.byte	0xa
	.uleb128 0x9
	.long	.LASF66
	.byte	0xb
	.uleb128 0x9
	.long	.LASF67
	.byte	0xc
	.uleb128 0x9
	.long	.LASF68
	.byte	0xd
	.uleb128 0x9
	.long	.LASF69
	.byte	0x20
	.uleb128 0x9
	.long	.LASF70
	.byte	0x21
	.uleb128 0x9
	.long	.LASF71
	.byte	0x22
	.uleb128 0x9
	.long	.LASF72
	.byte	0x23
	.uleb128 0x9
	.long	.LASF73
	.byte	0x24
	.uleb128 0x9
	.long	.LASF74
	.byte	0xff
	.byte	0
	.uleb128 0x14
	.long	0xc7
	.long	0x3a8
	.uleb128 0x15
	.long	0x3f
	.byte	0x1f
	.byte	0
	.uleb128 0x14
	.long	0xbb
	.long	0x3b8
	.uleb128 0x15
	.long	0x3f
	.byte	0xff
	.byte	0
	.uleb128 0x8
	.long	0xc7
	.uleb128 0xf
	.byte	0x8
	.byte	0x7
	.long	.LASF75
	.uleb128 0x27
	.long	.LASF77
	.byte	0x10
	.byte	0xa
	.byte	0x33
	.byte	0x10
	.long	0x3ec
	.uleb128 0x5
	.long	.LASF78
	.byte	0xa
	.byte	0x35
	.byte	0x23
	.long	0x3ec
	.byte	0
	.uleb128 0x5
	.long	.LASF79
	.byte	0xa
	.byte	0x36
	.byte	0x23
	.long	0x3ec
	.byte	0x8
	.byte	0
	.uleb128 0x8
	.long	0x3c4
	.uleb128 0xb
	.long	.LASF80
	.byte	0xa
	.byte	0x37
	.byte	0x3
	.long	0x3c4
	.uleb128 0x27
	.long	.LASF81
	.byte	0x28
	.byte	0xb
	.byte	0x16
	.byte	0x8
	.long	0x473
	.uleb128 0x5
	.long	.LASF82
	.byte	0xb
	.byte	0x18
	.byte	0x7
	.long	0x6c
	.byte	0
	.uleb128 0x5
	.long	.LASF83
	.byte	0xb
	.byte	0x19
	.byte	0x10
	.long	0x38
	.byte	0x4
	.uleb128 0x5
	.long	.LASF84
	.byte	0xb
	.byte	0x1a
	.byte	0x7
	.long	0x6c
	.byte	0x8
	.uleb128 0x5
	.long	.LASF85
	.byte	0xb
	.byte	0x1c
	.byte	0x10
	.long	0x38
	.byte	0xc
	.uleb128 0x5
	.long	.LASF86
	.byte	0xb
	.byte	0x20
	.byte	0x7
	.long	0x6c
	.byte	0x10
	.uleb128 0x5
	.long	.LASF87
	.byte	0xb
	.byte	0x22
	.byte	0x9
	.long	0x59
	.byte	0x14
	.uleb128 0x5
	.long	.LASF88
	.byte	0xb
	.byte	0x23
	.byte	0x9
	.long	0x59
	.byte	0x16
	.uleb128 0x5
	.long	.LASF89
	.byte	0xb
	.byte	0x24
	.byte	0x14
	.long	0x3f1
	.byte	0x18
	.byte	0
	.uleb128 0xb
	.long	.LASF90
	.byte	0xc
	.byte	0x1b
	.byte	0x1b
	.long	0x3f
	.uleb128 0x3f
	.long	.LASF93
	.byte	0x38
	.byte	0xc
	.byte	0x38
	.byte	0x7
	.long	0x4a3
	.uleb128 0x21
	.long	.LASF91
	.byte	0x3a
	.byte	0x8
	.long	0x4a3
	.uleb128 0x21
	.long	.LASF92
	.byte	0x3b
	.byte	0xc
	.long	0x7f
	.byte	0
	.uleb128 0x14
	.long	0xbb
	.long	0x4b3
	.uleb128 0x15
	.long	0x3f
	.byte	0x37
	.byte	0
	.uleb128 0xb
	.long	.LASF93
	.byte	0xc
	.byte	0x3e
	.byte	0x1e
	.long	0x47f
	.uleb128 0x2b
	.long	0x4b3
	.uleb128 0x40
	.byte	0x28
	.byte	0xc
	.byte	0x43
	.byte	0x9
	.long	0x4ef
	.uleb128 0x21
	.long	.LASF94
	.byte	0x45
	.byte	0x1c
	.long	0x3fd
	.uleb128 0x21
	.long	.LASF91
	.byte	0x46
	.byte	0x8
	.long	0x4ef
	.uleb128 0x21
	.long	.LASF92
	.byte	0x47
	.byte	0xc
	.long	0x7f
	.byte	0
	.uleb128 0x14
	.long	0xbb
	.long	0x4ff
	.uleb128 0x15
	.long	0x3f
	.byte	0x27
	.byte	0
	.uleb128 0xb
	.long	.LASF95
	.byte	0xc
	.byte	0x48
	.byte	0x3
	.long	0x4c4
	.uleb128 0x31
	.long	0x38
	.byte	0xe
	.byte	0x30
	.byte	0x1
	.long	0x54e
	.uleb128 0x9
	.long	.LASF96
	.byte	0
	.uleb128 0x9
	.long	.LASF97
	.byte	0x1
	.uleb128 0x9
	.long	.LASF98
	.byte	0x2
	.uleb128 0x9
	.long	.LASF99
	.byte	0x3
	.uleb128 0x9
	.long	.LASF100
	.byte	0
	.uleb128 0x9
	.long	.LASF101
	.byte	0x1
	.uleb128 0x9
	.long	.LASF102
	.byte	0x2
	.uleb128 0x9
	.long	.LASF103
	.byte	0
	.uleb128 0x9
	.long	.LASF104
	.byte	0
	.byte	0
	.uleb128 0x8
	.long	0x558
	.uleb128 0x18
	.long	0x54e
	.uleb128 0x41
	.uleb128 0x8
	.long	0xb1
	.uleb128 0x18
	.long	0x559
	.uleb128 0xb
	.long	.LASF105
	.byte	0xf
	.byte	0x48
	.byte	0x10
	.long	0x56f
	.uleb128 0x8
	.long	0x574
	.uleb128 0x42
	.long	0x57f
	.uleb128 0x2
	.long	0x6c
	.byte	0
	.uleb128 0x27
	.long	.LASF106
	.byte	0x20
	.byte	0x1
	.byte	0x1a
	.byte	0x10
	.long	0x5be
	.uleb128 0x5
	.long	.LASF107
	.byte	0x1
	.byte	0x1b
	.byte	0xf
	.long	0x5be
	.byte	0
	.uleb128 0x2d
	.string	"ip"
	.byte	0x1c
	.long	0xe4
	.byte	0x10
	.uleb128 0x5
	.long	.LASF108
	.byte	0x1
	.byte	0x1d
	.byte	0xf
	.long	0xd8
	.byte	0x14
	.uleb128 0x5
	.long	.LASF109
	.byte	0x1
	.byte	0x1e
	.byte	0x18
	.long	0x5ce
	.byte	0x18
	.byte	0
	.uleb128 0x14
	.long	0xc7
	.long	0x5ce
	.uleb128 0x15
	.long	0x3f
	.byte	0xf
	.byte	0
	.uleb128 0x8
	.long	0x57f
	.uleb128 0xb
	.long	.LASF110
	.byte	0x1
	.byte	0x1f
	.byte	0x3
	.long	0x57f
	.uleb128 0x43
	.long	.LASF111
	.value	0x148
	.byte	0x1
	.byte	0x21
	.byte	0x10
	.long	0x656
	.uleb128 0x5
	.long	.LASF112
	.byte	0x1
	.byte	0x22
	.byte	0x14
	.long	0x398
	.byte	0
	.uleb128 0x5
	.long	.LASF113
	.byte	0x1
	.byte	0x23
	.byte	0x14
	.long	0x3a8
	.byte	0x20
	.uleb128 0x1d
	.long	.LASF114
	.byte	0x24
	.byte	0x14
	.long	0xf0
	.value	0x120
	.uleb128 0x1d
	.long	.LASF115
	.byte	0x25
	.byte	0x14
	.long	0xe4
	.value	0x128
	.uleb128 0x1d
	.long	.LASF116
	.byte	0x26
	.byte	0x14
	.long	0xe4
	.value	0x12c
	.uleb128 0x1d
	.long	.LASF117
	.byte	0x27
	.byte	0x14
	.long	0x3b8
	.value	0x130
	.uleb128 0x1d
	.long	.LASF118
	.byte	0x28
	.byte	0x14
	.long	0x656
	.value	0x138
	.uleb128 0x1d
	.long	.LASF109
	.byte	0x29
	.byte	0x18
	.long	0x65b
	.value	0x140
	.byte	0
	.uleb128 0x8
	.long	0x5d3
	.uleb128 0x8
	.long	0x5df
	.uleb128 0xb
	.long	.LASF119
	.byte	0x1
	.byte	0x2a
	.byte	0x3
	.long	0x5df
	.uleb128 0x16
	.long	.LASF120
	.byte	0x2c
	.byte	0x18
	.long	0x4ff
	.uleb128 0x9
	.byte	0x3
	.quad	lock
	.uleb128 0x16
	.long	.LASF121
	.byte	0x2d
	.byte	0x18
	.long	0x696
	.uleb128 0x9
	.byte	0x3
	.quad	files
	.uleb128 0x8
	.long	0x660
	.uleb128 0x16
	.long	.LASF118
	.byte	0x2e
	.byte	0x18
	.long	0x656
	.uleb128 0x9
	.byte	0x3
	.quad	peers
	.uleb128 0x44
	.byte	0xc
	.byte	0x1
	.byte	0x5b
	.byte	0x9
	.long	0x6db
	.uleb128 0x2d
	.string	"fd"
	.byte	0x5c
	.long	0x6c
	.byte	0
	.uleb128 0x2d
	.string	"ip"
	.byte	0x5d
	.long	0xe4
	.byte	0x4
	.uleb128 0x5
	.long	.LASF108
	.byte	0x1
	.byte	0x5e
	.byte	0xf
	.long	0xd8
	.byte	0x8
	.byte	0
	.uleb128 0xb
	.long	.LASF122
	.byte	0x1
	.byte	0x5f
	.byte	0x3
	.long	0x6b0
	.uleb128 0xd
	.long	.LASF128
	.byte	0x10
	.byte	0x31
	.byte	0xc
	.long	0x6c
	.long	0x708
	.uleb128 0x2
	.long	0x308
	.uleb128 0x2
	.long	0x6c
	.uleb128 0x2
	.long	0x2fe
	.uleb128 0x2e
	.byte	0
	.uleb128 0x45
	.long	.LASF184
	.byte	0x4
	.byte	0xd7
	.byte	0x11
	.long	.LASF200
	.long	0x7f
	.long	0x72c
	.uleb128 0x2
	.long	0x2fe
	.uleb128 0x2
	.long	0x55e
	.uleb128 0x2
	.long	0x6c
	.byte	0
	.uleb128 0x1e
	.long	.LASF123
	.byte	0xd
	.byte	0x33
	.long	0x742
	.uleb128 0x2
	.long	0x742
	.uleb128 0x2
	.long	0xc7
	.byte	0
	.uleb128 0x8
	.long	0x3b8
	.uleb128 0x1e
	.long	.LASF124
	.byte	0xd
	.byte	0x36
	.long	0x75d
	.uleb128 0x2
	.long	0x742
	.uleb128 0x2
	.long	0xf0
	.byte	0
	.uleb128 0x1e
	.long	.LASF125
	.byte	0xd
	.byte	0x34
	.long	0x773
	.uleb128 0x2
	.long	0x742
	.uleb128 0x2
	.long	0xd8
	.byte	0
	.uleb128 0x1e
	.long	.LASF126
	.byte	0xd
	.byte	0x37
	.long	0x78e
	.uleb128 0x2
	.long	0x742
	.uleb128 0x2
	.long	0x54e
	.uleb128 0x2
	.long	0xfc
	.byte	0
	.uleb128 0x1e
	.long	.LASF127
	.byte	0xd
	.byte	0x35
	.long	0x7a4
	.uleb128 0x2
	.long	0x742
	.uleb128 0x2
	.long	0xe4
	.byte	0
	.uleb128 0x19
	.long	.LASF129
	.byte	0x11
	.value	0x197
	.byte	0xf
	.long	0xfc
	.long	0x7bb
	.uleb128 0x2
	.long	0x2f9
	.byte	0
	.uleb128 0x1e
	.long	.LASF130
	.byte	0x12
	.byte	0x1a
	.long	0x7d1
	.uleb128 0x2
	.long	0x7d1
	.uleb128 0x2
	.long	0xb1
	.byte	0
	.uleb128 0x8
	.long	0xd3
	.uleb128 0xd
	.long	.LASF131
	.byte	0xd
	.byte	0x3b
	.byte	0x6
	.long	0x6c
	.long	0x7f6
	.uleb128 0x2
	.long	0x7f6
	.uleb128 0x2
	.long	0x7d1
	.uleb128 0x2
	.long	0x7fb
	.byte	0
	.uleb128 0x8
	.long	0x7d1
	.uleb128 0x8
	.long	0xe4
	.uleb128 0xd
	.long	.LASF132
	.byte	0xd
	.byte	0x3c
	.byte	0x6
	.long	0x6c
	.long	0x820
	.uleb128 0x2
	.long	0x7f6
	.uleb128 0x2
	.long	0x7d1
	.uleb128 0x2
	.long	0x820
	.byte	0
	.uleb128 0x8
	.long	0xf0
	.uleb128 0x19
	.long	.LASF133
	.byte	0x4
	.value	0x2a3
	.byte	0xe
	.long	0xaa
	.long	0x841
	.uleb128 0x2
	.long	0xfc
	.uleb128 0x2
	.long	0xfc
	.byte	0
	.uleb128 0xd
	.long	.LASF134
	.byte	0x11
	.byte	0x40
	.byte	0xc
	.long	0x6c
	.long	0x861
	.uleb128 0x2
	.long	0x54e
	.uleb128 0x2
	.long	0x54e
	.uleb128 0x2
	.long	0xfc
	.byte	0
	.uleb128 0xd
	.long	.LASF135
	.byte	0xd
	.byte	0x3a
	.byte	0x6
	.long	0x6c
	.long	0x881
	.uleb128 0x2
	.long	0x7f6
	.uleb128 0x2
	.long	0x7d1
	.uleb128 0x2
	.long	0x881
	.byte	0
	.uleb128 0x8
	.long	0xd8
	.uleb128 0xd
	.long	.LASF136
	.byte	0xd
	.byte	0x3d
	.byte	0x6
	.long	0x6c
	.long	0x8ab
	.uleb128 0x2
	.long	0x7f6
	.uleb128 0x2
	.long	0x7d1
	.uleb128 0x2
	.long	0xaa
	.uleb128 0x2
	.long	0xfc
	.byte	0
	.uleb128 0xd
	.long	.LASF137
	.byte	0x13
	.byte	0xb
	.byte	0xd
	.long	0x2f9
	.long	0x8c1
	.uleb128 0x2
	.long	0xe4
	.byte	0
	.uleb128 0x19
	.long	.LASF138
	.byte	0xe
	.value	0x343
	.byte	0xc
	.long	0x6c
	.long	0x8d8
	.uleb128 0x2
	.long	0x8d8
	.byte	0
	.uleb128 0x8
	.long	0x4ff
	.uleb128 0x19
	.long	.LASF139
	.byte	0xe
	.value	0x31a
	.byte	0xc
	.long	0x6c
	.long	0x8f4
	.uleb128 0x2
	.long	0x8d8
	.byte	0
	.uleb128 0xd
	.long	.LASF140
	.byte	0xd
	.byte	0x2f
	.byte	0x6
	.long	0x6c
	.long	0x919
	.uleb128 0x2
	.long	0x6c
	.uleb128 0x2
	.long	0xc7
	.uleb128 0x2
	.long	0x54e
	.uleb128 0x2
	.long	0xe4
	.byte	0
	.uleb128 0xd
	.long	.LASF141
	.byte	0xd
	.byte	0x30
	.byte	0x6
	.long	0x6c
	.long	0x93e
	.uleb128 0x2
	.long	0x6c
	.uleb128 0x2
	.long	0x3b8
	.uleb128 0x2
	.long	0x742
	.uleb128 0x2
	.long	0x7fb
	.byte	0
	.uleb128 0x19
	.long	.LASF142
	.byte	0xe
	.value	0x10d
	.byte	0xc
	.long	0x6c
	.long	0x955
	.uleb128 0x2
	.long	0x473
	.byte	0
	.uleb128 0x32
	.long	.LASF143
	.byte	0x4
	.value	0x2af
	.long	0x967
	.uleb128 0x2
	.long	0xaa
	.byte	0
	.uleb128 0x19
	.long	.LASF144
	.byte	0x14
	.value	0x166
	.byte	0xc
	.long	0x6c
	.long	0x97e
	.uleb128 0x2
	.long	0x6c
	.byte	0
	.uleb128 0xd
	.long	.LASF145
	.byte	0xe
	.byte	0xca
	.byte	0xc
	.long	0x6c
	.long	0x9a3
	.uleb128 0x2
	.long	0x9a8
	.uleb128 0x2
	.long	0x9b2
	.uleb128 0x2
	.long	0x9b7
	.uleb128 0x2
	.long	0xac
	.byte	0
	.uleb128 0x8
	.long	0x473
	.uleb128 0x18
	.long	0x9a3
	.uleb128 0x8
	.long	0x4bf
	.uleb128 0x18
	.long	0x9ad
	.uleb128 0x8
	.long	0x9bc
	.uleb128 0x46
	.long	0xaa
	.long	0x9cb
	.uleb128 0x2
	.long	0xaa
	.byte	0
	.uleb128 0x19
	.long	.LASF146
	.byte	0x4
	.value	0x2a0
	.byte	0xe
	.long	0xaa
	.long	0x9e2
	.uleb128 0x2
	.long	0xfc
	.byte	0
	.uleb128 0xd
	.long	.LASF147
	.byte	0x13
	.byte	0x7
	.byte	0x6
	.long	0x6c
	.long	0xa02
	.uleb128 0x2
	.long	0x6c
	.uleb128 0x2
	.long	0x7fb
	.uleb128 0x2
	.long	0x881
	.byte	0
	.uleb128 0x32
	.long	.LASF148
	.byte	0x15
	.value	0x36e
	.long	0xa14
	.uleb128 0x2
	.long	0x2f9
	.byte	0
	.uleb128 0xd
	.long	.LASF149
	.byte	0x13
	.byte	0x6
	.byte	0x6
	.long	0x6c
	.long	0xa2a
	.uleb128 0x2
	.long	0xd8
	.byte	0
	.uleb128 0x19
	.long	.LASF150
	.byte	0x15
	.value	0x153
	.byte	0xc
	.long	0x6c
	.long	0xa50
	.uleb128 0x2
	.long	0x308
	.uleb128 0x2
	.long	0xb6
	.uleb128 0x2
	.long	0x6c
	.uleb128 0x2
	.long	0xfc
	.byte	0
	.uleb128 0xd
	.long	.LASF151
	.byte	0xf
	.byte	0x58
	.byte	0x17
	.long	0x563
	.long	0xa6b
	.uleb128 0x2
	.long	0x6c
	.uleb128 0x2
	.long	0x563
	.byte	0
	.uleb128 0x47
	.long	.LASF201
	.byte	0x1
	.value	0x139
	.byte	0x5
	.long	0x6c
	.long	.LLRL125
	.uleb128 0x1
	.byte	0x9c
	.long	0xcfd
	.uleb128 0x33
	.long	.LASF152
	.byte	0xe
	.long	0x6c
	.long	.LLST126
	.long	.LVUS126
	.uleb128 0x33
	.long	.LASF153
	.byte	0x1b
	.long	0x559
	.long	.LLST127
	.long	.LVUS127
	.uleb128 0x2f
	.long	.LASF108
	.value	0x13a
	.long	0xd8
	.long	.LLST128
	.long	.LVUS128
	.uleb128 0x28
	.string	"srv"
	.value	0x140
	.byte	0x9
	.long	0x6c
	.long	.LLST129
	.long	.LVUS129
	.uleb128 0x34
	.long	.LLRL132
	.long	0xbd0
	.uleb128 0x35
	.string	"ip"
	.value	0x145
	.byte	0x12
	.long	0xe4
	.uleb128 0x3
	.byte	0x91
	.sleb128 -84
	.uleb128 0x22
	.long	.LASF155
	.value	0x146
	.byte	0x12
	.long	0xd8
	.uleb128 0x3
	.byte	0x91
	.sleb128 -86
	.uleb128 0x28
	.string	"fd"
	.value	0x147
	.byte	0xd
	.long	0x6c
	.long	.LLST133
	.long	.LVUS133
	.uleb128 0x28
	.string	"ctx"
	.value	0x149
	.byte	0x17
	.long	0xcfd
	.long	.LLST134
	.long	.LVUS134
	.uleb128 0x35
	.string	"th"
	.value	0x14b
	.byte	0x13
	.long	0x473
	.uleb128 0x3
	.byte	0x91
	.sleb128 -80
	.uleb128 0x3
	.quad	.LVL228
	.long	0x9e2
	.long	0xb4f
	.uleb128 0x1
	.uleb128 0x1
	.byte	0x55
	.uleb128 0x2
	.byte	0x76
	.sleb128 0
	.uleb128 0x1
	.uleb128 0x1
	.byte	0x54
	.uleb128 0x2
	.byte	0x7c
	.sleb128 0
	.uleb128 0x1
	.uleb128 0x1
	.byte	0x51
	.uleb128 0x2
	.byte	0x7d
	.sleb128 0
	.byte	0
	.uleb128 0x3
	.quad	.LVL230
	.long	0x9cb
	.long	0xb66
	.uleb128 0x1
	.uleb128 0x1
	.byte	0x55
	.uleb128 0x1
	.byte	0x3c
	.byte	0
	.uleb128 0x3
	.quad	.LVL233
	.long	0x97e
	.long	0xb96
	.uleb128 0x1
	.uleb128 0x1
	.byte	0x55
	.uleb128 0x2
	.byte	0x7f
	.sleb128 0
	.uleb128 0x1
	.uleb128 0x1
	.byte	0x54
	.uleb128 0x1
	.byte	0x30
	.uleb128 0x1
	.uleb128 0x1
	.byte	0x51
	.uleb128 0x9
	.byte	0x3
	.quad	client_thread
	.uleb128 0x1
	.uleb128 0x1
	.byte	0x52
	.uleb128 0x2
	.byte	0x7e
	.sleb128 0
	.byte	0
	.uleb128 0x13
	.quad	.LVL234
	.long	0x93e
	.uleb128 0x3
	.quad	.LVL235
	.long	0x967
	.long	0xbbb
	.uleb128 0x1
	.uleb128 0x1
	.byte	0x55
	.uleb128 0x2
	.byte	0x73
	.sleb128 0
	.byte	0
	.uleb128 0xa
	.quad	.LVL236
	.long	0x955
	.uleb128 0x1
	.uleb128 0x1
	.byte	0x55
	.uleb128 0x2
	.byte	0x7e
	.sleb128 0
	.byte	0
	.byte	0
	.uleb128 0x29
	.long	0x26f3
	.quad	.LBI260
	.value	.LVU616
	.quad	.LBB260
	.quad	.LBE260-.LBB260
	.value	0x13b
	.byte	0x24
	.long	0xc1c
	.uleb128 0x4
	.long	0x2705
	.long	.LLST130
	.long	.LVUS130
	.uleb128 0xa
	.quad	.LVL218
	.long	0x708
	.uleb128 0x1
	.uleb128 0x1
	.byte	0x54
	.uleb128 0x1
	.byte	0x30
	.uleb128 0x1
	.uleb128 0x1
	.byte	0x51
	.uleb128 0x1
	.byte	0x3a
	.byte	0
	.byte	0
	.uleb128 0x29
	.long	0x2713
	.quad	.LBI262
	.value	.LVU630
	.quad	.LBB262
	.quad	.LBE262-.LBB262
	.value	0x142
	.byte	0x5
	.long	0xc7b
	.uleb128 0x4
	.long	0x272e
	.long	.LLST131
	.long	.LVUS131
	.uleb128 0x1a
	.long	0x2722
	.uleb128 0xa
	.quad	.LVL226
	.long	0x6e7
	.uleb128 0x1
	.uleb128 0x1
	.byte	0x54
	.uleb128 0x1
	.byte	0x32
	.uleb128 0x1
	.uleb128 0x1
	.byte	0x51
	.uleb128 0x9
	.byte	0x3
	.quad	.LC6
	.uleb128 0x1
	.uleb128 0x1
	.byte	0x52
	.uleb128 0x2
	.byte	0x73
	.sleb128 0
	.byte	0
	.byte	0
	.uleb128 0x3
	.quad	.LVL220
	.long	0xa50
	.long	0xc97
	.uleb128 0x1
	.uleb128 0x1
	.byte	0x55
	.uleb128 0x1
	.byte	0x3d
	.uleb128 0x1
	.uleb128 0x1
	.byte	0x54
	.uleb128 0x1
	.byte	0x31
	.byte	0
	.uleb128 0x3
	.quad	.LVL221
	.long	0xa2a
	.long	0xcb8
	.uleb128 0x1
	.uleb128 0x1
	.byte	0x54
	.uleb128 0x1
	.byte	0x30
	.uleb128 0x1
	.uleb128 0x1
	.byte	0x51
	.uleb128 0x1
	.byte	0x31
	.uleb128 0x1
	.uleb128 0x1
	.byte	0x52
	.uleb128 0x1
	.byte	0x30
	.byte	0
	.uleb128 0x3
	.quad	.LVL222
	.long	0xa14
	.long	0xcd0
	.uleb128 0x1
	.uleb128 0x1
	.byte	0x55
	.uleb128 0x2
	.byte	0x73
	.sleb128 0
	.byte	0
	.uleb128 0x3
	.quad	.LVL238
	.long	0xa02
	.long	0xcef
	.uleb128 0x1
	.uleb128 0x1
	.byte	0x55
	.uleb128 0x9
	.byte	0x3
	.quad	.LC5
	.byte	0
	.uleb128 0x13
	.quad	.LVL242
	.long	0x2771
	.byte	0
	.uleb128 0x8
	.long	0x6db
	.uleb128 0x48
	.long	.LASF202
	.byte	0x1
	.value	0x109
	.byte	0xe
	.long	0xaa
	.quad	.LFB84
	.quad	.LFE84-.LFB84
	.uleb128 0x1
	.byte	0x9c
	.long	0x1cde
	.uleb128 0x49
	.string	"arg"
	.byte	0x1
	.value	0x109
	.byte	0x22
	.long	0xaa
	.long	.LLST41
	.long	.LVUS41
	.uleb128 0x4a
	.string	"ctx"
	.byte	0x1
	.value	0x10a
	.byte	0x13
	.long	0xcfd
	.uleb128 0x28
	.string	"fd"
	.value	0x10b
	.byte	0xa
	.long	0x6c
	.long	.LLST42
	.long	.LVUS42
	.uleb128 0x22
	.long	.LASF107
	.value	0x10c
	.byte	0xe
	.long	0x5be
	.uleb128 0x3
	.byte	0x91
	.sleb128 -128
	.uleb128 0x2f
	.long	.LASF156
	.value	0x10d
	.long	0x6c
	.long	.LLST43
	.long	.LVUS43
	.uleb128 0x2f
	.long	.LASF157
	.value	0x10e
	.long	0xd8
	.long	.LLST44
	.long	.LVUS44
	.uleb128 0x4b
	.long	.LASF203
	.byte	0x1
	.value	0x12d
	.byte	0x1
	.quad	.L41
	.uleb128 0x34
	.long	.LLRL45
	.long	0x1b14
	.uleb128 0x22
	.long	.LASF158
	.value	0x111
	.byte	0x12
	.long	0xc7
	.uleb128 0x3
	.byte	0x91
	.sleb128 -166
	.uleb128 0x22
	.long	.LASF159
	.value	0x112
	.byte	0x12
	.long	0x3b8
	.uleb128 0x3
	.byte	0x91
	.sleb128 -160
	.uleb128 0x22
	.long	.LASF160
	.value	0x113
	.byte	0x12
	.long	0xe4
	.uleb128 0x3
	.byte	0x91
	.sleb128 -164
	.uleb128 0x1f
	.long	0x2713
	.quad	.LBI171
	.value	.LVU200
	.long	.LLRL46
	.value	0x128
	.byte	0x11
	.long	0xe27
	.uleb128 0x4
	.long	0x272e
	.long	.LLST47
	.long	.LVUS47
	.uleb128 0x1a
	.long	0x2722
	.uleb128 0xa
	.quad	.LVL52
	.long	0x6e7
	.uleb128 0x1
	.uleb128 0x1
	.byte	0x54
	.uleb128 0x1
	.byte	0x32
	.uleb128 0x1
	.uleb128 0x1
	.byte	0x51
	.uleb128 0x9
	.byte	0x3
	.quad	.LC3
	.byte	0
	.byte	0
	.uleb128 0x1f
	.long	0x1cde
	.quad	.LBI175
	.value	.LVU222
	.long	.LLRL48
	.value	0x123
	.byte	0x25
	.long	0x1121
	.uleb128 0x4
	.long	0x1cff
	.long	.LLST49
	.long	.LVUS49
	.uleb128 0x4
	.long	0x1cf3
	.long	.LLST50
	.long	.LVUS50
	.uleb128 0x1a
	.long	0x1ce8
	.uleb128 0x23
	.long	.LLRL48
	.uleb128 0xe
	.long	0x1d0b
	.uleb128 0x3
	.byte	0x91
	.sleb128 -152
	.uleb128 0x7
	.long	0x1d14
	.long	.LLST51
	.long	.LVUS51
	.uleb128 0xe
	.long	0x1d1f
	.uleb128 0x3
	.byte	0x91
	.sleb128 -112
	.uleb128 0x7
	.long	0x1d2a
	.long	.LLST52
	.long	.LVUS52
	.uleb128 0x7
	.long	0x1d33
	.long	.LLST53
	.long	.LVUS53
	.uleb128 0x7
	.long	0x1d3e
	.long	.LLST54
	.long	.LVUS54
	.uleb128 0xe
	.long	0x1d49
	.uleb128 0x3
	.byte	0x91
	.sleb128 -144
	.uleb128 0x7
	.long	0x1d52
	.long	.LLST55
	.long	.LVUS55
	.uleb128 0x10
	.long	0x2696
	.quad	.LBI177
	.value	.LVU235
	.long	.LLRL56
	.byte	0xf0
	.byte	0x17
	.long	0xeff
	.uleb128 0x4
	.long	0x26a7
	.long	.LLST57
	.long	.LVUS57
	.uleb128 0x36
	.long	0x26b3
	.long	.LLRL56
	.uleb128 0x7
	.long	0x26b4
	.long	.LLST58
	.long	.LVUS58
	.byte	0
	.byte	0
	.uleb128 0x1b
	.long	0x1d6d
	.quad	.LBB180
	.quad	.LBE180-.LBB180
	.long	0xf5f
	.uleb128 0xe
	.long	0x1d6e
	.uleb128 0x3
	.byte	0x91
	.sleb128 -144
	.uleb128 0x3
	.quad	.LVL65
	.long	0x8c1
	.long	0xf39
	.uleb128 0x1
	.uleb128 0x1
	.byte	0x55
	.uleb128 0x2
	.byte	0x7e
	.sleb128 0
	.byte	0
	.uleb128 0xa
	.quad	.LVL66
	.long	0x8f4
	.uleb128 0x1
	.uleb128 0x1
	.byte	0x55
	.uleb128 0x2
	.byte	0x7c
	.sleb128 0
	.uleb128 0x1
	.uleb128 0x1
	.byte	0x54
	.uleb128 0x1
	.byte	0x3a
	.uleb128 0x1
	.uleb128 0x1
	.byte	0x51
	.uleb128 0x3
	.byte	0x91
	.sleb128 -144
	.uleb128 0x1
	.uleb128 0x1
	.byte	0x52
	.uleb128 0x1
	.byte	0x31
	.byte	0
	.byte	0
	.uleb128 0x3
	.quad	.LVL61
	.long	0x886
	.long	0xf84
	.uleb128 0x1
	.uleb128 0x1
	.byte	0x55
	.uleb128 0x3
	.byte	0x91
	.sleb128 -152
	.uleb128 0x1
	.uleb128 0x1
	.byte	0x51
	.uleb128 0x2
	.byte	0x76
	.sleb128 0
	.uleb128 0x1
	.uleb128 0x1
	.byte	0x52
	.uleb128 0x2
	.byte	0x8
	.byte	0x20
	.byte	0
	.uleb128 0x3
	.quad	.LVL62
	.long	0x8dd
	.long	0xf9c
	.uleb128 0x1
	.uleb128 0x1
	.byte	0x55
	.uleb128 0x2
	.byte	0x7e
	.sleb128 0
	.byte	0
	.uleb128 0x3
	.quad	.LVL70
	.long	0x7a4
	.long	0xfb6
	.uleb128 0x1
	.uleb128 0x1
	.byte	0x55
	.uleb128 0x4
	.byte	0x91
	.sleb128 -192
	.byte	0x6
	.byte	0
	.uleb128 0x13
	.quad	.LVL73
	.long	0x9cb
	.uleb128 0x3
	.quad	.LVL75
	.long	0x72c
	.long	0xfe0
	.uleb128 0x1
	.uleb128 0x1
	.byte	0x55
	.uleb128 0x2
	.byte	0x73
	.sleb128 0
	.uleb128 0x1
	.uleb128 0x1
	.byte	0x54
	.uleb128 0x1
	.byte	0x31
	.byte	0
	.uleb128 0x3
	.quad	.LVL76
	.long	0x773
	.long	0x1004
	.uleb128 0x1
	.uleb128 0x1
	.byte	0x55
	.uleb128 0x2
	.byte	0x73
	.sleb128 0
	.uleb128 0x1
	.uleb128 0x1
	.byte	0x54
	.uleb128 0x2
	.byte	0x7f
	.sleb128 0
	.uleb128 0x1
	.uleb128 0x1
	.byte	0x51
	.uleb128 0x2
	.byte	0x8
	.byte	0x20
	.byte	0
	.uleb128 0x3
	.quad	.LVL77
	.long	0x7a4
	.long	0x101e
	.uleb128 0x1
	.uleb128 0x1
	.byte	0x55
	.uleb128 0x4
	.byte	0x91
	.sleb128 -192
	.byte	0x6
	.byte	0
	.uleb128 0x3
	.quad	.LVL78
	.long	0x75d
	.long	0x1043
	.uleb128 0x1
	.uleb128 0x1
	.byte	0x55
	.uleb128 0x2
	.byte	0x73
	.sleb128 0
	.uleb128 0x1
	.uleb128 0x1
	.byte	0x54
	.uleb128 0x9
	.byte	0x91
	.sleb128 -184
	.byte	0x94
	.byte	0x2
	.byte	0xa
	.value	0xffff
	.byte	0x1a
	.byte	0
	.uleb128 0x3
	.quad	.LVL79
	.long	0x773
	.long	0x1070
	.uleb128 0x1
	.uleb128 0x1
	.byte	0x55
	.uleb128 0x2
	.byte	0x73
	.sleb128 0
	.uleb128 0x1
	.uleb128 0x1
	.byte	0x54
	.uleb128 0x4
	.byte	0x91
	.sleb128 -192
	.byte	0x6
	.uleb128 0x1
	.uleb128 0x1
	.byte	0x51
	.uleb128 0x9
	.byte	0x91
	.sleb128 -184
	.byte	0x94
	.byte	0x2
	.byte	0xa
	.value	0xffff
	.byte	0x1a
	.byte	0
	.uleb128 0x3
	.quad	.LVL80
	.long	0x747
	.long	0x1088
	.uleb128 0x1
	.uleb128 0x1
	.byte	0x55
	.uleb128 0x2
	.byte	0x73
	.sleb128 0
	.byte	0
	.uleb128 0x3
	.quad	.LVL81
	.long	0x78e
	.long	0x10a0
	.uleb128 0x1
	.uleb128 0x1
	.byte	0x55
	.uleb128 0x2
	.byte	0x73
	.sleb128 0
	.byte	0
	.uleb128 0x3
	.quad	.LVL82
	.long	0x78e
	.long	0x10b8
	.uleb128 0x1
	.uleb128 0x1
	.byte	0x55
	.uleb128 0x2
	.byte	0x73
	.sleb128 0
	.byte	0
	.uleb128 0x3
	.quad	.LVL83
	.long	0x8c1
	.long	0x10d0
	.uleb128 0x1
	.uleb128 0x1
	.byte	0x55
	.uleb128 0x2
	.byte	0x7e
	.sleb128 0
	.byte	0
	.uleb128 0x3
	.quad	.LVL84
	.long	0x8f4
	.long	0x10f3
	.uleb128 0x1
	.uleb128 0x1
	.byte	0x55
	.uleb128 0x2
	.byte	0x7c
	.sleb128 0
	.uleb128 0x1
	.uleb128 0x1
	.byte	0x54
	.uleb128 0x1
	.byte	0x3a
	.uleb128 0x1
	.uleb128 0x1
	.byte	0x51
	.uleb128 0x2
	.byte	0x76
	.sleb128 0
	.byte	0
	.uleb128 0x3
	.quad	.LVL85
	.long	0x955
	.long	0x110b
	.uleb128 0x1
	.uleb128 0x1
	.byte	0x55
	.uleb128 0x2
	.byte	0x76
	.sleb128 0
	.byte	0
	.uleb128 0xa
	.quad	.LVL200
	.long	0x773
	.uleb128 0x1
	.uleb128 0x1
	.byte	0x55
	.uleb128 0x2
	.byte	0x73
	.sleb128 0
	.byte	0
	.byte	0
	.byte	0
	.uleb128 0x1f
	.long	0x1d7b
	.quad	.LBI183
	.value	.LVU285
	.long	.LLRL59
	.value	0x122
	.byte	0x25
	.long	0x1452
	.uleb128 0x4
	.long	0x1d9c
	.long	.LLST60
	.long	.LVUS60
	.uleb128 0x4
	.long	0x1d90
	.long	.LLST61
	.long	.LVUS61
	.uleb128 0x1a
	.long	0x1d85
	.uleb128 0x23
	.long	.LLRL59
	.uleb128 0xe
	.long	0x1da8
	.uleb128 0x3
	.byte	0x91
	.sleb128 -152
	.uleb128 0x7
	.long	0x1db1
	.long	.LLST62
	.long	.LVUS62
	.uleb128 0xe
	.long	0x1dbc
	.uleb128 0x3
	.byte	0x91
	.sleb128 -112
	.uleb128 0x7
	.long	0x1dc7
	.long	.LLST63
	.long	.LVUS63
	.uleb128 0x7
	.long	0x1dd0
	.long	.LLST64
	.long	.LVUS64
	.uleb128 0x7
	.long	0x1dda
	.long	.LLST65
	.long	.LVUS65
	.uleb128 0x7
	.long	0x1de5
	.long	.LLST66
	.long	.LVUS66
	.uleb128 0xe
	.long	0x1df0
	.uleb128 0x3
	.byte	0x91
	.sleb128 -144
	.uleb128 0x10
	.long	0x2696
	.quad	.LBI185
	.value	.LVU298
	.long	.LLRL67
	.byte	0xd8
	.byte	0x17
	.long	0x11f9
	.uleb128 0x4
	.long	0x26a7
	.long	.LLST68
	.long	.LVUS68
	.uleb128 0x36
	.long	0x26b3
	.long	.LLRL67
	.uleb128 0x7
	.long	0x26b4
	.long	.LLST69
	.long	.LVUS69
	.byte	0
	.byte	0
	.uleb128 0x2a
	.long	0x1e1e
	.long	.LLRL70
	.long	0x1214
	.uleb128 0x7
	.long	0x1e23
	.long	.LLST71
	.long	.LVUS71
	.byte	0
	.uleb128 0x1b
	.long	0x1e2e
	.quad	.LBB191
	.quad	.LBE191-.LBB191
	.long	0x128a
	.uleb128 0x7
	.long	0x1e2f
	.long	.LLST72
	.long	.LVUS72
	.uleb128 0x3
	.quad	.LVL112
	.long	0x773
	.long	0x125d
	.uleb128 0x1
	.uleb128 0x1
	.byte	0x55
	.uleb128 0x2
	.byte	0x73
	.sleb128 0
	.uleb128 0x1
	.uleb128 0x1
	.byte	0x54
	.uleb128 0x2
	.byte	0x7f
	.sleb128 0
	.uleb128 0x1
	.uleb128 0x1
	.byte	0x51
	.uleb128 0x1
	.byte	0x40
	.byte	0
	.uleb128 0x3
	.quad	.LVL113
	.long	0x78e
	.long	0x1275
	.uleb128 0x1
	.uleb128 0x1
	.byte	0x55
	.uleb128 0x2
	.byte	0x73
	.sleb128 0
	.byte	0
	.uleb128 0xa
	.quad	.LVL114
	.long	0x75d
	.uleb128 0x1
	.uleb128 0x1
	.byte	0x55
	.uleb128 0x2
	.byte	0x73
	.sleb128 0
	.byte	0
	.byte	0
	.uleb128 0x1b
	.long	0x1df9
	.quad	.LBB192
	.quad	.LBE192-.LBB192
	.long	0x1305
	.uleb128 0x7
	.long	0x1dfe
	.long	.LLST73
	.long	.LVUS73
	.uleb128 0xe
	.long	0x1e09
	.uleb128 0x3
	.byte	0x91
	.sleb128 -132
	.uleb128 0xe
	.long	0x1e14
	.uleb128 0x3
	.byte	0x91
	.sleb128 -144
	.uleb128 0x3
	.quad	.LVL202
	.long	0x78e
	.long	0x12e0
	.uleb128 0x1
	.uleb128 0x1
	.byte	0x55
	.uleb128 0x3
	.byte	0x91
	.sleb128 -144
	.uleb128 0x1
	.uleb128 0x1
	.byte	0x54
	.uleb128 0x1
	.byte	0x30
	.byte	0
	.uleb128 0xa
	.quad	.LVL203
	.long	0x8f4
	.uleb128 0x1
	.uleb128 0x1
	.byte	0x55
	.uleb128 0x2
	.byte	0x7c
	.sleb128 0
	.uleb128 0x1
	.uleb128 0x1
	.byte	0x54
	.uleb128 0x1
	.byte	0x38
	.uleb128 0x1
	.uleb128 0x1
	.byte	0x51
	.uleb128 0x2
	.byte	0x73
	.sleb128 0
	.uleb128 0x1
	.uleb128 0x1
	.byte	0x52
	.uleb128 0x1
	.byte	0x34
	.byte	0
	.byte	0
	.uleb128 0x3
	.quad	.LVL89
	.long	0x886
	.long	0x132a
	.uleb128 0x1
	.uleb128 0x1
	.byte	0x55
	.uleb128 0x3
	.byte	0x91
	.sleb128 -152
	.uleb128 0x1
	.uleb128 0x1
	.byte	0x51
	.uleb128 0x2
	.byte	0x76
	.sleb128 0
	.uleb128 0x1
	.uleb128 0x1
	.byte	0x52
	.uleb128 0x2
	.byte	0x8
	.byte	0x20
	.byte	0
	.uleb128 0x3
	.quad	.LVL90
	.long	0x8dd
	.long	0x1342
	.uleb128 0x1
	.uleb128 0x1
	.byte	0x55
	.uleb128 0x2
	.byte	0x7e
	.sleb128 0
	.byte	0
	.uleb128 0x3
	.quad	.LVL93
	.long	0x9cb
	.long	0x1359
	.uleb128 0x1
	.uleb128 0x1
	.byte	0x55
	.uleb128 0x1
	.byte	0x34
	.byte	0
	.uleb128 0x3
	.quad	.LVL95
	.long	0x78e
	.long	0x1377
	.uleb128 0x1
	.uleb128 0x1
	.byte	0x55
	.uleb128 0x3
	.byte	0x91
	.sleb128 -144
	.uleb128 0x1
	.uleb128 0x1
	.byte	0x54
	.uleb128 0x1
	.byte	0x30
	.byte	0
	.uleb128 0x3
	.quad	.LVL96
	.long	0x8c1
	.long	0x138f
	.uleb128 0x1
	.uleb128 0x1
	.byte	0x55
	.uleb128 0x2
	.byte	0x7e
	.sleb128 0
	.byte	0
	.uleb128 0x3
	.quad	.LVL97
	.long	0x8f4
	.long	0x13b2
	.uleb128 0x1
	.uleb128 0x1
	.byte	0x55
	.uleb128 0x2
	.byte	0x7c
	.sleb128 0
	.uleb128 0x1
	.uleb128 0x1
	.byte	0x54
	.uleb128 0x1
	.byte	0x38
	.uleb128 0x1
	.uleb128 0x1
	.byte	0x51
	.uleb128 0x2
	.byte	0x76
	.sleb128 0
	.byte	0
	.uleb128 0x3
	.quad	.LVL98
	.long	0x955
	.long	0x13ca
	.uleb128 0x1
	.uleb128 0x1
	.byte	0x55
	.uleb128 0x2
	.byte	0x76
	.sleb128 0
	.byte	0
	.uleb128 0x3
	.quad	.LVL108
	.long	0x9cb
	.long	0x13ff
	.uleb128 0x1
	.uleb128 0x1
	.byte	0x55
	.uleb128 0x1f
	.byte	0x91
	.sleb128 -192
	.byte	0x94
	.byte	0x4
	.byte	0xc
	.long	0xffffffff
	.byte	0x1a
	.byte	0x35
	.byte	0x1e
	.byte	0x31
	.byte	0x24
	.byte	0x91
	.sleb128 -192
	.byte	0x94
	.byte	0x4
	.byte	0xc
	.long	0xffffffff
	.byte	0x1a
	.byte	0x22
	.byte	0x31
	.byte	0x24
	.byte	0x23
	.uleb128 0x4
	.byte	0
	.uleb128 0x3
	.quad	.LVL110
	.long	0x78e
	.long	0x1420
	.uleb128 0x1
	.uleb128 0x1
	.byte	0x55
	.uleb128 0x2
	.byte	0x73
	.sleb128 0
	.uleb128 0x1
	.uleb128 0x1
	.byte	0x54
	.uleb128 0x5
	.byte	0x91
	.sleb128 -192
	.byte	0x94
	.byte	0x4
	.byte	0
	.uleb128 0x3
	.quad	.LVL208
	.long	0x9cb
	.long	0x1437
	.uleb128 0x1
	.uleb128 0x1
	.byte	0x55
	.uleb128 0x1
	.byte	0x34
	.byte	0
	.uleb128 0xa
	.quad	.LVL210
	.long	0x78e
	.uleb128 0x1
	.uleb128 0x1
	.byte	0x55
	.uleb128 0x2
	.byte	0x73
	.sleb128 0
	.uleb128 0x1
	.uleb128 0x1
	.byte	0x54
	.uleb128 0x1
	.byte	0x30
	.byte	0
	.byte	0
	.byte	0
	.uleb128 0x1f
	.long	0x1e4b
	.quad	.LBI195
	.value	.LVU360
	.long	.LLRL74
	.value	0x121
	.byte	0x25
	.long	0x16ca
	.uleb128 0x1a
	.long	0x1e55
	.uleb128 0x23
	.long	.LLRL74
	.uleb128 0x7
	.long	0x1e60
	.long	.LLST75
	.long	.LVUS75
	.uleb128 0x7
	.long	0x1e6b
	.long	.LLST76
	.long	.LVUS76
	.uleb128 0x7
	.long	0x1e76
	.long	.LLST77
	.long	.LVUS77
	.uleb128 0xe
	.long	0x1e81
	.uleb128 0x3
	.byte	0x91
	.sleb128 -144
	.uleb128 0x1b
	.long	0x1e8a
	.quad	.LBB197
	.quad	.LBE197-.LBB197
	.long	0x14e1
	.uleb128 0x7
	.long	0x1e8f
	.long	.LLST78
	.long	.LVUS78
	.uleb128 0xa
	.quad	.LVL121
	.long	0x7a4
	.uleb128 0x1
	.uleb128 0x1
	.byte	0x55
	.uleb128 0x2
	.byte	0x73
	.sleb128 32
	.byte	0
	.byte	0
	.uleb128 0x1b
	.long	0x1e99
	.quad	.LBB198
	.quad	.LBE198-.LBB198
	.long	0x162b
	.uleb128 0x7
	.long	0x1e9a
	.long	.LLST79
	.long	.LVUS79
	.uleb128 0x24
	.long	0x1ea3
	.quad	.LBB199
	.quad	.LBE199-.LBB199
	.uleb128 0x7
	.long	0x1ea4
	.long	.LLST80
	.long	.LVUS80
	.uleb128 0x7
	.long	0x1eae
	.long	.LLST81
	.long	.LVUS81
	.uleb128 0x2a
	.long	0x1eb8
	.long	.LLRL82
	.long	0x1551
	.uleb128 0x7
	.long	0x1eb9
	.long	.LLST83
	.long	.LVUS83
	.byte	0
	.uleb128 0x3
	.quad	.LVL130
	.long	0x773
	.long	0x1575
	.uleb128 0x1
	.uleb128 0x1
	.byte	0x55
	.uleb128 0x2
	.byte	0x73
	.sleb128 0
	.uleb128 0x1
	.uleb128 0x1
	.byte	0x54
	.uleb128 0x2
	.byte	0x76
	.sleb128 0
	.uleb128 0x1
	.uleb128 0x1
	.byte	0x51
	.uleb128 0x2
	.byte	0x8
	.byte	0x20
	.byte	0
	.uleb128 0x3
	.quad	.LVL131
	.long	0x7a4
	.long	0x158d
	.uleb128 0x1
	.uleb128 0x1
	.byte	0x55
	.uleb128 0x2
	.byte	0x7c
	.sleb128 0
	.byte	0
	.uleb128 0x3
	.quad	.LVL133
	.long	0x75d
	.long	0x15a5
	.uleb128 0x1
	.uleb128 0x1
	.byte	0x55
	.uleb128 0x2
	.byte	0x73
	.sleb128 0
	.byte	0
	.uleb128 0x3
	.quad	.LVL134
	.long	0x773
	.long	0x15cd
	.uleb128 0x1
	.uleb128 0x1
	.byte	0x55
	.uleb128 0x2
	.byte	0x73
	.sleb128 0
	.uleb128 0x1
	.uleb128 0x1
	.byte	0x54
	.uleb128 0x2
	.byte	0x7c
	.sleb128 0
	.uleb128 0x1
	.uleb128 0x1
	.byte	0x51
	.uleb128 0x6
	.byte	0x7e
	.sleb128 0
	.byte	0xa
	.value	0xffff
	.byte	0x1a
	.byte	0
	.uleb128 0x3
	.quad	.LVL135
	.long	0x747
	.long	0x15e5
	.uleb128 0x1
	.uleb128 0x1
	.byte	0x55
	.uleb128 0x2
	.byte	0x73
	.sleb128 0
	.byte	0
	.uleb128 0x3
	.quad	.LVL136
	.long	0x78e
	.long	0x15fd
	.uleb128 0x1
	.uleb128 0x1
	.byte	0x55
	.uleb128 0x2
	.byte	0x73
	.sleb128 0
	.byte	0
	.uleb128 0x3
	.quad	.LVL137
	.long	0x78e
	.long	0x1615
	.uleb128 0x1
	.uleb128 0x1
	.byte	0x55
	.uleb128 0x2
	.byte	0x73
	.sleb128 0
	.byte	0
	.uleb128 0xa
	.quad	.LVL143
	.long	0x78e
	.uleb128 0x1
	.uleb128 0x1
	.byte	0x55
	.uleb128 0x2
	.byte	0x73
	.sleb128 0
	.byte	0
	.byte	0
	.byte	0
	.uleb128 0x3
	.quad	.LVL117
	.long	0x8dd
	.long	0x1643
	.uleb128 0x1
	.uleb128 0x1
	.byte	0x55
	.uleb128 0x2
	.byte	0x7e
	.sleb128 0
	.byte	0
	.uleb128 0x3
	.quad	.LVL126
	.long	0x9cb
	.long	0x165b
	.uleb128 0x1
	.uleb128 0x1
	.byte	0x55
	.uleb128 0x2
	.byte	0x7f
	.sleb128 0
	.byte	0
	.uleb128 0x3
	.quad	.LVL128
	.long	0x78e
	.long	0x1679
	.uleb128 0x1
	.uleb128 0x1
	.byte	0x55
	.uleb128 0x2
	.byte	0x73
	.sleb128 0
	.uleb128 0x1
	.uleb128 0x1
	.byte	0x54
	.uleb128 0x2
	.byte	0x76
	.sleb128 0
	.byte	0
	.uleb128 0x3
	.quad	.LVL146
	.long	0x8c1
	.long	0x1691
	.uleb128 0x1
	.uleb128 0x1
	.byte	0x55
	.uleb128 0x2
	.byte	0x7e
	.sleb128 0
	.byte	0
	.uleb128 0x3
	.quad	.LVL147
	.long	0x8f4
	.long	0x16b4
	.uleb128 0x1
	.uleb128 0x1
	.byte	0x55
	.uleb128 0x2
	.byte	0x7c
	.sleb128 0
	.uleb128 0x1
	.uleb128 0x1
	.byte	0x54
	.uleb128 0x1
	.byte	0x36
	.uleb128 0x1
	.uleb128 0x1
	.byte	0x51
	.uleb128 0x2
	.byte	0x7f
	.sleb128 0
	.byte	0
	.uleb128 0xa
	.quad	.LVL148
	.long	0x955
	.uleb128 0x1
	.uleb128 0x1
	.byte	0x55
	.uleb128 0x2
	.byte	0x7f
	.sleb128 0
	.byte	0
	.byte	0
	.byte	0
	.uleb128 0x1f
	.long	0x251f
	.quad	.LBI204
	.value	.LVU438
	.long	.LLRL84
	.value	0x118
	.byte	0x11
	.long	0x1a07
	.uleb128 0x4
	.long	0x2564
	.long	.LLST85
	.long	.LVUS85
	.uleb128 0x4
	.long	0x2558
	.long	.LLST86
	.long	.LVUS86
	.uleb128 0x4
	.long	0x254c
	.long	.LLST87
	.long	.LVUS87
	.uleb128 0x4
	.long	0x2540
	.long	.LLST88
	.long	.LVUS88
	.uleb128 0x4
	.long	0x2534
	.long	.LLST89
	.long	.LVUS89
	.uleb128 0x1a
	.long	0x2529
	.uleb128 0x23
	.long	.LLRL84
	.uleb128 0xe
	.long	0x2570
	.uleb128 0x3
	.byte	0x91
	.sleb128 -144
	.uleb128 0x7
	.long	0x2579
	.long	.LLST90
	.long	.LVUS90
	.uleb128 0xe
	.long	0x2584
	.uleb128 0x3
	.byte	0x91
	.sleb128 -112
	.uleb128 0xe
	.long	0x258f
	.uleb128 0x3
	.byte	0x91
	.sleb128 -152
	.uleb128 0x7
	.long	0x259a
	.long	.LLST91
	.long	.LVUS91
	.uleb128 0x1b
	.long	0x25a5
	.quad	.LBB206
	.quad	.LBE206-.LBB206
	.long	0x178b
	.uleb128 0x7
	.long	0x25aa
	.long	.LLST92
	.long	.LVUS92
	.byte	0
	.uleb128 0x2a
	.long	0x25b5
	.long	.LLRL93
	.long	0x1800
	.uleb128 0x7
	.long	0x25b6
	.long	.LLST94
	.long	.LVUS94
	.uleb128 0x10
	.long	0x26bf
	.quad	.LBI208
	.value	.LVU582
	.long	.LLRL95
	.byte	0x78
	.byte	0x9
	.long	0x17e6
	.uleb128 0x4
	.long	0x26e6
	.long	.LLST96
	.long	.LVUS96
	.uleb128 0x4
	.long	0x26da
	.long	.LLST97
	.long	.LVUS97
	.uleb128 0x4
	.long	0x26ce
	.long	.LLST98
	.long	.LVUS98
	.byte	0
	.uleb128 0xa
	.quad	.LVL205
	.long	0x825
	.uleb128 0x1
	.uleb128 0x1
	.byte	0x55
	.uleb128 0x1
	.byte	0x31
	.uleb128 0x1
	.uleb128 0x1
	.byte	0x54
	.uleb128 0x2
	.byte	0x8
	.byte	0x20
	.byte	0
	.byte	0
	.uleb128 0x10
	.long	0x26bf
	.quad	.LBI214
	.value	.LVU472
	.long	.LLRL99
	.byte	0x7d
	.byte	0x5
	.long	0x1841
	.uleb128 0x4
	.long	0x26e6
	.long	.LLST100
	.long	.LVUS100
	.uleb128 0x4
	.long	0x26da
	.long	.LLST101
	.long	.LVUS101
	.uleb128 0x4
	.long	0x26ce
	.long	.LLST102
	.long	.LVUS102
	.byte	0
	.uleb128 0x10
	.long	0x25c2
	.quad	.LBI218
	.value	.LVU482
	.long	.LLRL103
	.byte	0x7f
	.byte	0x5
	.long	0x18a7
	.uleb128 0x4
	.long	0x25e3
	.long	.LLST104
	.long	.LVUS104
	.uleb128 0x4
	.long	0x25d7
	.long	.LLST105
	.long	.LVUS105
	.uleb128 0x4
	.long	0x25cc
	.long	.LLST106
	.long	.LVUS106
	.uleb128 0xa
	.quad	.LVL166
	.long	0x8f4
	.uleb128 0x1
	.uleb128 0x1
	.byte	0x55
	.uleb128 0x2
	.byte	0x7c
	.sleb128 0
	.uleb128 0x1
	.uleb128 0x1
	.byte	0x54
	.uleb128 0x1
	.byte	0x32
	.uleb128 0x1
	.uleb128 0x1
	.byte	0x51
	.uleb128 0x3
	.byte	0x91
	.sleb128 -165
	.uleb128 0x1
	.uleb128 0x1
	.byte	0x52
	.uleb128 0x1
	.byte	0x31
	.byte	0
	.byte	0
	.uleb128 0x10
	.long	0x2713
	.quad	.LBI224
	.value	.LVU488
	.long	.LLRL107
	.byte	0x80
	.byte	0x5
	.long	0x1901
	.uleb128 0x4
	.long	0x272e
	.long	.LLST108
	.long	.LVUS108
	.uleb128 0x4
	.long	0x2722
	.long	.LLST109
	.long	.LVUS109
	.uleb128 0xa
	.quad	.LVL169
	.long	0x6e7
	.uleb128 0x1
	.uleb128 0x1
	.byte	0x54
	.uleb128 0x1
	.byte	0x32
	.uleb128 0x1
	.uleb128 0x1
	.byte	0x51
	.uleb128 0x9
	.byte	0x3
	.quad	.LC2
	.uleb128 0x1
	.uleb128 0x1
	.byte	0x58
	.uleb128 0x2
	.byte	0x76
	.sleb128 0
	.byte	0
	.byte	0
	.uleb128 0x25
	.long	0x25c2
	.quad	.LBI228
	.value	.LVU505
	.quad	.LBB228
	.quad	.LBE228-.LBB228
	.byte	0x6e
	.byte	0x9
	.long	0x1973
	.uleb128 0x4
	.long	0x25e3
	.long	.LLST110
	.long	.LVUS110
	.uleb128 0x4
	.long	0x25d7
	.long	.LLST111
	.long	.LVUS111
	.uleb128 0x4
	.long	0x25cc
	.long	.LLST112
	.long	.LVUS112
	.uleb128 0xa
	.quad	.LVL176
	.long	0x8f4
	.uleb128 0x1
	.uleb128 0x1
	.byte	0x55
	.uleb128 0x2
	.byte	0x7c
	.sleb128 0
	.uleb128 0x1
	.uleb128 0x1
	.byte	0x54
	.uleb128 0x1
	.byte	0x32
	.uleb128 0x1
	.uleb128 0x1
	.byte	0x51
	.uleb128 0x3
	.byte	0x91
	.sleb128 -165
	.uleb128 0x1
	.uleb128 0x1
	.byte	0x52
	.uleb128 0x1
	.byte	0x31
	.byte	0
	.byte	0
	.uleb128 0x3
	.quad	.LVL154
	.long	0x886
	.long	0x199c
	.uleb128 0x1
	.uleb128 0x1
	.byte	0x55
	.uleb128 0x2
	.byte	0x7f
	.sleb128 0
	.uleb128 0x1
	.uleb128 0x1
	.byte	0x54
	.uleb128 0x2
	.byte	0x7e
	.sleb128 0
	.uleb128 0x1
	.uleb128 0x1
	.byte	0x51
	.uleb128 0x2
	.byte	0x76
	.sleb128 0
	.uleb128 0x1
	.uleb128 0x1
	.byte	0x52
	.uleb128 0x1
	.byte	0x40
	.byte	0
	.uleb128 0x3
	.quad	.LVL155
	.long	0x861
	.long	0x19c1
	.uleb128 0x1
	.uleb128 0x1
	.byte	0x55
	.uleb128 0x2
	.byte	0x7f
	.sleb128 0
	.uleb128 0x1
	.uleb128 0x1
	.byte	0x54
	.uleb128 0x2
	.byte	0x7e
	.sleb128 0
	.uleb128 0x1
	.uleb128 0x1
	.byte	0x51
	.uleb128 0x3
	.byte	0x91
	.sleb128 -152
	.byte	0
	.uleb128 0x3
	.quad	.LVL157
	.long	0x8dd
	.long	0x19d9
	.uleb128 0x1
	.uleb128 0x1
	.byte	0x55
	.uleb128 0x2
	.byte	0x7e
	.sleb128 0
	.byte	0
	.uleb128 0x3
	.quad	.LVL163
	.long	0x8c1
	.long	0x19f1
	.uleb128 0x1
	.uleb128 0x1
	.byte	0x55
	.uleb128 0x2
	.byte	0x7e
	.sleb128 0
	.byte	0
	.uleb128 0xa
	.quad	.LVL167
	.long	0x8ab
	.uleb128 0x1
	.uleb128 0x1
	.byte	0x55
	.uleb128 0x2
	.byte	0x73
	.sleb128 0
	.byte	0
	.byte	0
	.byte	0
	.uleb128 0x29
	.long	0x25c2
	.quad	.LBI238
	.value	.LVU498
	.quad	.LBB238
	.quad	.LBE238-.LBB238
	.value	0x11f
	.byte	0x15
	.long	0x1a7a
	.uleb128 0x4
	.long	0x25e3
	.long	.LLST113
	.long	.LVUS113
	.uleb128 0x4
	.long	0x25d7
	.long	.LLST114
	.long	.LVUS114
	.uleb128 0x4
	.long	0x25cc
	.long	.LLST115
	.long	.LVUS115
	.uleb128 0xa
	.quad	.LVL173
	.long	0x8f4
	.uleb128 0x1
	.uleb128 0x1
	.byte	0x55
	.uleb128 0x2
	.byte	0x7c
	.sleb128 0
	.uleb128 0x1
	.uleb128 0x1
	.byte	0x54
	.uleb128 0x1
	.byte	0x34
	.uleb128 0x1
	.uleb128 0x1
	.byte	0x51
	.uleb128 0x3
	.byte	0x91
	.sleb128 -144
	.uleb128 0x1
	.uleb128 0x1
	.byte	0x52
	.uleb128 0x1
	.byte	0x31
	.byte	0
	.byte	0
	.uleb128 0x3
	.quad	.LVL50
	.long	0x919
	.long	0x1aaa
	.uleb128 0x1
	.uleb128 0x1
	.byte	0x55
	.uleb128 0x2
	.byte	0x7c
	.sleb128 0
	.uleb128 0x1
	.uleb128 0x1
	.byte	0x54
	.uleb128 0x4
	.byte	0x91
	.sleb128 -232
	.byte	0x6
	.uleb128 0x1
	.uleb128 0x1
	.byte	0x51
	.uleb128 0x4
	.byte	0x91
	.sleb128 -216
	.byte	0x6
	.uleb128 0x1
	.uleb128 0x1
	.byte	0x52
	.uleb128 0x4
	.byte	0x91
	.sleb128 -224
	.byte	0x6
	.byte	0
	.uleb128 0x13
	.quad	.LVL53
	.long	0x955
	.uleb128 0x3
	.quad	.LVL54
	.long	0x8f4
	.long	0x1ade
	.uleb128 0x1
	.uleb128 0x1
	.byte	0x55
	.uleb128 0x2
	.byte	0x7c
	.sleb128 0
	.uleb128 0x1
	.uleb128 0x1
	.byte	0x54
	.uleb128 0x1
	.byte	0x3d
	.uleb128 0x1
	.uleb128 0x1
	.byte	0x51
	.uleb128 0x1
	.byte	0x30
	.uleb128 0x1
	.uleb128 0x1
	.byte	0x52
	.uleb128 0x1
	.byte	0x30
	.byte	0
	.uleb128 0x13
	.quad	.LVL55
	.long	0x955
	.uleb128 0xa
	.quad	.LVL149
	.long	0x1ec6
	.uleb128 0x1
	.uleb128 0x1
	.byte	0x55
	.uleb128 0x2
	.byte	0x7c
	.sleb128 0
	.uleb128 0x1
	.uleb128 0x1
	.byte	0x52
	.uleb128 0x3
	.byte	0x91
	.sleb128 -128
	.uleb128 0x1
	.uleb128 0x1
	.byte	0x59
	.uleb128 0x9
	.byte	0x91
	.sleb128 -194
	.byte	0x94
	.byte	0x2
	.byte	0xa
	.value	0xffff
	.byte	0x1a
	.byte	0
	.byte	0
	.uleb128 0x29
	.long	0x25f0
	.quad	.LBI249
	.value	.LVU512
	.quad	.LBB249
	.quad	.LBE249-.LBB249
	.value	0x130
	.byte	0x9
	.long	0x1bff
	.uleb128 0x4
	.long	0x25fa
	.long	.LLST116
	.long	.LVUS116
	.uleb128 0x7
	.long	0x2606
	.long	.LLST117
	.long	.LVUS117
	.uleb128 0x1b
	.long	0x2610
	.quad	.LBB251
	.quad	.LBE251-.LBB251
	.long	0x1bce
	.uleb128 0x7
	.long	0x2615
	.long	.LLST118
	.long	.LVUS118
	.uleb128 0x24
	.long	0x261e
	.quad	.LBB252
	.quad	.LBE252-.LBB252
	.uleb128 0x7
	.long	0x261f
	.long	.LLST119
	.long	.LVUS119
	.uleb128 0x24
	.long	0x2629
	.quad	.LBB253
	.quad	.LBE253-.LBB253
	.uleb128 0x7
	.long	0x262a
	.long	.LLST120
	.long	.LVUS120
	.uleb128 0x13
	.quad	.LVL184
	.long	0x955
	.byte	0
	.byte	0
	.byte	0
	.uleb128 0x24
	.long	0x2638
	.quad	.LBB254
	.quad	.LBE254-.LBB254
	.uleb128 0x7
	.long	0x2639
	.long	.LLST121
	.long	.LVUS121
	.uleb128 0x13
	.quad	.LVL193
	.long	0x955
	.byte	0
	.byte	0
	.uleb128 0x1f
	.long	0x2713
	.quad	.LBI255
	.value	.LVU560
	.long	.LLRL122
	.value	0x132
	.byte	0x9
	.long	0x1c61
	.uleb128 0x4
	.long	0x272e
	.long	.LLST123
	.long	.LVUS123
	.uleb128 0x4
	.long	0x2722
	.long	.LLST124
	.long	.LVUS124
	.uleb128 0xa
	.quad	.LVL198
	.long	0x6e7
	.uleb128 0x1
	.uleb128 0x1
	.byte	0x54
	.uleb128 0x1
	.byte	0x32
	.uleb128 0x1
	.uleb128 0x1
	.byte	0x51
	.uleb128 0x9
	.byte	0x3
	.quad	.LC4
	.uleb128 0x1
	.uleb128 0x1
	.byte	0x58
	.uleb128 0x9
	.byte	0x91
	.sleb128 -194
	.byte	0x94
	.byte	0x2
	.byte	0xa
	.value	0xffff
	.byte	0x1a
	.byte	0
	.byte	0
	.uleb128 0x3
	.quad	.LVL56
	.long	0x967
	.long	0x1c79
	.uleb128 0x1
	.uleb128 0x1
	.byte	0x55
	.uleb128 0x2
	.byte	0x7c
	.sleb128 0
	.byte	0
	.uleb128 0x3
	.quad	.LVL57
	.long	0x955
	.long	0x1c93
	.uleb128 0x1
	.uleb128 0x1
	.byte	0x55
	.uleb128 0x4
	.byte	0x91
	.sleb128 -208
	.byte	0x6
	.byte	0
	.uleb128 0x3
	.quad	.LVL178
	.long	0x8dd
	.long	0x1cab
	.uleb128 0x1
	.uleb128 0x1
	.byte	0x55
	.uleb128 0x2
	.byte	0x73
	.sleb128 0
	.byte	0
	.uleb128 0x3
	.quad	.LVL195
	.long	0x8c1
	.long	0x1cc3
	.uleb128 0x1
	.uleb128 0x1
	.byte	0x55
	.uleb128 0x2
	.byte	0x73
	.sleb128 0
	.byte	0
	.uleb128 0x13
	.quad	.LVL196
	.long	0x8ab
	.uleb128 0x13
	.quad	.LVL212
	.long	0x2771
	.byte	0
	.uleb128 0x1c
	.long	.LASF163
	.byte	0xe8
	.long	0x1d7b
	.uleb128 0x11
	.string	"fd"
	.byte	0x1
	.byte	0xe8
	.byte	0x26
	.long	0x6c
	.uleb128 0xc
	.long	.LASF159
	.byte	0x1
	.byte	0xe8
	.byte	0x39
	.long	0x7d1
	.uleb128 0xc
	.long	.LASF160
	.byte	0x1
	.byte	0xe8
	.byte	0x4b
	.long	0xe4
	.uleb128 0x6
	.string	"p"
	.byte	0xe9
	.byte	0x14
	.long	0x7d1
	.uleb128 0x6
	.string	"end"
	.byte	0xe9
	.byte	0x22
	.long	0x7d1
	.uleb128 0x17
	.long	.LASF161
	.byte	0xea
	.byte	0xd
	.long	0x398
	.uleb128 0x6
	.string	"f"
	.byte	0xf0
	.byte	0x13
	.long	0x696
	.uleb128 0x6
	.string	"cap"
	.byte	0xf7
	.byte	0xc
	.long	0xfc
	.uleb128 0x6
	.string	"buf"
	.byte	0xf9
	.byte	0xe
	.long	0x3b8
	.uleb128 0x6
	.string	"w"
	.byte	0xf9
	.byte	0x22
	.long	0x3b8
	.uleb128 0x6
	.string	"nl"
	.byte	0xfc
	.byte	0xe
	.long	0xd8
	.uleb128 0x20
	.long	0x1d6d
	.uleb128 0x17
	.long	.LASF162
	.byte	0xec
	.byte	0x11
	.long	0xc7
	.byte	0
	.uleb128 0x12
	.uleb128 0x17
	.long	.LASF162
	.byte	0xf3
	.byte	0x11
	.long	0xc7
	.byte	0
	.byte	0
	.uleb128 0x1c
	.long	.LASF164
	.byte	0xcf
	.long	0x1e3b
	.uleb128 0x11
	.string	"fd"
	.byte	0x1
	.byte	0xcf
	.byte	0x22
	.long	0x6c
	.uleb128 0xc
	.long	.LASF159
	.byte	0x1
	.byte	0xcf
	.byte	0x35
	.long	0x7d1
	.uleb128 0xc
	.long	.LASF160
	.byte	0x1
	.byte	0xcf
	.byte	0x47
	.long	0xe4
	.uleb128 0x6
	.string	"p"
	.byte	0xd0
	.byte	0x14
	.long	0x7d1
	.uleb128 0x6
	.string	"end"
	.byte	0xd0
	.byte	0x22
	.long	0x7d1
	.uleb128 0x17
	.long	.LASF161
	.byte	0xd1
	.byte	0xd
	.long	0x398
	.uleb128 0x6
	.string	"f"
	.byte	0xd8
	.byte	0x13
	.long	0x696
	.uleb128 0x6
	.string	"pc"
	.byte	0xd9
	.byte	0xe
	.long	0xe4
	.uleb128 0x6
	.string	"cap"
	.byte	0xdb
	.byte	0xc
	.long	0xfc
	.uleb128 0x6
	.string	"buf"
	.byte	0xdc
	.byte	0xe
	.long	0x3b8
	.uleb128 0x6
	.string	"w"
	.byte	0xdc
	.byte	0x22
	.long	0x3b8
	.uleb128 0x20
	.long	0x1e1e
	.uleb128 0x17
	.long	.LASF165
	.byte	0xd3
	.byte	0x12
	.long	0xe4
	.uleb128 0x6
	.string	"tmp"
	.byte	0xd4
	.byte	0x12
	.long	0x1e3b
	.uleb128 0x6
	.string	"w"
	.byte	0xd4
	.byte	0x23
	.long	0x3b8
	.byte	0
	.uleb128 0x20
	.long	0x1e2e
	.uleb128 0x6
	.string	"pp"
	.byte	0xda
	.byte	0x1f
	.long	0x656
	.byte	0
	.uleb128 0x12
	.uleb128 0x6
	.string	"pp"
	.byte	0xde
	.byte	0x1f
	.long	0x656
	.byte	0
	.byte	0
	.uleb128 0x14
	.long	0xc7
	.long	0x1e4b
	.uleb128 0x15
	.long	0x3f
	.byte	0x3
	.byte	0
	.uleb128 0x1c
	.long	.LASF166
	.byte	0xb4
	.long	0x1ec6
	.uleb128 0x11
	.string	"fd"
	.byte	0x1
	.byte	0xb4
	.byte	0x23
	.long	0x6c
	.uleb128 0x17
	.long	.LASF167
	.byte	0xb6
	.byte	0xe
	.long	0xe4
	.uleb128 0x6
	.string	"cap"
	.byte	0xb7
	.byte	0xe
	.long	0xfc
	.uleb128 0x6
	.string	"buf"
	.byte	0xbc
	.byte	0xe
	.long	0x3b8
	.uleb128 0x6
	.string	"w"
	.byte	0xbc
	.byte	0x22
	.long	0x3b8
	.uleb128 0x20
	.long	0x1e99
	.uleb128 0x6
	.string	"f"
	.byte	0xb8
	.byte	0x18
	.long	0x696
	.byte	0
	.uleb128 0x12
	.uleb128 0x6
	.string	"f"
	.byte	0xbe
	.byte	0x18
	.long	0x696
	.uleb128 0x12
	.uleb128 0x6
	.string	"nl"
	.byte	0xc0
	.byte	0x12
	.long	0xd8
	.uleb128 0x6
	.string	"pc"
	.byte	0xc6
	.byte	0x12
	.long	0xe4
	.uleb128 0x12
	.uleb128 0x6
	.string	"p"
	.byte	0xc7
	.byte	0x1c
	.long	0x656
	.byte	0
	.byte	0
	.byte	0
	.byte	0
	.uleb128 0x4c
	.long	.LASF204
	.byte	0x1
	.byte	0x83
	.byte	0xd
	.quad	.LFB80
	.quad	.LFE80-.LFB80
	.uleb128 0x1
	.byte	0x9c
	.long	0x250f
	.uleb128 0x4d
	.string	"fd"
	.byte	0x1
	.byte	0x83
	.byte	0x21
	.long	0x6c
	.long	.LLST0
	.long	.LVUS0
	.uleb128 0x26
	.long	.LASF159
	.byte	0x83
	.byte	0x34
	.long	0x7d1
	.long	.LLST1
	.long	.LVUS1
	.uleb128 0x26
	.long	.LASF160
	.byte	0x83
	.byte	0x46
	.long	0xe4
	.long	.LLST2
	.long	.LVUS2
	.uleb128 0x26
	.long	.LASF107
	.byte	0x84
	.byte	0x2b
	.long	0x7d1
	.long	.LLST3
	.long	.LVUS3
	.uleb128 0x26
	.long	.LASF168
	.byte	0x85
	.byte	0x26
	.long	0xe4
	.long	.LLST4
	.long	.LVUS4
	.uleb128 0x26
	.long	.LASF169
	.byte	0x85
	.byte	0x3a
	.long	0xd8
	.long	.LLST5
	.long	.LVUS5
	.uleb128 0x37
	.string	"p"
	.byte	0x86
	.byte	0x14
	.long	0x7d1
	.uleb128 0x3
	.byte	0x91
	.sleb128 -464
	.uleb128 0x38
	.string	"end"
	.byte	0x86
	.byte	0x22
	.long	0x7d1
	.long	.LLST6
	.long	.LVUS6
	.uleb128 0x16
	.long	.LASF161
	.byte	0x87
	.byte	0xe
	.long	0x398
	.uleb128 0x3
	.byte	0x91
	.sleb128 -448
	.uleb128 0x16
	.long	.LASF170
	.byte	0x88
	.byte	0xe
	.long	0xd8
	.uleb128 0x3
	.byte	0x91
	.sleb128 -474
	.uleb128 0x16
	.long	.LASF113
	.byte	0x89
	.byte	0xe
	.long	0x3a8
	.uleb128 0x3
	.byte	0x91
	.sleb128 -336
	.uleb128 0x16
	.long	.LASF171
	.byte	0x8a
	.byte	0xe
	.long	0xf0
	.uleb128 0x3
	.byte	0x91
	.sleb128 -456
	.uleb128 0x16
	.long	.LASF172
	.byte	0x8b
	.byte	0xe
	.long	0xe4
	.uleb128 0x3
	.byte	0x91
	.sleb128 -472
	.uleb128 0x16
	.long	.LASF173
	.byte	0x8b
	.byte	0x15
	.long	0xe4
	.uleb128 0x3
	.byte	0x91
	.sleb128 -468
	.uleb128 0x38
	.string	"f"
	.byte	0x9b
	.byte	0x13
	.long	0x696
	.long	.LLST7
	.long	.LVUS7
	.uleb128 0x37
	.string	"hex"
	.byte	0xae
	.byte	0xa
	.long	0x250f
	.uleb128 0x3
	.byte	0x91
	.sleb128 -416
	.uleb128 0x25
	.long	0x25c2
	.quad	.LBI86
	.value	.LVU32
	.quad	.LBB86
	.quad	.LBE86-.LBB86
	.byte	0x97
	.byte	0x9
	.long	0x2062
	.uleb128 0x4
	.long	0x25e3
	.long	.LLST8
	.long	.LVUS8
	.uleb128 0x4
	.long	0x25d7
	.long	.LLST9
	.long	.LVUS9
	.uleb128 0x4
	.long	0x25cc
	.long	.LLST10
	.long	.LVUS10
	.uleb128 0xa
	.quad	.LVL10
	.long	0x8f4
	.uleb128 0x1
	.uleb128 0x1
	.byte	0x55
	.uleb128 0x2
	.byte	0x76
	.sleb128 0
	.uleb128 0x1
	.uleb128 0x1
	.byte	0x54
	.uleb128 0x1
	.byte	0x34
	.uleb128 0x1
	.uleb128 0x1
	.byte	0x51
	.uleb128 0x3
	.byte	0x91
	.sleb128 -475
	.uleb128 0x1
	.uleb128 0x1
	.byte	0x52
	.uleb128 0x1
	.byte	0x31
	.byte	0
	.byte	0
	.uleb128 0x25
	.long	0x2696
	.quad	.LBI89
	.value	.LVU58
	.quad	.LBB89
	.quad	.LBE89-.LBB89
	.byte	0x9b
	.byte	0x17
	.long	0x20b8
	.uleb128 0x4
	.long	0x26a7
	.long	.LLST11
	.long	.LVUS11
	.uleb128 0x24
	.long	0x26b3
	.quad	.LBB90
	.quad	.LBE90-.LBB90
	.uleb128 0x7
	.long	0x26b4
	.long	.LLST12
	.long	.LVUS12
	.byte	0
	.byte	0
	.uleb128 0x10
	.long	0x2649
	.quad	.LBI91
	.value	.LVU72
	.long	.LLRL13
	.byte	0xa9
	.byte	0x5
	.long	0x218e
	.uleb128 0x4
	.long	0x2674
	.long	.LLST14
	.long	.LVUS14
	.uleb128 0x4
	.long	0x2669
	.long	.LLST15
	.long	.LVUS15
	.uleb128 0x4
	.long	0x265d
	.long	.LLST16
	.long	.LVUS16
	.uleb128 0x4
	.long	0x2653
	.long	.LLST17
	.long	.LVUS17
	.uleb128 0x23
	.long	.LLRL13
	.uleb128 0x7
	.long	0x2680
	.long	.LLST18
	.long	.LVUS18
	.uleb128 0x2a
	.long	0x268a
	.long	.LLRL19
	.long	0x2132
	.uleb128 0x7
	.long	0x268b
	.long	.LLST20
	.long	.LVUS20
	.byte	0
	.uleb128 0x10
	.long	0x26bf
	.quad	.LBI95
	.value	.LVU108
	.long	.LLRL21
	.byte	0x3e
	.byte	0x5
	.long	0x2173
	.uleb128 0x4
	.long	0x26e6
	.long	.LLST22
	.long	.LVUS22
	.uleb128 0x4
	.long	0x26da
	.long	.LLST23
	.long	.LVUS23
	.uleb128 0x4
	.long	0x26ce
	.long	.LLST24
	.long	.LVUS24
	.byte	0
	.uleb128 0xa
	.quad	.LVL35
	.long	0x825
	.uleb128 0x1
	.uleb128 0x1
	.byte	0x55
	.uleb128 0x1
	.byte	0x31
	.uleb128 0x1
	.uleb128 0x1
	.byte	0x54
	.uleb128 0x2
	.byte	0x8
	.byte	0x20
	.byte	0
	.byte	0
	.byte	0
	.uleb128 0x25
	.long	0x25c2
	.quad	.LBI104
	.value	.LVU94
	.quad	.LBB104
	.quad	.LBE104-.LBB104
	.byte	0xac
	.byte	0x5
	.long	0x2200
	.uleb128 0x4
	.long	0x25e3
	.long	.LLST25
	.long	.LVUS25
	.uleb128 0x4
	.long	0x25d7
	.long	.LLST26
	.long	.LVUS26
	.uleb128 0x4
	.long	0x25cc
	.long	.LLST27
	.long	.LVUS27
	.uleb128 0xa
	.quad	.LVL30
	.long	0x8f4
	.uleb128 0x1
	.uleb128 0x1
	.byte	0x55
	.uleb128 0x2
	.byte	0x76
	.sleb128 0
	.uleb128 0x1
	.uleb128 0x1
	.byte	0x54
	.uleb128 0x1
	.byte	0x34
	.uleb128 0x1
	.uleb128 0x1
	.byte	0x51
	.uleb128 0x3
	.byte	0x91
	.sleb128 -475
	.uleb128 0x1
	.uleb128 0x1
	.byte	0x52
	.uleb128 0x1
	.byte	0x31
	.byte	0
	.byte	0
	.uleb128 0x25
	.long	0x2713
	.quad	.LBI107
	.value	.LVU100
	.quad	.LBB107
	.quad	.LBE107-.LBB107
	.byte	0xaf
	.byte	0x5
	.long	0x2266
	.uleb128 0x4
	.long	0x272e
	.long	.LLST28
	.long	.LVUS28
	.uleb128 0x1a
	.long	0x2722
	.uleb128 0xa
	.quad	.LVL33
	.long	0x6e7
	.uleb128 0x1
	.uleb128 0x1
	.byte	0x54
	.uleb128 0x1
	.byte	0x32
	.uleb128 0x1
	.uleb128 0x1
	.byte	0x51
	.uleb128 0x9
	.byte	0x3
	.quad	.LC1
	.uleb128 0x1
	.uleb128 0x1
	.byte	0x52
	.uleb128 0x2
	.byte	0x73
	.sleb128 0
	.uleb128 0x1
	.uleb128 0x1
	.byte	0x58
	.uleb128 0x4
	.byte	0x91
	.sleb128 -504
	.byte	0x6
	.byte	0
	.byte	0
	.uleb128 0x10
	.long	0x26bf
	.quad	.LBI110
	.value	.LVU129
	.long	.LLRL29
	.byte	0x9e
	.byte	0x9
	.long	0x22a7
	.uleb128 0x4
	.long	0x26e6
	.long	.LLST30
	.long	.LVUS30
	.uleb128 0x4
	.long	0x26da
	.long	.LLST31
	.long	.LVUS31
	.uleb128 0x4
	.long	0x26ce
	.long	.LLST32
	.long	.LVUS32
	.byte	0
	.uleb128 0x10
	.long	0x273c
	.quad	.LBI113
	.value	.LVU136
	.long	.LLRL33
	.byte	0x9f
	.byte	0x9
	.long	0x231c
	.uleb128 0x4
	.long	0x2763
	.long	.LLST34
	.long	.LVUS34
	.uleb128 0x4
	.long	0x2757
	.long	.LLST35
	.long	.LVUS35
	.uleb128 0x4
	.long	0x274b
	.long	.LLST36
	.long	.LVUS36
	.uleb128 0xa
	.quad	.LVL40
	.long	0x277a
	.uleb128 0x1
	.uleb128 0x1
	.byte	0x55
	.uleb128 0x6
	.byte	0x91
	.sleb128 -496
	.byte	0x6
	.byte	0x23
	.uleb128 0x20
	.uleb128 0x1
	.uleb128 0x1
	.byte	0x54
	.uleb128 0x3
	.byte	0xa
	.value	0x100
	.uleb128 0x1
	.uleb128 0x1
	.byte	0x51
	.uleb128 0x9
	.byte	0x3
	.quad	.LC0
	.uleb128 0x1
	.uleb128 0x1
	.byte	0x52
	.uleb128 0x4
	.byte	0x91
	.sleb128 -504
	.byte	0x6
	.byte	0
	.byte	0
	.uleb128 0x10
	.long	0x26bf
	.quad	.LBI118
	.value	.LVU163
	.long	.LLRL37
	.byte	0xa5
	.byte	0xd
	.long	0x2377
	.uleb128 0x4
	.long	0x26e6
	.long	.LLST38
	.long	.LVUS38
	.uleb128 0x4
	.long	0x26da
	.long	.LLST39
	.long	.LVUS39
	.uleb128 0x4
	.long	0x26ce
	.long	.LLST40
	.long	.LVUS40
	.uleb128 0xa
	.quad	.LVL43
	.long	0x2783
	.uleb128 0x1
	.uleb128 0x1
	.byte	0x51
	.uleb128 0x2
	.byte	0x7d
	.sleb128 0
	.uleb128 0x1
	.uleb128 0x1
	.byte	0x52
	.uleb128 0x2
	.byte	0x7d
	.sleb128 0
	.byte	0
	.byte	0
	.uleb128 0x3
	.quad	.LVL6
	.long	0x886
	.long	0x23a1
	.uleb128 0x1
	.uleb128 0x1
	.byte	0x55
	.uleb128 0x2
	.byte	0x7d
	.sleb128 0
	.uleb128 0x1
	.uleb128 0x1
	.byte	0x54
	.uleb128 0x2
	.byte	0x73
	.sleb128 0
	.uleb128 0x1
	.uleb128 0x1
	.byte	0x51
	.uleb128 0x2
	.byte	0x7f
	.sleb128 0
	.uleb128 0x1
	.uleb128 0x1
	.byte	0x52
	.uleb128 0x2
	.byte	0x8
	.byte	0x20
	.byte	0
	.uleb128 0x3
	.quad	.LVL7
	.long	0x861
	.long	0x23c6
	.uleb128 0x1
	.uleb128 0x1
	.byte	0x55
	.uleb128 0x2
	.byte	0x7d
	.sleb128 0
	.uleb128 0x1
	.uleb128 0x1
	.byte	0x54
	.uleb128 0x2
	.byte	0x73
	.sleb128 0
	.uleb128 0x1
	.uleb128 0x1
	.byte	0x51
	.uleb128 0x3
	.byte	0x91
	.sleb128 -474
	.byte	0
	.uleb128 0x3
	.quad	.LVL15
	.long	0x886
	.long	0x23ec
	.uleb128 0x1
	.uleb128 0x1
	.byte	0x55
	.uleb128 0x2
	.byte	0x7d
	.sleb128 0
	.uleb128 0x1
	.uleb128 0x1
	.byte	0x54
	.uleb128 0x2
	.byte	0x73
	.sleb128 0
	.uleb128 0x1
	.uleb128 0x1
	.byte	0x51
	.uleb128 0x4
	.byte	0x91
	.sleb128 -504
	.byte	0x6
	.byte	0
	.uleb128 0x3
	.quad	.LVL16
	.long	0x800
	.long	0x2411
	.uleb128 0x1
	.uleb128 0x1
	.byte	0x55
	.uleb128 0x2
	.byte	0x7d
	.sleb128 0
	.uleb128 0x1
	.uleb128 0x1
	.byte	0x54
	.uleb128 0x2
	.byte	0x73
	.sleb128 0
	.uleb128 0x1
	.uleb128 0x1
	.byte	0x51
	.uleb128 0x3
	.byte	0x91
	.sleb128 -456
	.byte	0
	.uleb128 0x3
	.quad	.LVL17
	.long	0x7d6
	.long	0x2436
	.uleb128 0x1
	.uleb128 0x1
	.byte	0x55
	.uleb128 0x2
	.byte	0x7d
	.sleb128 0
	.uleb128 0x1
	.uleb128 0x1
	.byte	0x54
	.uleb128 0x2
	.byte	0x73
	.sleb128 0
	.uleb128 0x1
	.uleb128 0x1
	.byte	0x51
	.uleb128 0x3
	.byte	0x91
	.sleb128 -472
	.byte	0
	.uleb128 0x3
	.quad	.LVL18
	.long	0x7d6
	.long	0x245b
	.uleb128 0x1
	.uleb128 0x1
	.byte	0x55
	.uleb128 0x2
	.byte	0x7d
	.sleb128 0
	.uleb128 0x1
	.uleb128 0x1
	.byte	0x54
	.uleb128 0x2
	.byte	0x73
	.sleb128 0
	.uleb128 0x1
	.uleb128 0x1
	.byte	0x51
	.uleb128 0x3
	.byte	0x91
	.sleb128 -468
	.byte	0
	.uleb128 0x3
	.quad	.LVL20
	.long	0x8dd
	.long	0x2473
	.uleb128 0x1
	.uleb128 0x1
	.byte	0x55
	.uleb128 0x2
	.byte	0x73
	.sleb128 0
	.byte	0
	.uleb128 0x3
	.quad	.LVL28
	.long	0x8c1
	.long	0x2492
	.uleb128 0x1
	.uleb128 0x1
	.byte	0x55
	.uleb128 0x9
	.byte	0x3
	.quad	lock
	.byte	0
	.uleb128 0x3
	.quad	.LVL31
	.long	0x7bb
	.long	0x24b0
	.uleb128 0x1
	.uleb128 0x1
	.byte	0x55
	.uleb128 0x2
	.byte	0x7f
	.sleb128 0
	.uleb128 0x1
	.uleb128 0x1
	.byte	0x54
	.uleb128 0x2
	.byte	0x73
	.sleb128 0
	.byte	0
	.uleb128 0x3
	.quad	.LVL32
	.long	0x8ab
	.long	0x24cb
	.uleb128 0x1
	.uleb128 0x1
	.byte	0x55
	.uleb128 0x5
	.byte	0x91
	.sleb128 -508
	.byte	0x94
	.byte	0x4
	.byte	0
	.uleb128 0x3
	.quad	.LVL37
	.long	0x825
	.long	0x24e9
	.uleb128 0x1
	.uleb128 0x1
	.byte	0x55
	.uleb128 0x1
	.byte	0x31
	.uleb128 0x1
	.uleb128 0x1
	.byte	0x54
	.uleb128 0x3
	.byte	0xa
	.value	0x148
	.byte	0
	.uleb128 0x3
	.quad	.LVL41
	.long	0x9cb
	.long	0x2501
	.uleb128 0x1
	.uleb128 0x1
	.byte	0x55
	.uleb128 0x2
	.byte	0x7d
	.sleb128 0
	.byte	0
	.uleb128 0x13
	.quad	.LVL46
	.long	0x2771
	.byte	0
	.uleb128 0x14
	.long	0xbb
	.long	0x251f
	.uleb128 0x15
	.long	0x3f
	.byte	0x40
	.byte	0
	.uleb128 0x1c
	.long	.LASF174
	.byte	0x65
	.long	0x25c2
	.uleb128 0x11
	.string	"fd"
	.byte	0x1
	.byte	0x65
	.byte	0x21
	.long	0x6c
	.uleb128 0xc
	.long	.LASF159
	.byte	0x1
	.byte	0x65
	.byte	0x34
	.long	0x7d1
	.uleb128 0xc
	.long	.LASF160
	.byte	0x1
	.byte	0x65
	.byte	0x46
	.long	0xe4
	.uleb128 0xc
	.long	.LASF168
	.byte	0x1
	.byte	0x66
	.byte	0x26
	.long	0xe4
	.uleb128 0xc
	.long	.LASF175
	.byte	0x1
	.byte	0x67
	.byte	0x25
	.long	0x3b8
	.uleb128 0xc
	.long	.LASF176
	.byte	0x1
	.byte	0x68
	.byte	0x27
	.long	0x881
	.uleb128 0x6
	.string	"p"
	.byte	0x69
	.byte	0x14
	.long	0x7d1
	.uleb128 0x6
	.string	"end"
	.byte	0x69
	.byte	0x22
	.long	0x7d1
	.uleb128 0x6
	.string	"pid"
	.byte	0x6a
	.byte	0xe
	.long	0x5be
	.uleb128 0x17
	.long	.LASF157
	.byte	0x6b
	.byte	0xe
	.long	0xd8
	.uleb128 0x17
	.long	.LASF177
	.byte	0x71
	.byte	0x13
	.long	0x656
	.uleb128 0x20
	.long	0x25b5
	.uleb128 0x6
	.string	"pe"
	.byte	0x72
	.byte	0x18
	.long	0x656
	.byte	0
	.uleb128 0x12
	.uleb128 0x6
	.string	"np"
	.byte	0x77
	.byte	0x17
	.long	0x656
	.byte	0
	.byte	0
	.uleb128 0x1c
	.long	.LASF178
	.byte	0x61
	.long	0x25f0
	.uleb128 0x11
	.string	"fd"
	.byte	0x1
	.byte	0x61
	.byte	0x1d
	.long	0x6c
	.uleb128 0xc
	.long	.LASF158
	.byte	0x1
	.byte	0x61
	.byte	0x29
	.long	0xc7
	.uleb128 0xc
	.long	.LASF179
	.byte	0x1
	.byte	0x61
	.byte	0x37
	.long	0xc7
	.byte	0
	.uleb128 0x1c
	.long	.LASF180
	.byte	0x44
	.long	0x2644
	.uleb128 0x11
	.string	"pid"
	.byte	0x1
	.byte	0x44
	.byte	0x3a
	.long	0x7d1
	.uleb128 0x6
	.string	"pp"
	.byte	0x51
	.byte	0x14
	.long	0x2644
	.uleb128 0x20
	.long	0x2638
	.uleb128 0x6
	.string	"f"
	.byte	0x45
	.byte	0x18
	.long	0x696
	.uleb128 0x12
	.uleb128 0x6
	.string	"pp"
	.byte	0x46
	.byte	0x18
	.long	0x2644
	.uleb128 0x12
	.uleb128 0x17
	.long	.LASF181
	.byte	0x49
	.byte	0x1f
	.long	0x656
	.byte	0
	.byte	0
	.byte	0
	.uleb128 0x12
	.uleb128 0x6
	.string	"d"
	.byte	0x54
	.byte	0x1b
	.long	0x656
	.byte	0
	.byte	0
	.uleb128 0x8
	.long	0x656
	.uleb128 0x1c
	.long	.LASF182
	.byte	0x36
	.long	0x2696
	.uleb128 0x11
	.string	"f"
	.byte	0x1
	.byte	0x36
	.byte	0x33
	.long	0x696
	.uleb128 0x11
	.string	"pid"
	.byte	0x1
	.byte	0x36
	.byte	0x45
	.long	0x7d1
	.uleb128 0x11
	.string	"ip"
	.byte	0x1
	.byte	0x37
	.byte	0x2e
	.long	0xe4
	.uleb128 0xc
	.long	.LASF108
	.byte	0x1
	.byte	0x37
	.byte	0x3b
	.long	0xd8
	.uleb128 0x6
	.string	"np"
	.byte	0x3d
	.byte	0x13
	.long	0x656
	.uleb128 0x12
	.uleb128 0x6
	.string	"p"
	.byte	0x38
	.byte	0x18
	.long	0x656
	.byte	0
	.byte	0
	.uleb128 0x4e
	.long	.LASF205
	.byte	0x1
	.byte	0x30
	.byte	0x16
	.long	0x696
	.byte	0x1
	.long	0x26bf
	.uleb128 0xc
	.long	.LASF183
	.byte	0x1
	.byte	0x30
	.byte	0x36
	.long	0x7d1
	.uleb128 0x12
	.uleb128 0x6
	.string	"f"
	.byte	0x31
	.byte	0x18
	.long	0x696
	.byte	0
	.byte	0
	.uleb128 0x30
	.long	.LASF185
	.byte	0x3
	.byte	0x1a
	.long	0xaa
	.long	0x26f3
	.uleb128 0xc
	.long	.LASF186
	.byte	0x3
	.byte	0x1a
	.byte	0x1
	.long	0xac
	.uleb128 0xc
	.long	.LASF187
	.byte	0x3
	.byte	0x1a
	.byte	0x1
	.long	0x553
	.uleb128 0xc
	.long	.LASF188
	.byte	0x3
	.byte	0x1a
	.byte	0x1
	.long	0xfc
	.byte	0
	.uleb128 0x4f
	.long	.LASF189
	.byte	0x4
	.value	0x1e1
	.byte	0x1
	.long	0x6c
	.byte	0x3
	.long	0x2713
	.uleb128 0x50
	.long	.LASF190
	.byte	0x4
	.value	0x1e1
	.byte	0x1
	.long	0x2f9
	.byte	0
	.uleb128 0x30
	.long	.LASF191
	.byte	0x2
	.byte	0x4d
	.long	0x6c
	.long	0x273c
	.uleb128 0xc
	.long	.LASF192
	.byte	0x2
	.byte	0x4d
	.byte	0x1b
	.long	0x308
	.uleb128 0xc
	.long	.LASF193
	.byte	0x2
	.byte	0x4d
	.byte	0x3c
	.long	0x2fe
	.uleb128 0x2e
	.byte	0
	.uleb128 0x30
	.long	.LASF194
	.byte	0x2
	.byte	0x33
	.long	0x6c
	.long	0x2771
	.uleb128 0x11
	.string	"__s"
	.byte	0x2
	.byte	0x33
	.byte	0x1
	.long	0xb6
	.uleb128 0x11
	.string	"__n"
	.byte	0x2
	.byte	0x33
	.byte	0x1
	.long	0xfc
	.uleb128 0xc
	.long	.LASF193
	.byte	0x2
	.byte	0x33
	.byte	0x1
	.long	0x2fe
	.uleb128 0x2e
	.byte	0
	.uleb128 0x51
	.long	.LASF206
	.long	.LASF206
	.uleb128 0x39
	.long	.LASF194
	.long	.LASF196
	.uleb128 0x39
	.long	.LASF195
	.long	.LASF197
	.byte	0
	.section	.debug_abbrev,"",@progbits
.Ldebug_abbrev0:
	.uleb128 0x1
	.uleb128 0x49
	.byte	0
	.uleb128 0x2
	.uleb128 0x18
	.uleb128 0x7e
	.uleb128 0x18
	.byte	0
	.byte	0
	.uleb128 0x2
	.uleb128 0x5
	.byte	0
	.uleb128 0x49
	.uleb128 0x13
	.byte	0
	.byte	0
	.uleb128 0x3
	.uleb128 0x48
	.byte	0x1
	.uleb128 0x7d
	.uleb128 0x1
	.uleb128 0x7f
	.uleb128 0x13
	.uleb128 0x1
	.uleb128 0x13
	.byte	0
	.byte	0
	.uleb128 0x4
	.uleb128 0x5
	.byte	0
	.uleb128 0x31
	.uleb128 0x13
	.uleb128 0x2
	.uleb128 0x17
	.uleb128 0x2137
	.uleb128 0x17
	.byte	0
	.byte	0
	.uleb128 0x5
	.uleb128 0xd
	.byte	0
	.uleb128 0x3
	.uleb128 0xe
	.uleb128 0x3a
	.uleb128 0xb
	.uleb128 0x3b
	.uleb128 0xb
	.uleb128 0x39
	.uleb128 0xb
	.uleb128 0x49
	.uleb128 0x13
	.uleb128 0x38
	.uleb128 0xb
	.byte	0
	.byte	0
	.uleb128 0x6
	.uleb128 0x34
	.byte	0
	.uleb128 0x3
	.uleb128 0x8
	.uleb128 0x3a
	.uleb128 0x21
	.sleb128 1
	.uleb128 0x3b
	.uleb128 0xb
	.uleb128 0x39
	.uleb128 0xb
	.uleb128 0x49
	.uleb128 0x13
	.byte	0
	.byte	0
	.uleb128 0x7
	.uleb128 0x34
	.byte	0
	.uleb128 0x31
	.uleb128 0x13
	.uleb128 0x2
	.uleb128 0x17
	.uleb128 0x2137
	.uleb128 0x17
	.byte	0
	.byte	0
	.uleb128 0x8
	.uleb128 0xf
	.byte	0
	.uleb128 0xb
	.uleb128 0x21
	.sleb128 8
	.uleb128 0x49
	.uleb128 0x13
	.byte	0
	.byte	0
	.uleb128 0x9
	.uleb128 0x28
	.byte	0
	.uleb128 0x3
	.uleb128 0xe
	.uleb128 0x1c
	.uleb128 0xb
	.byte	0
	.byte	0
	.uleb128 0xa
	.uleb128 0x48
	.byte	0x1
	.uleb128 0x7d
	.uleb128 0x1
	.uleb128 0x7f
	.uleb128 0x13
	.byte	0
	.byte	0
	.uleb128 0xb
	.uleb128 0x16
	.byte	0
	.uleb128 0x3
	.uleb128 0xe
	.uleb128 0x3a
	.uleb128 0xb
	.uleb128 0x3b
	.uleb128 0xb
	.uleb128 0x39
	.uleb128 0xb
	.uleb128 0x49
	.uleb128 0x13
	.byte	0
	.byte	0
	.uleb128 0xc
	.uleb128 0x5
	.byte	0
	.uleb128 0x3
	.uleb128 0xe
	.uleb128 0x3a
	.uleb128 0xb
	.uleb128 0x3b
	.uleb128 0xb
	.uleb128 0x39
	.uleb128 0xb
	.uleb128 0x49
	.uleb128 0x13
	.byte	0
	.byte	0
	.uleb128 0xd
	.uleb128 0x2e
	.byte	0x1
	.uleb128 0x3f
	.uleb128 0x19
	.uleb128 0x3
	.uleb128 0xe
	.uleb128 0x3a
	.uleb128 0xb
	.uleb128 0x3b
	.uleb128 0xb
	.uleb128 0x39
	.uleb128 0xb
	.uleb128 0x27
	.uleb128 0x19
	.uleb128 0x49
	.uleb128 0x13
	.uleb128 0x3c
	.uleb128 0x19
	.uleb128 0x1
	.uleb128 0x13
	.byte	0
	.byte	0
	.uleb128 0xe
	.uleb128 0x34
	.byte	0
	.uleb128 0x31
	.uleb128 0x13
	.uleb128 0x2
	.uleb128 0x18
	.byte	0
	.byte	0
	.uleb128 0xf
	.uleb128 0x24
	.byte	0
	.uleb128 0xb
	.uleb128 0xb
	.uleb128 0x3e
	.uleb128 0xb
	.uleb128 0x3
	.uleb128 0xe
	.byte	0
	.byte	0
	.uleb128 0x10
	.uleb128 0x1d
	.byte	0x1
	.uleb128 0x31
	.uleb128 0x13
	.uleb128 0x52
	.uleb128 0x1
	.uleb128 0x2138
	.uleb128 0x5
	.uleb128 0x55
	.uleb128 0x17
	.uleb128 0x58
	.uleb128 0x21
	.sleb128 1
	.uleb128 0x59
	.uleb128 0xb
	.uleb128 0x57
	.uleb128 0xb
	.uleb128 0x1
	.uleb128 0x13
	.byte	0
	.byte	0
	.uleb128 0x11
	.uleb128 0x5
	.byte	0
	.uleb128 0x3
	.uleb128 0x8
	.uleb128 0x3a
	.uleb128 0xb
	.uleb128 0x3b
	.uleb128 0xb
	.uleb128 0x39
	.uleb128 0xb
	.uleb128 0x49
	.uleb128 0x13
	.byte	0
	.byte	0
	.uleb128 0x12
	.uleb128 0xb
	.byte	0x1
	.byte	0
	.byte	0
	.uleb128 0x13
	.uleb128 0x48
	.byte	0
	.uleb128 0x7d
	.uleb128 0x1
	.uleb128 0x7f
	.uleb128 0x13
	.byte	0
	.byte	0
	.uleb128 0x14
	.uleb128 0x1
	.byte	0x1
	.uleb128 0x49
	.uleb128 0x13
	.uleb128 0x1
	.uleb128 0x13
	.byte	0
	.byte	0
	.uleb128 0x15
	.uleb128 0x21
	.byte	0
	.uleb128 0x49
	.uleb128 0x13
	.uleb128 0x2f
	.uleb128 0xb
	.byte	0
	.byte	0
	.uleb128 0x16
	.uleb128 0x34
	.byte	0
	.uleb128 0x3
	.uleb128 0xe
	.uleb128 0x3a
	.uleb128 0x21
	.sleb128 1
	.uleb128 0x3b
	.uleb128 0xb
	.uleb128 0x39
	.uleb128 0xb
	.uleb128 0x49
	.uleb128 0x13
	.uleb128 0x2
	.uleb128 0x18
	.byte	0
	.byte	0
	.uleb128 0x17
	.uleb128 0x34
	.byte	0
	.uleb128 0x3
	.uleb128 0xe
	.uleb128 0x3a
	.uleb128 0x21
	.sleb128 1
	.uleb128 0x3b
	.uleb128 0xb
	.uleb128 0x39
	.uleb128 0xb
	.uleb128 0x49
	.uleb128 0x13
	.byte	0
	.byte	0
	.uleb128 0x18
	.uleb128 0x37
	.byte	0
	.uleb128 0x49
	.uleb128 0x13
	.byte	0
	.byte	0
	.uleb128 0x19
	.uleb128 0x2e
	.byte	0x1
	.uleb128 0x3f
	.uleb128 0x19
	.uleb128 0x3
	.uleb128 0xe
	.uleb128 0x3a
	.uleb128 0xb
	.uleb128 0x3b
	.uleb128 0x5
	.uleb128 0x39
	.uleb128 0xb
	.uleb128 0x27
	.uleb128 0x19
	.uleb128 0x49
	.uleb128 0x13
	.uleb128 0x3c
	.uleb128 0x19
	.uleb128 0x1
	.uleb128 0x13
	.byte	0
	.byte	0
	.uleb128 0x1a
	.uleb128 0x5
	.byte	0
	.uleb128 0x31
	.uleb128 0x13
	.byte	0
	.byte	0
	.uleb128 0x1b
	.uleb128 0xb
	.byte	0x1
	.uleb128 0x31
	.uleb128 0x13
	.uleb128 0x11
	.uleb128 0x1
	.uleb128 0x12
	.uleb128 0x7
	.uleb128 0x1
	.uleb128 0x13
	.byte	0
	.byte	0
	.uleb128 0x1c
	.uleb128 0x2e
	.byte	0x1
	.uleb128 0x3
	.uleb128 0xe
	.uleb128 0x3a
	.uleb128 0x21
	.sleb128 1
	.uleb128 0x3b
	.uleb128 0xb
	.uleb128 0x39
	.uleb128 0x21
	.sleb128 13
	.uleb128 0x27
	.uleb128 0x19
	.uleb128 0x20
	.uleb128 0x21
	.sleb128 1
	.uleb128 0x1
	.uleb128 0x13
	.byte	0
	.byte	0
	.uleb128 0x1d
	.uleb128 0xd
	.byte	0
	.uleb128 0x3
	.uleb128 0xe
	.uleb128 0x3a
	.uleb128 0x21
	.sleb128 1
	.uleb128 0x3b
	.uleb128 0xb
	.uleb128 0x39
	.uleb128 0xb
	.uleb128 0x49
	.uleb128 0x13
	.uleb128 0x38
	.uleb128 0x5
	.byte	0
	.byte	0
	.uleb128 0x1e
	.uleb128 0x2e
	.byte	0x1
	.uleb128 0x3f
	.uleb128 0x19
	.uleb128 0x3
	.uleb128 0xe
	.uleb128 0x3a
	.uleb128 0xb
	.uleb128 0x3b
	.uleb128 0xb
	.uleb128 0x39
	.uleb128 0x21
	.sleb128 6
	.uleb128 0x27
	.uleb128 0x19
	.uleb128 0x3c
	.uleb128 0x19
	.uleb128 0x1
	.uleb128 0x13
	.byte	0
	.byte	0
	.uleb128 0x1f
	.uleb128 0x1d
	.byte	0x1
	.uleb128 0x31
	.uleb128 0x13
	.uleb128 0x52
	.uleb128 0x1
	.uleb128 0x2138
	.uleb128 0x5
	.uleb128 0x55
	.uleb128 0x17
	.uleb128 0x58
	.uleb128 0x21
	.sleb128 1
	.uleb128 0x59
	.uleb128 0x5
	.uleb128 0x57
	.uleb128 0xb
	.uleb128 0x1
	.uleb128 0x13
	.byte	0
	.byte	0
	.uleb128 0x20
	.uleb128 0xb
	.byte	0x1
	.uleb128 0x1
	.uleb128 0x13
	.byte	0
	.byte	0
	.uleb128 0x21
	.uleb128 0xd
	.byte	0
	.uleb128 0x3
	.uleb128 0xe
	.uleb128 0x3a
	.uleb128 0x21
	.sleb128 12
	.uleb128 0x3b
	.uleb128 0xb
	.uleb128 0x39
	.uleb128 0xb
	.uleb128 0x49
	.uleb128 0x13
	.byte	0
	.byte	0
	.uleb128 0x22
	.uleb128 0x34
	.byte	0
	.uleb128 0x3
	.uleb128 0xe
	.uleb128 0x3a
	.uleb128 0x21
	.sleb128 1
	.uleb128 0x3b
	.uleb128 0x5
	.uleb128 0x39
	.uleb128 0xb
	.uleb128 0x49
	.uleb128 0x13
	.uleb128 0x2
	.uleb128 0x18
	.byte	0
	.byte	0
	.uleb128 0x23
	.uleb128 0xb
	.byte	0x1
	.uleb128 0x55
	.uleb128 0x17
	.byte	0
	.byte	0
	.uleb128 0x24
	.uleb128 0xb
	.byte	0x1
	.uleb128 0x31
	.uleb128 0x13
	.uleb128 0x11
	.uleb128 0x1
	.uleb128 0x12
	.uleb128 0x7
	.byte	0
	.byte	0
	.uleb128 0x25
	.uleb128 0x1d
	.byte	0x1
	.uleb128 0x31
	.uleb128 0x13
	.uleb128 0x52
	.uleb128 0x1
	.uleb128 0x2138
	.uleb128 0x5
	.uleb128 0x11
	.uleb128 0x1
	.uleb128 0x12
	.uleb128 0x7
	.uleb128 0x58
	.uleb128 0x21
	.sleb128 1
	.uleb128 0x59
	.uleb128 0xb
	.uleb128 0x57
	.uleb128 0xb
	.uleb128 0x1
	.uleb128 0x13
	.byte	0
	.byte	0
	.uleb128 0x26
	.uleb128 0x5
	.byte	0
	.uleb128 0x3
	.uleb128 0xe
	.uleb128 0x3a
	.uleb128 0x21
	.sleb128 1
	.uleb128 0x3b
	.uleb128 0xb
	.uleb128 0x39
	.uleb128 0xb
	.uleb128 0x49
	.uleb128 0x13
	.uleb128 0x2
	.uleb128 0x17
	.uleb128 0x2137
	.uleb128 0x17
	.byte	0
	.byte	0
	.uleb128 0x27
	.uleb128 0x13
	.byte	0x1
	.uleb128 0x3
	.uleb128 0xe
	.uleb128 0xb
	.uleb128 0xb
	.uleb128 0x3a
	.uleb128 0xb
	.uleb128 0x3b
	.uleb128 0xb
	.uleb128 0x39
	.uleb128 0xb
	.uleb128 0x1
	.uleb128 0x13
	.byte	0
	.byte	0
	.uleb128 0x28
	.uleb128 0x34
	.byte	0
	.uleb128 0x3
	.uleb128 0x8
	.uleb128 0x3a
	.uleb128 0x21
	.sleb128 1
	.uleb128 0x3b
	.uleb128 0x5
	.uleb128 0x39
	.uleb128 0xb
	.uleb128 0x49
	.uleb128 0x13
	.uleb128 0x2
	.uleb128 0x17
	.uleb128 0x2137
	.uleb128 0x17
	.byte	0
	.byte	0
	.uleb128 0x29
	.uleb128 0x1d
	.byte	0x1
	.uleb128 0x31
	.uleb128 0x13
	.uleb128 0x52
	.uleb128 0x1
	.uleb128 0x2138
	.uleb128 0x5
	.uleb128 0x11
	.uleb128 0x1
	.uleb128 0x12
	.uleb128 0x7
	.uleb128 0x58
	.uleb128 0x21
	.sleb128 1
	.uleb128 0x59
	.uleb128 0x5
	.uleb128 0x57
	.uleb128 0xb
	.uleb128 0x1
	.uleb128 0x13
	.byte	0
	.byte	0
	.uleb128 0x2a
	.uleb128 0xb
	.byte	0x1
	.uleb128 0x31
	.uleb128 0x13
	.uleb128 0x55
	.uleb128 0x17
	.uleb128 0x1
	.uleb128 0x13
	.byte	0
	.byte	0
	.uleb128 0x2b
	.uleb128 0x26
	.byte	0
	.uleb128 0x49
	.uleb128 0x13
	.byte	0
	.byte	0
	.uleb128 0x2c
	.uleb128 0x13
	.byte	0
	.uleb128 0x3
	.uleb128 0xe
	.uleb128 0x3c
	.uleb128 0x19
	.byte	0
	.byte	0
	.uleb128 0x2d
	.uleb128 0xd
	.byte	0
	.uleb128 0x3
	.uleb128 0x8
	.uleb128 0x3a
	.uleb128 0x21
	.sleb128 1
	.uleb128 0x3b
	.uleb128 0xb
	.uleb128 0x39
	.uleb128 0x21
	.sleb128 15
	.uleb128 0x49
	.uleb128 0x13
	.uleb128 0x38
	.uleb128 0xb
	.byte	0
	.byte	0
	.uleb128 0x2e
	.uleb128 0x18
	.byte	0
	.byte	0
	.byte	0
	.uleb128 0x2f
	.uleb128 0x34
	.byte	0
	.uleb128 0x3
	.uleb128 0xe
	.uleb128 0x3a
	.uleb128 0x21
	.sleb128 1
	.uleb128 0x3b
	.uleb128 0x5
	.uleb128 0x39
	.uleb128 0x21
	.sleb128 14
	.uleb128 0x49
	.uleb128 0x13
	.uleb128 0x2
	.uleb128 0x17
	.uleb128 0x2137
	.uleb128 0x17
	.byte	0
	.byte	0
	.uleb128 0x30
	.uleb128 0x2e
	.byte	0x1
	.uleb128 0x3f
	.uleb128 0x19
	.uleb128 0x3
	.uleb128 0xe
	.uleb128 0x3a
	.uleb128 0xb
	.uleb128 0x3b
	.uleb128 0xb
	.uleb128 0x39
	.uleb128 0x21
	.sleb128 1
	.uleb128 0x27
	.uleb128 0x19
	.uleb128 0x49
	.uleb128 0x13
	.uleb128 0x20
	.uleb128 0x21
	.sleb128 3
	.uleb128 0x34
	.uleb128 0x19
	.uleb128 0x1
	.uleb128 0x13
	.byte	0
	.byte	0
	.uleb128 0x31
	.uleb128 0x4
	.byte	0x1
	.uleb128 0x3e
	.uleb128 0x21
	.sleb128 7
	.uleb128 0xb
	.uleb128 0x21
	.sleb128 4
	.uleb128 0x49
	.uleb128 0x13
	.uleb128 0x3a
	.uleb128 0xb
	.uleb128 0x3b
	.uleb128 0xb
	.uleb128 0x39
	.uleb128 0xb
	.uleb128 0x1
	.uleb128 0x13
	.byte	0
	.byte	0
	.uleb128 0x32
	.uleb128 0x2e
	.byte	0x1
	.uleb128 0x3f
	.uleb128 0x19
	.uleb128 0x3
	.uleb128 0xe
	.uleb128 0x3a
	.uleb128 0xb
	.uleb128 0x3b
	.uleb128 0x5
	.uleb128 0x39
	.uleb128 0x21
	.sleb128 13
	.uleb128 0x27
	.uleb128 0x19
	.uleb128 0x3c
	.uleb128 0x19
	.uleb128 0x1
	.uleb128 0x13
	.byte	0
	.byte	0
	.uleb128 0x33
	.uleb128 0x5
	.byte	0
	.uleb128 0x3
	.uleb128 0xe
	.uleb128 0x3a
	.uleb128 0x21
	.sleb128 1
	.uleb128 0x3b
	.uleb128 0x21
	.sleb128 313
	.uleb128 0x39
	.uleb128 0xb
	.uleb128 0x49
	.uleb128 0x13
	.uleb128 0x2
	.uleb128 0x17
	.uleb128 0x2137
	.uleb128 0x17
	.byte	0
	.byte	0
	.uleb128 0x34
	.uleb128 0xb
	.byte	0x1
	.uleb128 0x55
	.uleb128 0x17
	.uleb128 0x1
	.uleb128 0x13
	.byte	0
	.byte	0
	.uleb128 0x35
	.uleb128 0x34
	.byte	0
	.uleb128 0x3
	.uleb128 0x8
	.uleb128 0x3a
	.uleb128 0x21
	.sleb128 1
	.uleb128 0x3b
	.uleb128 0x5
	.uleb128 0x39
	.uleb128 0xb
	.uleb128 0x49
	.uleb128 0x13
	.uleb128 0x2
	.uleb128 0x18
	.byte	0
	.byte	0
	.uleb128 0x36
	.uleb128 0xb
	.byte	0x1
	.uleb128 0x31
	.uleb128 0x13
	.uleb128 0x55
	.uleb128 0x17
	.byte	0
	.byte	0
	.uleb128 0x37
	.uleb128 0x34
	.byte	0
	.uleb128 0x3
	.uleb128 0x8
	.uleb128 0x3a
	.uleb128 0x21
	.sleb128 1
	.uleb128 0x3b
	.uleb128 0xb
	.uleb128 0x39
	.uleb128 0xb
	.uleb128 0x49
	.uleb128 0x13
	.uleb128 0x2
	.uleb128 0x18
	.byte	0
	.byte	0
	.uleb128 0x38
	.uleb128 0x34
	.byte	0
	.uleb128 0x3
	.uleb128 0x8
	.uleb128 0x3a
	.uleb128 0x21
	.sleb128 1
	.uleb128 0x3b
	.uleb128 0xb
	.uleb128 0x39
	.uleb128 0xb
	.uleb128 0x49
	.uleb128 0x13
	.uleb128 0x2
	.uleb128 0x17
	.uleb128 0x2137
	.uleb128 0x17
	.byte	0
	.byte	0
	.uleb128 0x39
	.uleb128 0x2e
	.byte	0
	.uleb128 0x3f
	.uleb128 0x19
	.uleb128 0x3c
	.uleb128 0x19
	.uleb128 0x6e
	.uleb128 0xe
	.uleb128 0x3
	.uleb128 0xe
	.uleb128 0x3a
	.uleb128 0x21
	.sleb128 22
	.uleb128 0x3b
	.uleb128 0x21
	.sleb128 0
	.byte	0
	.byte	0
	.uleb128 0x3a
	.uleb128 0x11
	.byte	0x1
	.uleb128 0x25
	.uleb128 0xe
	.uleb128 0x13
	.uleb128 0xb
	.uleb128 0x3
	.uleb128 0x1f
	.uleb128 0x1b
	.uleb128 0x1f
	.uleb128 0x55
	.uleb128 0x17
	.uleb128 0x11
	.uleb128 0x1
	.uleb128 0x10
	.uleb128 0x17
	.byte	0
	.byte	0
	.uleb128 0x3b
	.uleb128 0x24
	.byte	0
	.uleb128 0xb
	.uleb128 0xb
	.uleb128 0x3e
	.uleb128 0xb
	.uleb128 0x3
	.uleb128 0x8
	.byte	0
	.byte	0
	.uleb128 0x3c
	.uleb128 0xf
	.byte	0
	.uleb128 0xb
	.uleb128 0xb
	.byte	0
	.byte	0
	.uleb128 0x3d
	.uleb128 0x16
	.byte	0
	.uleb128 0x3
	.uleb128 0xe
	.uleb128 0x3a
	.uleb128 0xb
	.uleb128 0x3b
	.uleb128 0xb
	.uleb128 0x39
	.uleb128 0xb
	.byte	0
	.byte	0
	.uleb128 0x3e
	.uleb128 0x34
	.byte	0
	.uleb128 0x3
	.uleb128 0xe
	.uleb128 0x3a
	.uleb128 0xb
	.uleb128 0x3b
	.uleb128 0xb
	.uleb128 0x39
	.uleb128 0xb
	.uleb128 0x49
	.uleb128 0x13
	.uleb128 0x3f
	.uleb128 0x19
	.uleb128 0x3c
	.uleb128 0x19
	.byte	0
	.byte	0
	.uleb128 0x3f
	.uleb128 0x17
	.byte	0x1
	.uleb128 0x3
	.uleb128 0xe
	.uleb128 0xb
	.uleb128 0xb
	.uleb128 0x3a
	.uleb128 0xb
	.uleb128 0x3b
	.uleb128 0xb
	.uleb128 0x39
	.uleb128 0xb
	.uleb128 0x1
	.uleb128 0x13
	.byte	0
	.byte	0
	.uleb128 0x40
	.uleb128 0x17
	.byte	0x1
	.uleb128 0xb
	.uleb128 0xb
	.uleb128 0x3a
	.uleb128 0xb
	.uleb128 0x3b
	.uleb128 0xb
	.uleb128 0x39
	.uleb128 0xb
	.uleb128 0x1
	.uleb128 0x13
	.byte	0
	.byte	0
	.uleb128 0x41
	.uleb128 0x26
	.byte	0
	.byte	0
	.byte	0
	.uleb128 0x42
	.uleb128 0x15
	.byte	0x1
	.uleb128 0x27
	.uleb128 0x19
	.uleb128 0x1
	.uleb128 0x13
	.byte	0
	.byte	0
	.uleb128 0x43
	.uleb128 0x13
	.byte	0x1
	.uleb128 0x3
	.uleb128 0xe
	.uleb128 0xb
	.uleb128 0x5
	.uleb128 0x3a
	.uleb128 0xb
	.uleb128 0x3b
	.uleb128 0xb
	.uleb128 0x39
	.uleb128 0xb
	.uleb128 0x1
	.uleb128 0x13
	.byte	0
	.byte	0
	.uleb128 0x44
	.uleb128 0x13
	.byte	0x1
	.uleb128 0xb
	.uleb128 0xb
	.uleb128 0x3a
	.uleb128 0xb
	.uleb128 0x3b
	.uleb128 0xb
	.uleb128 0x39
	.uleb128 0xb
	.uleb128 0x1
	.uleb128 0x13
	.byte	0
	.byte	0
	.uleb128 0x45
	.uleb128 0x2e
	.byte	0x1
	.uleb128 0x3f
	.uleb128 0x19
	.uleb128 0x3
	.uleb128 0xe
	.uleb128 0x3a
	.uleb128 0xb
	.uleb128 0x3b
	.uleb128 0xb
	.uleb128 0x39
	.uleb128 0xb
	.uleb128 0x6e
	.uleb128 0xe
	.uleb128 0x27
	.uleb128 0x19
	.uleb128 0x49
	.uleb128 0x13
	.uleb128 0x3c
	.uleb128 0x19
	.uleb128 0x1
	.uleb128 0x13
	.byte	0
	.byte	0
	.uleb128 0x46
	.uleb128 0x15
	.byte	0x1
	.uleb128 0x27
	.uleb128 0x19
	.uleb128 0x49
	.uleb128 0x13
	.uleb128 0x1
	.uleb128 0x13
	.byte	0
	.byte	0
	.uleb128 0x47
	.uleb128 0x2e
	.byte	0x1
	.uleb128 0x3f
	.uleb128 0x19
	.uleb128 0x3
	.uleb128 0xe
	.uleb128 0x3a
	.uleb128 0xb
	.uleb128 0x3b
	.uleb128 0x5
	.uleb128 0x39
	.uleb128 0xb
	.uleb128 0x27
	.uleb128 0x19
	.uleb128 0x49
	.uleb128 0x13
	.uleb128 0x55
	.uleb128 0x17
	.uleb128 0x40
	.uleb128 0x18
	.uleb128 0x7a
	.uleb128 0x19
	.uleb128 0x1
	.uleb128 0x13
	.byte	0
	.byte	0
	.uleb128 0x48
	.uleb128 0x2e
	.byte	0x1
	.uleb128 0x3
	.uleb128 0xe
	.uleb128 0x3a
	.uleb128 0xb
	.uleb128 0x3b
	.uleb128 0x5
	.uleb128 0x39
	.uleb128 0xb
	.uleb128 0x27
	.uleb128 0x19
	.uleb128 0x49
	.uleb128 0x13
	.uleb128 0x11
	.uleb128 0x1
	.uleb128 0x12
	.uleb128 0x7
	.uleb128 0x40
	.uleb128 0x18
	.uleb128 0x7a
	.uleb128 0x19
	.uleb128 0x1
	.uleb128 0x13
	.byte	0
	.byte	0
	.uleb128 0x49
	.uleb128 0x5
	.byte	0
	.uleb128 0x3
	.uleb128 0x8
	.uleb128 0x3a
	.uleb128 0xb
	.uleb128 0x3b
	.uleb128 0x5
	.uleb128 0x39
	.uleb128 0xb
	.uleb128 0x49
	.uleb128 0x13
	.uleb128 0x2
	.uleb128 0x17
	.uleb128 0x2137
	.uleb128 0x17
	.byte	0
	.byte	0
	.uleb128 0x4a
	.uleb128 0x34
	.byte	0
	.uleb128 0x3
	.uleb128 0x8
	.uleb128 0x3a
	.uleb128 0xb
	.uleb128 0x3b
	.uleb128 0x5
	.uleb128 0x39
	.uleb128 0xb
	.uleb128 0x49
	.uleb128 0x13
	.byte	0
	.byte	0
	.uleb128 0x4b
	.uleb128 0xa
	.byte	0
	.uleb128 0x3
	.uleb128 0xe
	.uleb128 0x3a
	.uleb128 0xb
	.uleb128 0x3b
	.uleb128 0x5
	.uleb128 0x39
	.uleb128 0xb
	.uleb128 0x11
	.uleb128 0x1
	.byte	0
	.byte	0
	.uleb128 0x4c
	.uleb128 0x2e
	.byte	0x1
	.uleb128 0x3
	.uleb128 0xe
	.uleb128 0x3a
	.uleb128 0xb
	.uleb128 0x3b
	.uleb128 0xb
	.uleb128 0x39
	.uleb128 0xb
	.uleb128 0x27
	.uleb128 0x19
	.uleb128 0x11
	.uleb128 0x1
	.uleb128 0x12
	.uleb128 0x7
	.uleb128 0x40
	.uleb128 0x18
	.uleb128 0x7a
	.uleb128 0x19
	.uleb128 0x1
	.uleb128 0x13
	.byte	0
	.byte	0
	.uleb128 0x4d
	.uleb128 0x5
	.byte	0
	.uleb128 0x3
	.uleb128 0x8
	.uleb128 0x3a
	.uleb128 0xb
	.uleb128 0x3b
	.uleb128 0xb
	.uleb128 0x39
	.uleb128 0xb
	.uleb128 0x49
	.uleb128 0x13
	.uleb128 0x2
	.uleb128 0x17
	.uleb128 0x2137
	.uleb128 0x17
	.byte	0
	.byte	0
	.uleb128 0x4e
	.uleb128 0x2e
	.byte	0x1
	.uleb128 0x3
	.uleb128 0xe
	.uleb128 0x3a
	.uleb128 0xb
	.uleb128 0x3b
	.uleb128 0xb
	.uleb128 0x39
	.uleb128 0xb
	.uleb128 0x27
	.uleb128 0x19
	.uleb128 0x49
	.uleb128 0x13
	.uleb128 0x20
	.uleb128 0xb
	.uleb128 0x1
	.uleb128 0x13
	.byte	0
	.byte	0
	.uleb128 0x4f
	.uleb128 0x2e
	.byte	0x1
	.uleb128 0x3f
	.uleb128 0x19
	.uleb128 0x3
	.uleb128 0xe
	.uleb128 0x3a
	.uleb128 0xb
	.uleb128 0x3b
	.uleb128 0x5
	.uleb128 0x39
	.uleb128 0xb
	.uleb128 0x27
	.uleb128 0x19
	.uleb128 0x49
	.uleb128 0x13
	.uleb128 0x20
	.uleb128 0xb
	.uleb128 0x1
	.uleb128 0x13
	.byte	0
	.byte	0
	.uleb128 0x50
	.uleb128 0x5
	.byte	0
	.uleb128 0x3
	.uleb128 0xe
	.uleb128 0x3a
	.uleb128 0xb
	.uleb128 0x3b
	.uleb128 0x5
	.uleb128 0x39
	.uleb128 0xb
	.uleb128 0x49
	.uleb128 0x13
	.byte	0
	.byte	0
	.uleb128 0x51
	.uleb128 0x2e
	.byte	0
	.uleb128 0x3f
	.uleb128 0x19
	.uleb128 0x3c
	.uleb128 0x19
	.uleb128 0x6e
	.uleb128 0xe
	.uleb128 0x3
	.uleb128 0xe
	.byte	0
	.byte	0
	.byte	0
	.section	.debug_loclists,"",@progbits
	.long	.Ldebug_loc3-.Ldebug_loc2
.Ldebug_loc2:
	.value	0x5
	.byte	0x8
	.byte	0
	.long	0
.Ldebug_loc0:
.LVUS126:
	.uleb128 0
	.uleb128 .LVU619
	.uleb128 .LVU619
	.uleb128 0
	.uleb128 0
	.uleb128 0
.LLST126:
	.byte	0x6
	.quad	.LVL213
	.byte	0x4
	.uleb128 .LVL213-.LVL213
	.uleb128 .LVL216-.LVL213
	.uleb128 0x1
	.byte	0x55
	.byte	0x4
	.uleb128 .LVL216-.LVL213
	.uleb128 .LHOTE7-.LVL213
	.uleb128 0x4
	.byte	0xa3
	.uleb128 0x1
	.byte	0x55
	.byte	0x9f
	.byte	0x8
	.quad	.LFSB85
	.uleb128 .LCOLDE7-.LFSB85
	.uleb128 0x4
	.byte	0xa3
	.uleb128 0x1
	.byte	0x55
	.byte	0x9f
	.byte	0
.LVUS127:
	.uleb128 0
	.uleb128 .LVU620
	.uleb128 .LVU620
	.uleb128 0
	.uleb128 0
	.uleb128 0
.LLST127:
	.byte	0x6
	.quad	.LVL213
	.byte	0x4
	.uleb128 .LVL213-.LVL213
	.uleb128 .LVL217-.LVL213
	.uleb128 0x1
	.byte	0x54
	.byte	0x4
	.uleb128 .LVL217-.LVL213
	.uleb128 .LHOTE7-.LVL213
	.uleb128 0x4
	.byte	0xa3
	.uleb128 0x1
	.byte	0x54
	.byte	0x9f
	.byte	0x8
	.quad	.LFSB85
	.uleb128 .LCOLDE7-.LFSB85
	.uleb128 0x4
	.byte	0xa3
	.uleb128 0x1
	.byte	0x54
	.byte	0x9f
	.byte	0
.LVUS128:
	.uleb128 .LVU613
	.uleb128 .LVU623
	.uleb128 .LVU623
	.uleb128 .LVU635
	.uleb128 .LVU664
	.uleb128 0
	.uleb128 0
	.uleb128 .LVU668
	.uleb128 .LVU670
	.uleb128 0
.LLST128:
	.byte	0x6
	.quad	.LVL214
	.byte	0x4
	.uleb128 .LVL214-.LVL214
	.uleb128 .LVL219-.LVL214
	.uleb128 0x4
	.byte	0xa
	.value	0x1ae1
	.byte	0x9f
	.byte	0x4
	.uleb128 .LVL219-.LVL214
	.uleb128 .LVL227-.LVL214
	.uleb128 0x1
	.byte	0x53
	.byte	0x4
	.uleb128 .LVL237-.LVL214
	.uleb128 .LHOTE7-.LVL214
	.uleb128 0x1
	.byte	0x53
	.byte	0x6
	.quad	.LFSB85
	.byte	0x4
	.uleb128 .LFSB85-.LFSB85
	.uleb128 .LVL239-.LFSB85
	.uleb128 0x1
	.byte	0x53
	.byte	0x4
	.uleb128 .LVL241-.LFSB85
	.uleb128 .LFE85-.LFSB85
	.uleb128 0x1
	.byte	0x53
	.byte	0
.LVUS129:
	.uleb128 .LVU627
	.uleb128 .LVU633
	.uleb128 .LVU633
	.uleb128 .LVU664
	.uleb128 .LVU664
	.uleb128 0
	.uleb128 0
	.uleb128 .LVU666
	.uleb128 .LVU666
	.uleb128 .LVU669
	.uleb128 .LVU670
	.uleb128 0
.LLST129:
	.byte	0x6
	.quad	.LVL223
	.byte	0x4
	.uleb128 .LVL223-.LVL223
	.uleb128 .LVL225-.LVL223
	.uleb128 0x1
	.byte	0x50
	.byte	0x4
	.uleb128 .LVL225-.LVL223
	.uleb128 .LVL237-.LVL223
	.uleb128 0x1
	.byte	0x56
	.byte	0x4
	.uleb128 .LVL237-.LVL223
	.uleb128 .LHOTE7-.LVL223
	.uleb128 0x1
	.byte	0x50
	.byte	0x6
	.quad	.LFSB85
	.byte	0x4
	.uleb128 .LFSB85-.LFSB85
	.uleb128 .LVL238-1-.LFSB85
	.uleb128 0x1
	.byte	0x50
	.byte	0x4
	.uleb128 .LVL238-1-.LFSB85
	.uleb128 .LVL240-.LFSB85
	.uleb128 0x1
	.byte	0x56
	.byte	0x4
	.uleb128 .LVL241-.LFSB85
	.uleb128 .LFE85-.LFSB85
	.uleb128 0x1
	.byte	0x56
	.byte	0
.LVUS133:
	.uleb128 .LVU641
	.uleb128 .LVU645
	.uleb128 .LVU645
	.uleb128 .LVU664
.LLST133:
	.byte	0x6
	.quad	.LVL229
	.byte	0x4
	.uleb128 .LVL229-.LVL229
	.uleb128 .LVL230-1-.LVL229
	.uleb128 0x1
	.byte	0x50
	.byte	0x4
	.uleb128 .LVL230-1-.LVL229
	.uleb128 .LVL237-.LVL229
	.uleb128 0x1
	.byte	0x53
	.byte	0
.LVUS134:
	.uleb128 .LVU647
	.uleb128 .LVU651
	.uleb128 .LVU651
	.uleb128 .LVU664
.LLST134:
	.byte	0x6
	.quad	.LVL231
	.byte	0x4
	.uleb128 .LVL231-.LVL231
	.uleb128 .LVL232-.LVL231
	.uleb128 0x1
	.byte	0x50
	.byte	0x4
	.uleb128 .LVL232-.LVL231
	.uleb128 .LVL237-.LVL231
	.uleb128 0x1
	.byte	0x5e
	.byte	0
.LVUS130:
	.uleb128 .LVU616
	.uleb128 .LVU620
	.uleb128 .LVU620
	.uleb128 .LVU621
.LLST130:
	.byte	0x6
	.quad	.LVL215
	.byte	0x4
	.uleb128 .LVL215-.LVL215
	.uleb128 .LVL217-.LVL215
	.uleb128 0x2
	.byte	0x74
	.sleb128 8
	.byte	0x4
	.uleb128 .LVL217-.LVL215
	.uleb128 .LVL218-1-.LVL215
	.uleb128 0x1
	.byte	0x55
	.byte	0
.LVUS131:
	.uleb128 .LVU630
	.uleb128 .LVU634
.LLST131:
	.byte	0x8
	.quad	.LVL224
	.uleb128 .LVL226-.LVL224
	.uleb128 0xa
	.byte	0x3
	.quad	.LC6
	.byte	0x9f
	.byte	0
.LVUS41:
	.uleb128 0
	.uleb128 .LVU187
	.uleb128 .LVU187
	.uleb128 0
.LLST41:
	.byte	0x6
	.quad	.LVL47
	.byte	0x4
	.uleb128 .LVL47-.LVL47
	.uleb128 .LVL49-.LVL47
	.uleb128 0x1
	.byte	0x55
	.byte	0x4
	.uleb128 .LVL49-.LVL47
	.uleb128 .LFE84-.LVL47
	.uleb128 0x3
	.byte	0x91
	.sleb128 -208
	.byte	0
.LVUS42:
	.uleb128 .LVU183
	.uleb128 .LVU187
.LLST42:
	.byte	0x8
	.quad	.LVL48
	.uleb128 .LVL49-.LVL48
	.uleb128 0x1
	.byte	0x5c
	.byte	0
.LVUS43:
	.uleb128 .LVU185
	.uleb128 .LVU187
	.uleb128 .LVU187
	.uleb128 .LVU433
	.uleb128 .LVU434
	.uleb128 .LVU493
	.uleb128 .LVU494
	.uleb128 0
.LLST43:
	.byte	0x6
	.quad	.LVL48
	.byte	0x4
	.uleb128 .LVL48-.LVL48
	.uleb128 .LVL49-.LVL48
	.uleb128 0x2
	.byte	0x30
	.byte	0x9f
	.byte	0x4
	.uleb128 .LVL49-.LVL48
	.uleb128 .LVL150-.LVL48
	.uleb128 0x3
	.byte	0x91
	.sleb128 -200
	.byte	0x4
	.uleb128 .LVL151-.LVL48
	.uleb128 .LVL170-.LVL48
	.uleb128 0x3
	.byte	0x91
	.sleb128 -200
	.byte	0x4
	.uleb128 .LVL171-.LVL48
	.uleb128 .LFE84-.LVL48
	.uleb128 0x3
	.byte	0x91
	.sleb128 -200
	.byte	0
.LVUS44:
	.uleb128 .LVU186
	.uleb128 .LVU187
	.uleb128 .LVU187
	.uleb128 .LVU220
	.uleb128 .LVU221
	.uleb128 .LVU478
	.uleb128 .LVU481
	.uleb128 .LVU484
	.uleb128 .LVU484
	.uleb128 .LVU607
.LLST44:
	.byte	0x6
	.quad	.LVL48
	.byte	0x4
	.uleb128 .LVL48-.LVL48
	.uleb128 .LVL49-.LVL48
	.uleb128 0x2
	.byte	0x30
	.byte	0x9f
	.byte	0x4
	.uleb128 .LVL49-.LVL48
	.uleb128 .LVL57-.LVL48
	.uleb128 0x3
	.byte	0x91
	.sleb128 -194
	.byte	0x4
	.uleb128 .LVL58-.LVL48
	.uleb128 .LVL164-.LVL48
	.uleb128 0x3
	.byte	0x91
	.sleb128 -194
	.byte	0x4
	.uleb128 .LVL165-.LVL48
	.uleb128 .LVL166-1-.LVL48
	.uleb128 0x1
	.byte	0x50
	.byte	0x4
	.uleb128 .LVL166-1-.LVL48
	.uleb128 .LVL211-.LVL48
	.uleb128 0x3
	.byte	0x91
	.sleb128 -194
	.byte	0
.LVUS47:
	.uleb128 .LVU200
	.uleb128 .LVU205
.LLST47:
	.byte	0x8
	.quad	.LVL51
	.uleb128 .LVL52-.LVL51
	.uleb128 0xa
	.byte	0x3
	.quad	.LC3
	.byte	0x9f
	.byte	0
.LVUS49:
	.uleb128 .LVU222
	.uleb128 .LVU232
.LLST49:
	.byte	0x8
	.quad	.LVL59
	.uleb128 .LVL61-1-.LVL59
	.uleb128 0x4
	.byte	0x91
	.sleb128 -224
	.byte	0x6
	.byte	0
.LVUS50:
	.uleb128 .LVU222
	.uleb128 .LVU232
.LLST50:
	.byte	0x8
	.quad	.LVL59
	.uleb128 .LVL61-1-.LVL59
	.uleb128 0x1
	.byte	0x50
	.byte	0
.LVUS51:
	.uleb128 .LVU229
	.uleb128 .LVU232
.LLST51:
	.byte	0x8
	.quad	.LVL60
	.uleb128 .LVL61-1-.LVL60
	.uleb128 0x1
	.byte	0x54
	.byte	0
.LVUS52:
	.uleb128 .LVU254
	.uleb128 .LVU283
	.uleb128 .LVU564
	.uleb128 .LVU568
.LLST52:
	.byte	0x6
	.quad	.LVL69
	.byte	0x4
	.uleb128 .LVL69-.LVL69
	.uleb128 .LVL86-.LVL69
	.uleb128 0x1
	.byte	0x5f
	.byte	0x4
	.uleb128 .LVL199-.LVL69
	.uleb128 .LVL201-.LVL69
	.uleb128 0x1
	.byte	0x5f
	.byte	0
.LVUS53:
	.uleb128 .LVU260
	.uleb128 .LVU262
	.uleb128 .LVU262
	.uleb128 .LVU265
.LLST53:
	.byte	0x6
	.quad	.LVL71
	.byte	0x4
	.uleb128 .LVL71-.LVL71
	.uleb128 .LVL72-.LVL71
	.uleb128 0x13
	.byte	0x7f
	.sleb128 300
	.byte	0x94
	.byte	0x4
	.byte	0xc
	.long	0xffffffff
	.byte	0x1a
	.byte	0x35
	.byte	0x24
	.byte	0x70
	.sleb128 0
	.byte	0x22
	.byte	0x23
	.uleb128 0x33
	.byte	0x9f
	.byte	0x4
	.uleb128 .LVL72-.LVL71
	.uleb128 .LVL73-1-.LVL71
	.uleb128 0x13
	.byte	0x7f
	.sleb128 300
	.byte	0x94
	.byte	0x4
	.byte	0xc
	.long	0xffffffff
	.byte	0x1a
	.byte	0x35
	.byte	0x24
	.byte	0x71
	.sleb128 0
	.byte	0x22
	.byte	0x23
	.uleb128 0x33
	.byte	0x9f
	.byte	0
.LVUS54:
	.uleb128 .LVU268
	.uleb128 .LVU269
	.uleb128 .LVU269
	.uleb128 .LVU283
	.uleb128 .LVU564
	.uleb128 .LVU568
.LLST54:
	.byte	0x6
	.quad	.LVL74
	.byte	0x4
	.uleb128 .LVL74-.LVL74
	.uleb128 .LVL75-1-.LVL74
	.uleb128 0x1
	.byte	0x50
	.byte	0x4
	.uleb128 .LVL75-1-.LVL74
	.uleb128 .LVL86-.LVL74
	.uleb128 0x1
	.byte	0x56
	.byte	0x4
	.uleb128 .LVL199-.LVL74
	.uleb128 .LVL201-.LVL74
	.uleb128 0x1
	.byte	0x56
	.byte	0
.LVUS55:
	.uleb128 .LVU272
	.uleb128 .LVU273
	.uleb128 .LVU273
	.uleb128 .LVU283
	.uleb128 .LVU564
	.uleb128 .LVU568
.LLST55:
	.byte	0x6
	.quad	.LVL77
	.byte	0x4
	.uleb128 .LVL77-.LVL77
	.uleb128 .LVL78-1-.LVL77
	.uleb128 0x1
	.byte	0x50
	.byte	0x4
	.uleb128 .LVL78-1-.LVL77
	.uleb128 .LVL86-.LVL77
	.uleb128 0x3
	.byte	0x91
	.sleb128 -184
	.byte	0x4
	.uleb128 .LVL199-.LVL77
	.uleb128 .LVL201-.LVL77
	.uleb128 0x3
	.byte	0x91
	.sleb128 -184
	.byte	0
.LVUS57:
	.uleb128 .LVU235
	.uleb128 .LVU240
	.uleb128 .LVU247
	.uleb128 .LVU254
.LLST57:
	.byte	0x6
	.quad	.LVL62
	.byte	0x4
	.uleb128 .LVL62-.LVL62
	.uleb128 .LVL64-.LVL62
	.uleb128 0x1
	.byte	0x56
	.byte	0x4
	.uleb128 .LVL67-.LVL62
	.uleb128 .LVL69-.LVL62
	.uleb128 0x1
	.byte	0x56
	.byte	0
.LVUS58:
	.uleb128 .LVU239
	.uleb128 .LVU240
	.uleb128 .LVU247
	.uleb128 .LVU254
.LLST58:
	.byte	0x6
	.quad	.LVL63
	.byte	0x4
	.uleb128 .LVL63-.LVL63
	.uleb128 .LVL64-.LVL63
	.uleb128 0x1
	.byte	0x5f
	.byte	0x4
	.uleb128 .LVL67-.LVL63
	.uleb128 .LVL69-.LVL63
	.uleb128 0x1
	.byte	0x5f
	.byte	0
.LVUS60:
	.uleb128 .LVU285
	.uleb128 .LVU295
.LLST60:
	.byte	0x8
	.quad	.LVL87
	.uleb128 .LVL89-1-.LVL87
	.uleb128 0x4
	.byte	0x91
	.sleb128 -224
	.byte	0x6
	.byte	0
.LVUS61:
	.uleb128 .LVU285
	.uleb128 .LVU295
.LLST61:
	.byte	0x8
	.quad	.LVL87
	.uleb128 .LVL89-1-.LVL87
	.uleb128 0x1
	.byte	0x50
	.byte	0
.LVUS62:
	.uleb128 .LVU292
	.uleb128 .LVU295
.LLST62:
	.byte	0x8
	.quad	.LVL88
	.uleb128 .LVL89-1-.LVL88
	.uleb128 0x1
	.byte	0x54
	.byte	0
.LVUS63:
	.uleb128 .LVU321
	.uleb128 .LVU352
	.uleb128 .LVU596
	.uleb128 .LVU607
.LLST63:
	.byte	0x6
	.quad	.LVL101
	.byte	0x4
	.uleb128 .LVL101-.LVL101
	.uleb128 .LVL111-.LVL101
	.uleb128 0x1
	.byte	0x5f
	.byte	0x4
	.uleb128 .LVL207-.LVL101
	.uleb128 .LVL211-.LVL101
	.uleb128 0x1
	.byte	0x5f
	.byte	0
.LVUS64:
	.uleb128 .LVU303
	.uleb128 .LVU312
	.uleb128 .LVU323
	.uleb128 .LVU330
	.uleb128 .LVU330
	.uleb128 .LVU344
	.uleb128 .LVU344
	.uleb128 .LVU349
	.uleb128 .LVU596
	.uleb128 .LVU607
.LLST64:
	.byte	0x6
	.quad	.LVL92
	.byte	0x4
	.uleb128 .LVL92-.LVL92
	.uleb128 .LVL95-.LVL92
	.uleb128 0x2
	.byte	0x30
	.byte	0x9f
	.byte	0x4
	.uleb128 .LVL101-.LVL92
	.uleb128 .LVL103-.LVL92
	.uleb128 0x2
	.byte	0x30
	.byte	0x9f
	.byte	0x4
	.uleb128 .LVL103-.LVL92
	.uleb128 .LVL108-1-.LVL92
	.uleb128 0x1
	.byte	0x54
	.byte	0x4
	.uleb128 .LVL108-1-.LVL92
	.uleb128 .LVL110-.LVL92
	.uleb128 0x3
	.byte	0x91
	.sleb128 -192
	.byte	0x4
	.uleb128 .LVL207-.LVL92
	.uleb128 .LVL211-.LVL92
	.uleb128 0x2
	.byte	0x30
	.byte	0x9f
	.byte	0
.LVUS65:
	.uleb128 .LVU305
	.uleb128 .LVU312
	.uleb128 .LVU337
	.uleb128 .LVU344
	.uleb128 .LVU344
	.uleb128 .LVU349
	.uleb128 .LVU598
	.uleb128 .LVU607
.LLST65:
	.byte	0x6
	.quad	.LVL92
	.byte	0x4
	.uleb128 .LVL92-.LVL92
	.uleb128 .LVL95-.LVL92
	.uleb128 0x2
	.byte	0x34
	.byte	0x9f
	.byte	0x4
	.uleb128 .LVL106-.LVL92
	.uleb128 .LVL108-1-.LVL92
	.uleb128 0xd
	.byte	0x74
	.sleb128 0
	.byte	0xc
	.long	0xffffffff
	.byte	0x1a
	.byte	0x46
	.byte	0x1e
	.byte	0x23
	.uleb128 0x4
	.byte	0x9f
	.byte	0x4
	.uleb128 .LVL108-1-.LVL92
	.uleb128 .LVL110-.LVL92
	.uleb128 0x10
	.byte	0x91
	.sleb128 -192
	.byte	0x94
	.byte	0x4
	.byte	0xc
	.long	0xffffffff
	.byte	0x1a
	.byte	0x46
	.byte	0x1e
	.byte	0x23
	.uleb128 0x4
	.byte	0x9f
	.byte	0x4
	.uleb128 .LVL207-.LVL92
	.uleb128 .LVL211-.LVL92
	.uleb128 0x2
	.byte	0x34
	.byte	0x9f
	.byte	0
.LVUS66:
	.uleb128 .LVU310
	.uleb128 .LVU311
	.uleb128 .LVU311
	.uleb128 .LVU315
	.uleb128 .LVU347
	.uleb128 .LVU348
	.uleb128 .LVU348
	.uleb128 .LVU358
	.uleb128 .LVU605
	.uleb128 .LVU606
	.uleb128 .LVU606
	.uleb128 .LVU607
.LLST66:
	.byte	0x6
	.quad	.LVL94
	.byte	0x4
	.uleb128 .LVL94-.LVL94
	.uleb128 .LVL95-1-.LVL94
	.uleb128 0x1
	.byte	0x50
	.byte	0x4
	.uleb128 .LVL95-1-.LVL94
	.uleb128 .LVL99-.LVL94
	.uleb128 0x1
	.byte	0x56
	.byte	0x4
	.uleb128 .LVL109-.LVL94
	.uleb128 .LVL110-1-.LVL94
	.uleb128 0x1
	.byte	0x50
	.byte	0x4
	.uleb128 .LVL110-1-.LVL94
	.uleb128 .LVL116-.LVL94
	.uleb128 0x1
	.byte	0x56
	.byte	0x4
	.uleb128 .LVL209-.LVL94
	.uleb128 .LVL210-1-.LVL94
	.uleb128 0x1
	.byte	0x50
	.byte	0x4
	.uleb128 .LVL210-1-.LVL94
	.uleb128 .LVL211-.LVL94
	.uleb128 0x1
	.byte	0x56
	.byte	0
.LVUS68:
	.uleb128 .LVU298
	.uleb128 .LVU303
	.uleb128 .LVU315
	.uleb128 .LVU321
.LLST68:
	.byte	0x6
	.quad	.LVL90
	.byte	0x4
	.uleb128 .LVL90-.LVL90
	.uleb128 .LVL92-.LVL90
	.uleb128 0x1
	.byte	0x56
	.byte	0x4
	.uleb128 .LVL99-.LVL90
	.uleb128 .LVL101-.LVL90
	.uleb128 0x1
	.byte	0x56
	.byte	0
.LVUS69:
	.uleb128 .LVU302
	.uleb128 .LVU303
	.uleb128 .LVU315
	.uleb128 .LVU321
.LLST69:
	.byte	0x6
	.quad	.LVL91
	.byte	0x4
	.uleb128 .LVL91-.LVL91
	.uleb128 .LVL92-.LVL91
	.uleb128 0x1
	.byte	0x5f
	.byte	0x4
	.uleb128 .LVL99-.LVL91
	.uleb128 .LVL101-.LVL91
	.uleb128 0x1
	.byte	0x5f
	.byte	0
.LVUS71:
	.uleb128 .LVU327
	.uleb128 .LVU332
	.uleb128 .LVU334
	.uleb128 .LVU339
	.uleb128 .LVU596
	.uleb128 .LVU602
.LLST71:
	.byte	0x6
	.quad	.LVL102
	.byte	0x4
	.uleb128 .LVL102-.LVL102
	.uleb128 .LVL104-.LVL102
	.uleb128 0x1
	.byte	0x50
	.byte	0x4
	.uleb128 .LVL105-.LVL102
	.uleb128 .LVL107-.LVL102
	.uleb128 0x1
	.byte	0x50
	.byte	0x4
	.uleb128 .LVL207-.LVL102
	.uleb128 .LVL208-1-.LVL102
	.uleb128 0x1
	.byte	0x50
	.byte	0
.LVUS72:
	.uleb128 .LVU352
	.uleb128 .LVU358
.LLST72:
	.byte	0x8
	.quad	.LVL111
	.uleb128 .LVL116-.LVL111
	.uleb128 0x1
	.byte	0x5f
	.byte	0
.LVUS73:
	.uleb128 .LVU570
	.uleb128 .LVU578
.LLST73:
	.byte	0x8
	.quad	.LVL201
	.uleb128 .LVL204-.LVL201
	.uleb128 0x2
	.byte	0x30
	.byte	0x9f
	.byte	0
.LVUS75:
	.uleb128 .LVU366
	.uleb128 .LVU371
	.uleb128 .LVU371
	.uleb128 .LVU380
.LLST75:
	.byte	0x6
	.quad	.LVL117
	.byte	0x4
	.uleb128 .LVL117-.LVL117
	.uleb128 .LVL119-.LVL117
	.uleb128 0x2
	.byte	0x30
	.byte	0x9f
	.byte	0x4
	.uleb128 .LVL119-.LVL117
	.uleb128 .LVL124-.LVL117
	.uleb128 0x1
	.byte	0x56
	.byte	0
.LVUS76:
	.uleb128 .LVU367
	.uleb128 .LVU371
	.uleb128 .LVU371
	.uleb128 .LVU380
.LLST76:
	.byte	0x6
	.quad	.LVL117
	.byte	0x4
	.uleb128 .LVL117-.LVL117
	.uleb128 .LVL119-.LVL117
	.uleb128 0x2
	.byte	0x34
	.byte	0x9f
	.byte	0x4
	.uleb128 .LVL119-.LVL117
	.uleb128 .LVL124-.LVL117
	.uleb128 0x1
	.byte	0x5f
	.byte	0
.LVUS77:
	.uleb128 .LVU388
	.uleb128 .LVU389
	.uleb128 .LVU389
	.uleb128 .LVU426
.LLST77:
	.byte	0x6
	.quad	.LVL127
	.byte	0x4
	.uleb128 .LVL127-.LVL127
	.uleb128 .LVL128-1-.LVL127
	.uleb128 0x1
	.byte	0x50
	.byte	0x4
	.uleb128 .LVL128-1-.LVL127
	.uleb128 .LVL148-.LVL127
	.uleb128 0x1
	.byte	0x5f
	.byte	0
.LVUS78:
	.uleb128 .LVU370
	.uleb128 .LVU377
	.uleb128 .LVU379
	.uleb128 .LVU384
.LLST78:
	.byte	0x6
	.quad	.LVL118
	.byte	0x4
	.uleb128 .LVL118-.LVL118
	.uleb128 .LVL122-.LVL118
	.uleb128 0x1
	.byte	0x53
	.byte	0x4
	.uleb128 .LVL123-.LVL118
	.uleb128 .LVL125-.LVL118
	.uleb128 0x1
	.byte	0x53
	.byte	0
.LVUS79:
	.uleb128 .LVU392
	.uleb128 .LVU426
.LLST79:
	.byte	0x8
	.quad	.LVL129
	.uleb128 .LVL148-.LVL129
	.uleb128 0x1
	.byte	0x56
	.byte	0
.LVUS80:
	.uleb128 .LVU400
	.uleb128 .LVU401
.LLST80:
	.byte	0x8
	.quad	.LVL132
	.uleb128 .LVL133-1-.LVL132
	.uleb128 0x1
	.byte	0x50
	.byte	0
.LVUS81:
	.uleb128 .LVU406
	.uleb128 .LVU412
	.uleb128 .LVU412
	.uleb128 .LVU417
.LLST81:
	.byte	0x6
	.quad	.LVL137
	.byte	0x4
	.uleb128 .LVL137-.LVL137
	.uleb128 .LVL139-.LVL137
	.uleb128 0x2
	.byte	0x30
	.byte	0x9f
	.byte	0x4
	.uleb128 .LVL139-.LVL137
	.uleb128 .LVL142-.LVL137
	.uleb128 0x1
	.byte	0x54
	.byte	0
.LVUS83:
	.uleb128 .LVU409
	.uleb128 .LVU414
	.uleb128 .LVU416
	.uleb128 .LVU419
.LLST83:
	.byte	0x6
	.quad	.LVL138
	.byte	0x4
	.uleb128 .LVL138-.LVL138
	.uleb128 .LVL140-.LVL138
	.uleb128 0x1
	.byte	0x50
	.byte	0x4
	.uleb128 .LVL141-.LVL138
	.uleb128 .LVL143-1-.LVL138
	.uleb128 0x1
	.byte	0x50
	.byte	0
.LVUS85:
	.uleb128 .LVU438
	.uleb128 .LVU494
	.uleb128 .LVU501
	.uleb128 .LVU509
	.uleb128 .LVU578
	.uleb128 .LVU596
.LLST85:
	.byte	0x6
	.quad	.LVL152
	.byte	0x4
	.uleb128 .LVL152-.LVL152
	.uleb128 .LVL171-.LVL152
	.uleb128 0x6
	.byte	0xa0
	.long	.Ldebug_info0+3453
	.sleb128 0
	.byte	0x4
	.uleb128 .LVL174-.LVL152
	.uleb128 .LVL177-.LVL152
	.uleb128 0x6
	.byte	0xa0
	.long	.Ldebug_info0+3453
	.sleb128 0
	.byte	0x4
	.uleb128 .LVL204-.LVL152
	.uleb128 .LVL207-.LVL152
	.uleb128 0x6
	.byte	0xa0
	.long	.Ldebug_info0+3453
	.sleb128 0
	.byte	0
.LVUS86:
	.uleb128 .LVU438
	.uleb128 .LVU494
	.uleb128 .LVU501
	.uleb128 .LVU509
	.uleb128 .LVU578
	.uleb128 .LVU596
.LLST86:
	.byte	0x6
	.quad	.LVL152
	.byte	0x4
	.uleb128 .LVL152-.LVL152
	.uleb128 .LVL171-.LVL152
	.uleb128 0x4
	.byte	0x91
	.sleb128 -128
	.byte	0x9f
	.byte	0x4
	.uleb128 .LVL174-.LVL152
	.uleb128 .LVL177-.LVL152
	.uleb128 0x4
	.byte	0x91
	.sleb128 -128
	.byte	0x9f
	.byte	0x4
	.uleb128 .LVL204-.LVL152
	.uleb128 .LVL207-.LVL152
	.uleb128 0x4
	.byte	0x91
	.sleb128 -128
	.byte	0x9f
	.byte	0
.LVUS87:
	.uleb128 .LVU438
	.uleb128 .LVU494
	.uleb128 .LVU501
	.uleb128 .LVU509
	.uleb128 .LVU578
	.uleb128 .LVU596
.LLST87:
	.byte	0x6
	.quad	.LVL152
	.byte	0x4
	.uleb128 .LVL152-.LVL152
	.uleb128 .LVL171-.LVL152
	.uleb128 0x1
	.byte	0x53
	.byte	0x4
	.uleb128 .LVL174-.LVL152
	.uleb128 .LVL177-.LVL152
	.uleb128 0x1
	.byte	0x53
	.byte	0x4
	.uleb128 .LVL204-.LVL152
	.uleb128 .LVL207-.LVL152
	.uleb128 0x1
	.byte	0x53
	.byte	0
.LVUS88:
	.uleb128 .LVU438
	.uleb128 .LVU447
.LLST88:
	.byte	0x8
	.quad	.LVL152
	.uleb128 .LVL154-1-.LVL152
	.uleb128 0x4
	.byte	0x91
	.sleb128 -224
	.byte	0x6
	.byte	0
.LVUS89:
	.uleb128 .LVU438
	.uleb128 .LVU447
.LLST89:
	.byte	0x8
	.quad	.LVL152
	.uleb128 .LVL154-1-.LVL152
	.uleb128 0x1
	.byte	0x50
	.byte	0
.LVUS90:
	.uleb128 .LVU441
	.uleb128 .LVU451
	.uleb128 .LVU501
	.uleb128 .LVU509
.LLST90:
	.byte	0x6
	.quad	.LVL153
	.byte	0x4
	.uleb128 .LVL153-.LVL153
	.uleb128 .LVL156-.LVL153
	.uleb128 0x1
	.byte	0x5e
	.byte	0x4
	.uleb128 .LVL174-.LVL153
	.uleb128 .LVL177-.LVL153
	.uleb128 0x1
	.byte	0x5e
	.byte	0
.LVUS91:
	.uleb128 .LVU453
	.uleb128 .LVU462
	.uleb128 .LVU462
	.uleb128 .LVU470
.LLST91:
	.byte	0x6
	.quad	.LVL157
	.byte	0x4
	.uleb128 .LVL157-.LVL157
	.uleb128 .LVL161-.LVL157
	.uleb128 0x2
	.byte	0x30
	.byte	0x9f
	.byte	0x4
	.uleb128 .LVL161-.LVL157
	.uleb128 .LVL162-.LVL157
	.uleb128 0x1
	.byte	0x51
	.byte	0
.LVUS92:
	.uleb128 .LVU456
	.uleb128 .LVU458
	.uleb128 .LVU458
	.uleb128 .LVU470
.LLST92:
	.byte	0x6
	.quad	.LVL158
	.byte	0x4
	.uleb128 .LVL158-.LVL158
	.uleb128 .LVL159-.LVL158
	.uleb128 0x1
	.byte	0x5f
	.byte	0x4
	.uleb128 .LVL159-.LVL158
	.uleb128 .LVL162-.LVL158
	.uleb128 0x1
	.byte	0x51
	.byte	0
.LVUS94:
	.uleb128 .LVU581
	.uleb128 .LVU596
.LLST94:
	.byte	0x8
	.quad	.LVL205
	.uleb128 .LVL207-.LVL205
	.uleb128 0x1
	.byte	0x50
	.byte	0
.LVUS96:
	.uleb128 .LVU582
	.uleb128 .LVU591
.LLST96:
	.byte	0x8
	.quad	.LVL205
	.uleb128 .LVL206-.LVL205
	.uleb128 0x2
	.byte	0x40
	.byte	0x9f
	.byte	0
.LVUS97:
	.uleb128 .LVU582
	.uleb128 .LVU591
.LLST97:
	.byte	0x8
	.quad	.LVL205
	.uleb128 .LVL206-.LVL205
	.uleb128 0x1
	.byte	0x56
	.byte	0
.LVUS98:
	.uleb128 .LVU582
	.uleb128 .LVU591
.LLST98:
	.byte	0x8
	.quad	.LVL205
	.uleb128 .LVL206-.LVL205
	.uleb128 0x1
	.byte	0x50
	.byte	0
.LVUS100:
	.uleb128 .LVU472
	.uleb128 .LVU479
.LLST100:
	.byte	0x8
	.quad	.LVL163
	.uleb128 .LVL165-.LVL163
	.uleb128 0x2
	.byte	0x40
	.byte	0x9f
	.byte	0
.LVUS101:
	.uleb128 .LVU472
	.uleb128 .LVU479
.LLST101:
	.byte	0x8
	.quad	.LVL163
	.uleb128 .LVL165-.LVL163
	.uleb128 0x1
	.byte	0x56
	.byte	0
.LVUS102:
	.uleb128 .LVU472
	.uleb128 .LVU479
.LLST102:
	.byte	0x8
	.quad	.LVL163
	.uleb128 .LVL165-.LVL163
	.uleb128 0x4
	.byte	0x91
	.sleb128 -128
	.byte	0x9f
	.byte	0
.LVUS104:
	.uleb128 .LVU482
	.uleb128 .LVU484
	.uleb128 .LVU484
	.uleb128 .LVU484
.LLST104:
	.byte	0x6
	.quad	.LVL165
	.byte	0x4
	.uleb128 .LVL165-.LVL165
	.uleb128 .LVL166-1-.LVL165
	.uleb128 0x2
	.byte	0x71
	.sleb128 0
	.byte	0x4
	.uleb128 .LVL166-1-.LVL165
	.uleb128 .LVL166-.LVL165
	.uleb128 0x2
	.byte	0x30
	.byte	0x9f
	.byte	0
.LVUS105:
	.uleb128 .LVU482
	.uleb128 .LVU484
.LLST105:
	.byte	0x8
	.quad	.LVL165
	.uleb128 .LVL166-.LVL165
	.uleb128 0x2
	.byte	0x32
	.byte	0x9f
	.byte	0
.LVUS106:
	.uleb128 .LVU482
	.uleb128 .LVU484
	.uleb128 .LVU484
	.uleb128 .LVU484
.LLST106:
	.byte	0x6
	.quad	.LVL165
	.byte	0x4
	.uleb128 .LVL165-.LVL165
	.uleb128 .LVL166-1-.LVL165
	.uleb128 0x1
	.byte	0x55
	.byte	0x4
	.uleb128 .LVL166-1-.LVL165
	.uleb128 .LVL166-.LVL165
	.uleb128 0x1
	.byte	0x5c
	.byte	0
.LVUS108:
	.uleb128 .LVU488
	.uleb128 .LVU491
.LLST108:
	.byte	0x8
	.quad	.LVL168
	.uleb128 .LVL169-.LVL168
	.uleb128 0xa
	.byte	0x3
	.quad	.LC2
	.byte	0x9f
	.byte	0
.LVUS109:
	.uleb128 .LVU488
	.uleb128 .LVU491
.LLST109:
	.byte	0x8
	.quad	.LVL168
	.uleb128 .LVL169-1-.LVL168
	.uleb128 0x1
	.byte	0x55
	.byte	0
.LVUS110:
	.uleb128 .LVU504
	.uleb128 .LVU507
	.uleb128 .LVU507
	.uleb128 .LVU507
.LLST110:
	.byte	0x6
	.quad	.LVL175
	.byte	0x4
	.uleb128 .LVL175-.LVL175
	.uleb128 .LVL176-1-.LVL175
	.uleb128 0x2
	.byte	0x71
	.sleb128 0
	.byte	0x4
	.uleb128 .LVL176-1-.LVL175
	.uleb128 .LVL176-.LVL175
	.uleb128 0x2
	.byte	0x31
	.byte	0x9f
	.byte	0
.LVUS111:
	.uleb128 .LVU503
	.uleb128 .LVU507
.LLST111:
	.byte	0x8
	.quad	.LVL174
	.uleb128 .LVL176-.LVL174
	.uleb128 0x2
	.byte	0x32
	.byte	0x9f
	.byte	0
.LVUS112:
	.uleb128 .LVU503
	.uleb128 .LVU507
.LLST112:
	.byte	0x8
	.quad	.LVL174
	.uleb128 .LVL176-.LVL174
	.uleb128 0x1
	.byte	0x5c
	.byte	0
.LVUS113:
	.uleb128 .LVU497
	.uleb128 .LVU500
	.uleb128 .LVU500
	.uleb128 .LVU500
.LLST113:
	.byte	0x6
	.quad	.LVL172
	.byte	0x4
	.uleb128 .LVL172-.LVL172
	.uleb128 .LVL173-1-.LVL172
	.uleb128 0x2
	.byte	0x71
	.sleb128 0
	.byte	0x4
	.uleb128 .LVL173-1-.LVL172
	.uleb128 .LVL173-.LVL172
	.uleb128 0x2
	.byte	0x31
	.byte	0x9f
	.byte	0
.LVUS114:
	.uleb128 .LVU496
	.uleb128 .LVU500
.LLST114:
	.byte	0x8
	.quad	.LVL171
	.uleb128 .LVL173-.LVL171
	.uleb128 0x2
	.byte	0x34
	.byte	0x9f
	.byte	0
.LVUS115:
	.uleb128 .LVU496
	.uleb128 .LVU500
.LLST115:
	.byte	0x8
	.quad	.LVL171
	.uleb128 .LVL173-.LVL171
	.uleb128 0x1
	.byte	0x5c
	.byte	0
.LVUS116:
	.uleb128 .LVU512
	.uleb128 .LVU522
	.uleb128 .LVU522
	.uleb128 .LVU539
	.uleb128 .LVU539
	.uleb128 .LVU542
	.uleb128 .LVU542
	.uleb128 .LVU555
.LLST116:
	.byte	0x6
	.quad	.LVL178
	.byte	0x4
	.uleb128 .LVL178-.LVL178
	.uleb128 .LVL181-.LVL178
	.uleb128 0x4
	.byte	0x91
	.sleb128 -128
	.byte	0x9f
	.byte	0x4
	.uleb128 .LVL181-.LVL178
	.uleb128 .LVL187-.LVL178
	.uleb128 0x1
	.byte	0x56
	.byte	0x4
	.uleb128 .LVL187-.LVL178
	.uleb128 .LVL188-.LVL178
	.uleb128 0x4
	.byte	0x91
	.sleb128 -128
	.byte	0x9f
	.byte	0x4
	.uleb128 .LVL188-.LVL178
	.uleb128 .LVL194-.LVL178
	.uleb128 0x1
	.byte	0x56
	.byte	0
.LVUS117:
	.uleb128 .LVU539
	.uleb128 .LVU543
	.uleb128 .LVU543
	.uleb128 .LVU555
.LLST117:
	.byte	0x6
	.quad	.LVL187
	.byte	0x4
	.uleb128 .LVL187-.LVL187
	.uleb128 .LVL189-.LVL187
	.uleb128 0xa
	.byte	0x3
	.quad	peers
	.byte	0x9f
	.byte	0x4
	.uleb128 .LVL189-.LVL187
	.uleb128 .LVL194-.LVL187
	.uleb128 0x1
	.byte	0x5d
	.byte	0
.LVUS118:
	.uleb128 .LVU516
	.uleb128 .LVU555
.LLST118:
	.byte	0x8
	.quad	.LVL179
	.uleb128 .LVL194-.LVL179
	.uleb128 0x1
	.byte	0x5e
	.byte	0
.LVUS119:
	.uleb128 .LVU520
	.uleb128 .LVU539
.LLST119:
	.byte	0x8
	.quad	.LVL180
	.uleb128 .LVL187-.LVL180
	.uleb128 0x1
	.byte	0x5d
	.byte	0
.LVUS120:
	.uleb128 .LVU531
	.uleb128 .LVU534
.LLST120:
	.byte	0x8
	.quad	.LVL183
	.uleb128 .LVL184-1-.LVL183
	.uleb128 0x1
	.byte	0x55
	.byte	0
.LVUS121:
	.uleb128 .LVU550
	.uleb128 .LVU553
.LLST121:
	.byte	0x8
	.quad	.LVL192
	.uleb128 .LVL193-1-.LVL192
	.uleb128 0x1
	.byte	0x55
	.byte	0
.LVUS123:
	.uleb128 .LVU560
	.uleb128 .LVU563
.LLST123:
	.byte	0x8
	.quad	.LVL197
	.uleb128 .LVL198-.LVL197
	.uleb128 0xa
	.byte	0x3
	.quad	.LC4
	.byte	0x9f
	.byte	0
.LVUS124:
	.uleb128 .LVU560
	.uleb128 .LVU563
.LLST124:
	.byte	0x8
	.quad	.LVL197
	.uleb128 .LVL198-1-.LVL197
	.uleb128 0x1
	.byte	0x55
	.byte	0
.LVUS0:
	.uleb128 0
	.uleb128 .LVU12
	.uleb128 .LVU12
	.uleb128 .LVU37
	.uleb128 .LVU37
	.uleb128 .LVU40
	.uleb128 .LVU40
	.uleb128 0
.LLST0:
	.byte	0x6
	.quad	.LVL0
	.byte	0x4
	.uleb128 .LVL0-.LVL0
	.uleb128 .LVL3-.LVL0
	.uleb128 0x1
	.byte	0x55
	.byte	0x4
	.uleb128 .LVL3-.LVL0
	.uleb128 .LVL11-.LVL0
	.uleb128 0x1
	.byte	0x56
	.byte	0x4
	.uleb128 .LVL11-.LVL0
	.uleb128 .LVL14-.LVL0
	.uleb128 0x4
	.byte	0xa3
	.uleb128 0x1
	.byte	0x55
	.byte	0x9f
	.byte	0x4
	.uleb128 .LVL14-.LVL0
	.uleb128 .LFE80-.LVL0
	.uleb128 0x1
	.byte	0x56
	.byte	0
.LVUS1:
	.uleb128 0
	.uleb128 .LVU19
	.uleb128 .LVU19
	.uleb128 .LVU24
	.uleb128 .LVU24
	.uleb128 0
.LLST1:
	.byte	0x6
	.quad	.LVL0
	.byte	0x4
	.uleb128 .LVL0-.LVL0
	.uleb128 .LVL5-.LVL0
	.uleb128 0x1
	.byte	0x54
	.byte	0x4
	.uleb128 .LVL5-.LVL0
	.uleb128 .LVL6-1-.LVL0
	.uleb128 0x2
	.byte	0x75
	.sleb128 0
	.byte	0x4
	.uleb128 .LVL6-1-.LVL0
	.uleb128 .LFE80-.LVL0
	.uleb128 0x4
	.byte	0xa3
	.uleb128 0x1
	.byte	0x54
	.byte	0x9f
	.byte	0
.LVUS2:
	.uleb128 0
	.uleb128 .LVU11
	.uleb128 .LVU11
	.uleb128 0
.LLST2:
	.byte	0x6
	.quad	.LVL0
	.byte	0x4
	.uleb128 .LVL0-.LVL0
	.uleb128 .LVL2-.LVL0
	.uleb128 0x1
	.byte	0x51
	.byte	0x4
	.uleb128 .LVL2-.LVL0
	.uleb128 .LFE80-.LVL0
	.uleb128 0x4
	.byte	0xa3
	.uleb128 0x1
	.byte	0x51
	.byte	0x9f
	.byte	0
.LVUS3:
	.uleb128 0
	.uleb128 .LVU6
	.uleb128 .LVU6
	.uleb128 .LVU38
	.uleb128 .LVU38
	.uleb128 .LVU40
	.uleb128 .LVU40
	.uleb128 0
.LLST3:
	.byte	0x6
	.quad	.LVL0
	.byte	0x4
	.uleb128 .LVL0-.LVL0
	.uleb128 .LVL1-.LVL0
	.uleb128 0x1
	.byte	0x52
	.byte	0x4
	.uleb128 .LVL1-.LVL0
	.uleb128 .LVL12-.LVL0
	.uleb128 0x1
	.byte	0x5c
	.byte	0x4
	.uleb128 .LVL12-.LVL0
	.uleb128 .LVL14-.LVL0
	.uleb128 0x4
	.byte	0xa3
	.uleb128 0x1
	.byte	0x52
	.byte	0x9f
	.byte	0x4
	.uleb128 .LVL14-.LVL0
	.uleb128 .LFE80-.LVL0
	.uleb128 0x1
	.byte	0x5c
	.byte	0
.LVUS4:
	.uleb128 0
	.uleb128 .LVU24
	.uleb128 .LVU24
	.uleb128 0
.LLST4:
	.byte	0x6
	.quad	.LVL0
	.byte	0x4
	.uleb128 .LVL0-.LVL0
	.uleb128 .LVL6-1-.LVL0
	.uleb128 0x1
	.byte	0x58
	.byte	0x4
	.uleb128 .LVL6-1-.LVL0
	.uleb128 .LFE80-.LVL0
	.uleb128 0x3
	.byte	0x91
	.sleb128 -508
	.byte	0
.LVUS5:
	.uleb128 0
	.uleb128 .LVU24
	.uleb128 .LVU24
	.uleb128 .LVU39
	.uleb128 .LVU39
	.uleb128 0
.LLST5:
	.byte	0x6
	.quad	.LVL0
	.byte	0x4
	.uleb128 .LVL0-.LVL0
	.uleb128 .LVL6-1-.LVL0
	.uleb128 0x1
	.byte	0x59
	.byte	0x4
	.uleb128 .LVL6-1-.LVL0
	.uleb128 .LVL13-.LVL0
	.uleb128 0x1
	.byte	0x5e
	.byte	0x4
	.uleb128 .LVL13-.LVL0
	.uleb128 .LFE80-.LVL0
	.uleb128 0x4
	.byte	0xa3
	.uleb128 0x1
	.byte	0x59
	.byte	0x9f
	.byte	0
.LVUS6:
	.uleb128 .LVU14
	.uleb128 .LVU29
	.uleb128 .LVU29
	.uleb128 .LVU40
	.uleb128 .LVU40
	.uleb128 .LVU51
	.uleb128 .LVU51
	.uleb128 0
.LLST6:
	.byte	0x6
	.quad	.LVL4
	.byte	0x4
	.uleb128 .LVL4-.LVL4
	.uleb128 .LVL8-.LVL4
	.uleb128 0x1
	.byte	0x53
	.byte	0x4
	.uleb128 .LVL8-.LVL4
	.uleb128 .LVL14-.LVL4
	.uleb128 0xe
	.byte	0xa3
	.uleb128 0x1
	.byte	0x51
	.byte	0xc
	.long	0xffffffff
	.byte	0x1a
	.byte	0xa3
	.uleb128 0x1
	.byte	0x54
	.byte	0x22
	.byte	0x9f
	.byte	0x4
	.uleb128 .LVL14-.LVL4
	.uleb128 .LVL19-.LVL4
	.uleb128 0x1
	.byte	0x53
	.byte	0x4
	.uleb128 .LVL19-.LVL4
	.uleb128 .LFE80-.LVL4
	.uleb128 0xe
	.byte	0xa3
	.uleb128 0x1
	.byte	0x51
	.byte	0xc
	.long	0xffffffff
	.byte	0x1a
	.byte	0xa3
	.uleb128 0x1
	.byte	0x54
	.byte	0x22
	.byte	0x9f
	.byte	0
.LVUS7:
	.uleb128 .LVU68
	.uleb128 .LVU87
	.uleb128 .LVU104
	.uleb128 .LVU107
	.uleb128 .LVU107
	.uleb128 .LVU124
	.uleb128 .LVU124
	.uleb128 .LVU128
	.uleb128 .LVU128
	.uleb128 .LVU139
	.uleb128 .LVU139
	.uleb128 .LVU168
.LLST7:
	.byte	0x6
	.quad	.LVL23
	.byte	0x4
	.uleb128 .LVL23-.LVL23
	.uleb128 .LVL27-.LVL23
	.uleb128 0x1
	.byte	0x58
	.byte	0x4
	.uleb128 .LVL34-.LVL23
	.uleb128 .LVL35-1-.LVL23
	.uleb128 0x1
	.byte	0x58
	.byte	0x4
	.uleb128 .LVL35-1-.LVL23
	.uleb128 .LVL36-.LVL23
	.uleb128 0x3
	.byte	0x91
	.sleb128 -496
	.byte	0x4
	.uleb128 .LVL36-.LVL23
	.uleb128 .LVL37-.LVL23
	.uleb128 0x2
	.byte	0x30
	.byte	0x9f
	.byte	0x4
	.uleb128 .LVL37-.LVL23
	.uleb128 .LVL39-.LVL23
	.uleb128 0x1
	.byte	0x50
	.byte	0x4
	.uleb128 .LVL39-.LVL23
	.uleb128 .LVL45-.LVL23
	.uleb128 0x3
	.byte	0x91
	.sleb128 -496
	.byte	0
.LVUS8:
	.uleb128 .LVU31
	.uleb128 .LVU34
	.uleb128 .LVU34
	.uleb128 .LVU34
.LLST8:
	.byte	0x6
	.quad	.LVL9
	.byte	0x4
	.uleb128 .LVL9-.LVL9
	.uleb128 .LVL10-1-.LVL9
	.uleb128 0x2
	.byte	0x71
	.sleb128 0
	.byte	0x4
	.uleb128 .LVL10-1-.LVL9
	.uleb128 .LVL10-.LVL9
	.uleb128 0x2
	.byte	0x31
	.byte	0x9f
	.byte	0
.LVUS9:
	.uleb128 .LVU30
	.uleb128 .LVU34
.LLST9:
	.byte	0x8
	.quad	.LVL8
	.uleb128 .LVL10-.LVL8
	.uleb128 0x2
	.byte	0x34
	.byte	0x9f
	.byte	0
.LVUS10:
	.uleb128 .LVU30
	.uleb128 .LVU34
.LLST10:
	.byte	0x8
	.quad	.LVL8
	.uleb128 .LVL10-.LVL8
	.uleb128 0x1
	.byte	0x56
	.byte	0
.LVUS11:
	.uleb128 .LVU58
	.uleb128 .LVU68
.LLST11:
	.byte	0x8
	.quad	.LVL20
	.uleb128 .LVL23-.LVL20
	.uleb128 0x1
	.byte	0x5f
	.byte	0
.LVUS12:
	.uleb128 .LVU62
	.uleb128 .LVU68
.LLST12:
	.byte	0x8
	.quad	.LVL21
	.uleb128 .LVL23-.LVL21
	.uleb128 0x1
	.byte	0x58
	.byte	0
.LVUS14:
	.uleb128 .LVU72
	.uleb128 .LVU87
	.uleb128 .LVU104
	.uleb128 .LVU124
.LLST14:
	.byte	0x6
	.quad	.LVL24
	.byte	0x4
	.uleb128 .LVL24-.LVL24
	.uleb128 .LVL27-.LVL24
	.uleb128 0x1
	.byte	0x5e
	.byte	0x4
	.uleb128 .LVL34-.LVL24
	.uleb128 .LVL36-.LVL24
	.uleb128 0x1
	.byte	0x5e
	.byte	0
.LVUS15:
	.uleb128 .LVU72
	.uleb128 .LVU87
	.uleb128 .LVU104
	.uleb128 .LVU124
.LLST15:
	.byte	0x6
	.quad	.LVL24
	.byte	0x4
	.uleb128 .LVL24-.LVL24
	.uleb128 .LVL27-.LVL24
	.uleb128 0x3
	.byte	0x91
	.sleb128 -508
	.byte	0x4
	.uleb128 .LVL34-.LVL24
	.uleb128 .LVL36-.LVL24
	.uleb128 0x3
	.byte	0x91
	.sleb128 -508
	.byte	0
.LVUS16:
	.uleb128 .LVU72
	.uleb128 .LVU87
	.uleb128 .LVU104
	.uleb128 .LVU124
.LLST16:
	.byte	0x6
	.quad	.LVL24
	.byte	0x4
	.uleb128 .LVL24-.LVL24
	.uleb128 .LVL27-.LVL24
	.uleb128 0x1
	.byte	0x5c
	.byte	0x4
	.uleb128 .LVL34-.LVL24
	.uleb128 .LVL36-.LVL24
	.uleb128 0x1
	.byte	0x5c
	.byte	0
.LVUS17:
	.uleb128 .LVU72
	.uleb128 .LVU87
	.uleb128 .LVU104
	.uleb128 .LVU107
	.uleb128 .LVU107
	.uleb128 .LVU124
.LLST17:
	.byte	0x6
	.quad	.LVL24
	.byte	0x4
	.uleb128 .LVL24-.LVL24
	.uleb128 .LVL27-.LVL24
	.uleb128 0x1
	.byte	0x58
	.byte	0x4
	.uleb128 .LVL34-.LVL24
	.uleb128 .LVL35-1-.LVL24
	.uleb128 0x1
	.byte	0x58
	.byte	0x4
	.uleb128 .LVL35-1-.LVL24
	.uleb128 .LVL36-.LVL24
	.uleb128 0x3
	.byte	0x91
	.sleb128 -496
	.byte	0
.LVUS18:
	.uleb128 .LVU107
	.uleb128 .LVU124
.LLST18:
	.byte	0x8
	.quad	.LVL35
	.uleb128 .LVL36-.LVL35
	.uleb128 0x1
	.byte	0x50
	.byte	0
.LVUS20:
	.uleb128 .LVU75
	.uleb128 .LVU77
	.uleb128 .LVU77
	.uleb128 .LVU87
.LLST20:
	.byte	0x6
	.quad	.LVL24
	.byte	0x4
	.uleb128 .LVL24-.LVL24
	.uleb128 .LVL25-.LVL24
	.uleb128 0x1
	.byte	0x59
	.byte	0x4
	.uleb128 .LVL25-.LVL24
	.uleb128 .LVL27-.LVL24
	.uleb128 0x1
	.byte	0x51
	.byte	0
.LVUS22:
	.uleb128 .LVU108
	.uleb128 .LVU110
.LLST22:
	.byte	0x8
	.quad	.LVL35
	.uleb128 .LVL35-.LVL35
	.uleb128 0x2
	.byte	0x40
	.byte	0x9f
	.byte	0
.LVUS23:
	.uleb128 .LVU108
	.uleb128 .LVU110
.LLST23:
	.byte	0x8
	.quad	.LVL35
	.uleb128 .LVL35-.LVL35
	.uleb128 0x1
	.byte	0x5c
	.byte	0
.LVUS24:
	.uleb128 .LVU108
	.uleb128 .LVU110
.LLST24:
	.byte	0x8
	.quad	.LVL35
	.uleb128 .LVL35-.LVL35
	.uleb128 0x1
	.byte	0x50
	.byte	0
.LVUS25:
	.uleb128 .LVU93
	.uleb128 .LVU96
	.uleb128 .LVU96
	.uleb128 .LVU96
.LLST25:
	.byte	0x6
	.quad	.LVL29
	.byte	0x4
	.uleb128 .LVL29-.LVL29
	.uleb128 .LVL30-1-.LVL29
	.uleb128 0x2
	.byte	0x71
	.sleb128 0
	.byte	0x4
	.uleb128 .LVL30-1-.LVL29
	.uleb128 .LVL30-.LVL29
	.uleb128 0x2
	.byte	0x30
	.byte	0x9f
	.byte	0
.LVUS26:
	.uleb128 .LVU92
	.uleb128 .LVU96
.LLST26:
	.byte	0x8
	.quad	.LVL28
	.uleb128 .LVL30-.LVL28
	.uleb128 0x2
	.byte	0x34
	.byte	0x9f
	.byte	0
.LVUS27:
	.uleb128 .LVU92
	.uleb128 .LVU96
.LLST27:
	.byte	0x8
	.quad	.LVL28
	.uleb128 .LVL30-.LVL28
	.uleb128 0x1
	.byte	0x56
	.byte	0
.LVUS28:
	.uleb128 .LVU100
	.uleb128 .LVU103
.LLST28:
	.byte	0x8
	.quad	.LVL32
	.uleb128 .LVL33-.LVL32
	.uleb128 0xa
	.byte	0x3
	.quad	.LC1
	.byte	0x9f
	.byte	0
.LVUS30:
	.uleb128 .LVU129
	.uleb128 .LVU134
.LLST30:
	.byte	0x8
	.quad	.LVL37
	.uleb128 .LVL38-.LVL37
	.uleb128 0x3
	.byte	0x8
	.byte	0x20
	.byte	0x9f
	.byte	0
.LVUS31:
	.uleb128 .LVU129
	.uleb128 .LVU134
.LLST31:
	.byte	0x8
	.quad	.LVL37
	.uleb128 .LVL38-.LVL37
	.uleb128 0x1
	.byte	0x5f
	.byte	0
.LVUS32:
	.uleb128 .LVU129
	.uleb128 .LVU134
.LLST32:
	.byte	0x8
	.quad	.LVL37
	.uleb128 .LVL38-.LVL37
	.uleb128 0x1
	.byte	0x50
	.byte	0
.LVUS34:
	.uleb128 .LVU136
	.uleb128 .LVU140
.LLST34:
	.byte	0x8
	.quad	.LVL38
	.uleb128 .LVL40-.LVL38
	.uleb128 0xa
	.byte	0x3
	.quad	.LC0
	.byte	0x9f
	.byte	0
.LVUS35:
	.uleb128 .LVU136
	.uleb128 .LVU140
.LLST35:
	.byte	0x8
	.quad	.LVL38
	.uleb128 .LVL40-.LVL38
	.uleb128 0x4
	.byte	0xa
	.value	0x100
	.byte	0x9f
	.byte	0
.LVUS36:
	.uleb128 .LVU136
	.uleb128 .LVU140
	.uleb128 .LVU140
	.uleb128 .LVU140
.LLST36:
	.byte	0x6
	.quad	.LVL38
	.byte	0x4
	.uleb128 .LVL38-.LVL38
	.uleb128 .LVL40-1-.LVL38
	.uleb128 0x1
	.byte	0x55
	.byte	0x4
	.uleb128 .LVL40-1-.LVL38
	.uleb128 .LVL40-.LVL38
	.uleb128 0x7
	.byte	0x91
	.sleb128 -496
	.byte	0x6
	.byte	0x23
	.uleb128 0x20
	.byte	0x9f
	.byte	0
.LVUS38:
	.uleb128 .LVU163
	.uleb128 .LVU167
.LLST38:
	.byte	0x8
	.quad	.LVL42
	.uleb128 .LVL44-.LVL42
	.uleb128 0x1
	.byte	0x5d
	.byte	0
.LVUS39:
	.uleb128 .LVU163
	.uleb128 .LVU166
.LLST39:
	.byte	0x8
	.quad	.LVL42
	.uleb128 .LVL43-1-.LVL42
	.uleb128 0x1
	.byte	0x54
	.byte	0
.LVUS40:
	.uleb128 .LVU163
	.uleb128 .LVU166
.LLST40:
	.byte	0x8
	.quad	.LVL42
	.uleb128 .LVL43-1-.LVL42
	.uleb128 0x1
	.byte	0x50
	.byte	0
.Ldebug_loc3:
	.section	.debug_aranges,"",@progbits
	.long	0x4c
	.value	0x2
	.long	.Ldebug_info0
	.byte	0x8
	.byte	0
	.value	0
	.value	0
	.quad	.Ltext0
	.quad	.Letext0-.Ltext0
	.quad	.Ltext_cold0
	.quad	.Letext_cold0-.Ltext_cold0
	.quad	.LFB85
	.quad	.LHOTE7-.LFB85
	.quad	0
	.quad	0
	.section	.debug_rnglists,"",@progbits
.Ldebug_ranges0:
	.long	.Ldebug_ranges3-.Ldebug_ranges2
.Ldebug_ranges2:
	.value	0x5
	.byte	0x8
	.byte	0
	.long	0
.LLRL13:
	.byte	0x5
	.quad	.LBB91
	.byte	0x4
	.uleb128 .LBB91-.LBB91
	.uleb128 .LBE91-.LBB91
	.byte	0x4
	.uleb128 .LBB103-.LBB91
	.uleb128 .LBE103-.LBB91
	.byte	0x4
	.uleb128 .LBB109-.LBB91
	.uleb128 .LBE109-.LBB91
	.byte	0
.LLRL19:
	.byte	0x5
	.quad	.LBB93
	.byte	0x4
	.uleb128 .LBB93-.LBB93
	.uleb128 .LBE93-.LBB93
	.byte	0x4
	.uleb128 .LBB94-.LBB93
	.uleb128 .LBE94-.LBB93
	.byte	0
.LLRL21:
	.byte	0x5
	.quad	.LBB95
	.byte	0x4
	.uleb128 .LBB95-.LBB95
	.uleb128 .LBE95-.LBB95
	.byte	0x4
	.uleb128 .LBB99-.LBB95
	.uleb128 .LBE99-.LBB95
	.byte	0x4
	.uleb128 .LBB100-.LBB95
	.uleb128 .LBE100-.LBB95
	.byte	0
.LLRL29:
	.byte	0x5
	.quad	.LBB110
	.byte	0x4
	.uleb128 .LBB110-.LBB110
	.uleb128 .LBE110-.LBB110
	.byte	0x4
	.uleb128 .LBB116-.LBB110
	.uleb128 .LBE116-.LBB110
	.byte	0
.LLRL33:
	.byte	0x5
	.quad	.LBB113
	.byte	0x4
	.uleb128 .LBB113-.LBB113
	.uleb128 .LBE113-.LBB113
	.byte	0x4
	.uleb128 .LBB117-.LBB113
	.uleb128 .LBE117-.LBB113
	.byte	0
.LLRL37:
	.byte	0x5
	.quad	.LBB118
	.byte	0x4
	.uleb128 .LBB118-.LBB118
	.uleb128 .LBE118-.LBB118
	.byte	0x4
	.uleb128 .LBB121-.LBB118
	.uleb128 .LBE121-.LBB118
	.byte	0
.LLRL45:
	.byte	0x5
	.quad	.LBB170
	.byte	0x4
	.uleb128 .LBB170-.LBB170
	.uleb128 .LBE170-.LBB170
	.byte	0x4
	.uleb128 .LBB246-.LBB170
	.uleb128 .LBE246-.LBB170
	.byte	0x4
	.uleb128 .LBB247-.LBB170
	.uleb128 .LBE247-.LBB170
	.byte	0x4
	.uleb128 .LBB248-.LBB170
	.uleb128 .LBE248-.LBB170
	.byte	0x4
	.uleb128 .LBB259-.LBB170
	.uleb128 .LBE259-.LBB170
	.byte	0
.LLRL46:
	.byte	0x5
	.quad	.LBB171
	.byte	0x4
	.uleb128 .LBB171-.LBB171
	.uleb128 .LBE171-.LBB171
	.byte	0x4
	.uleb128 .LBB174-.LBB171
	.uleb128 .LBE174-.LBB171
	.byte	0
.LLRL48:
	.byte	0x5
	.quad	.LBB175
	.byte	0x4
	.uleb128 .LBB175-.LBB175
	.uleb128 .LBE175-.LBB175
	.byte	0x4
	.uleb128 .LBB242-.LBB175
	.uleb128 .LBE242-.LBB175
	.byte	0
.LLRL56:
	.byte	0x5
	.quad	.LBB177
	.byte	0x4
	.uleb128 .LBB177-.LBB177
	.uleb128 .LBE177-.LBB177
	.byte	0x4
	.uleb128 .LBB181-.LBB177
	.uleb128 .LBE181-.LBB177
	.byte	0
.LLRL59:
	.byte	0x5
	.quad	.LBB183
	.byte	0x4
	.uleb128 .LBB183-.LBB183
	.uleb128 .LBE183-.LBB183
	.byte	0x4
	.uleb128 .LBB243-.LBB183
	.uleb128 .LBE243-.LBB183
	.byte	0x4
	.uleb128 .LBB245-.LBB183
	.uleb128 .LBE245-.LBB183
	.byte	0
.LLRL67:
	.byte	0x5
	.quad	.LBB185
	.byte	0x4
	.uleb128 .LBB185-.LBB185
	.uleb128 .LBE185-.LBB185
	.byte	0x4
	.uleb128 .LBB188-.LBB185
	.uleb128 .LBE188-.LBB185
	.byte	0
.LLRL70:
	.byte	0x5
	.quad	.LBB189
	.byte	0x4
	.uleb128 .LBB189-.LBB189
	.uleb128 .LBE189-.LBB189
	.byte	0x4
	.uleb128 .LBB190-.LBB189
	.uleb128 .LBE190-.LBB189
	.byte	0
.LLRL74:
	.byte	0x5
	.quad	.LBB195
	.byte	0x4
	.uleb128 .LBB195-.LBB195
	.uleb128 .LBE195-.LBB195
	.byte	0x4
	.uleb128 .LBB203-.LBB195
	.uleb128 .LBE203-.LBB195
	.byte	0
.LLRL82:
	.byte	0x5
	.quad	.LBB200
	.byte	0x4
	.uleb128 .LBB200-.LBB200
	.uleb128 .LBE200-.LBB200
	.byte	0x4
	.uleb128 .LBB201-.LBB200
	.uleb128 .LBE201-.LBB200
	.byte	0
.LLRL84:
	.byte	0x5
	.quad	.LBB204
	.byte	0x4
	.uleb128 .LBB204-.LBB204
	.uleb128 .LBE204-.LBB204
	.byte	0x4
	.uleb128 .LBB236-.LBB204
	.uleb128 .LBE236-.LBB204
	.byte	0x4
	.uleb128 .LBB237-.LBB204
	.uleb128 .LBE237-.LBB204
	.byte	0x4
	.uleb128 .LBB241-.LBB204
	.uleb128 .LBE241-.LBB204
	.byte	0x4
	.uleb128 .LBB244-.LBB204
	.uleb128 .LBE244-.LBB204
	.byte	0
.LLRL93:
	.byte	0x5
	.quad	.LBB207
	.byte	0x4
	.uleb128 .LBB207-.LBB207
	.uleb128 .LBE207-.LBB207
	.byte	0x4
	.uleb128 .LBB231-.LBB207
	.uleb128 .LBE231-.LBB207
	.byte	0
.LLRL95:
	.byte	0x5
	.quad	.LBB208
	.byte	0x4
	.uleb128 .LBB208-.LBB208
	.uleb128 .LBE208-.LBB208
	.byte	0x4
	.uleb128 .LBB212-.LBB208
	.uleb128 .LBE212-.LBB208
	.byte	0x4
	.uleb128 .LBB213-.LBB208
	.uleb128 .LBE213-.LBB208
	.byte	0
.LLRL99:
	.byte	0x5
	.quad	.LBB214
	.byte	0x4
	.uleb128 .LBB214-.LBB214
	.uleb128 .LBE214-.LBB214
	.byte	0x4
	.uleb128 .LBB221-.LBB214
	.uleb128 .LBE221-.LBB214
	.byte	0x4
	.uleb128 .LBB222-.LBB214
	.uleb128 .LBE222-.LBB214
	.byte	0
.LLRL103:
	.byte	0x5
	.quad	.LBB218
	.byte	0x4
	.uleb128 .LBB218-.LBB218
	.uleb128 .LBE218-.LBB218
	.byte	0x4
	.uleb128 .LBB223-.LBB218
	.uleb128 .LBE223-.LBB218
	.byte	0
.LLRL107:
	.byte	0x5
	.quad	.LBB224
	.byte	0x4
	.uleb128 .LBB224-.LBB224
	.uleb128 .LBE224-.LBB224
	.byte	0x4
	.uleb128 .LBB227-.LBB224
	.uleb128 .LBE227-.LBB224
	.byte	0
.LLRL122:
	.byte	0x5
	.quad	.LBB255
	.byte	0x4
	.uleb128 .LBB255-.LBB255
	.uleb128 .LBE255-.LBB255
	.byte	0x4
	.uleb128 .LBB258-.LBB255
	.uleb128 .LBE258-.LBB255
	.byte	0
.LLRL125:
	.byte	0x7
	.quad	.LFB85
	.uleb128 .LHOTE7-.LFB85
	.byte	0x7
	.quad	.LFSB85
	.uleb128 .LCOLDE7-.LFSB85
	.byte	0
.LLRL132:
	.byte	0x7
	.quad	.LBB264
	.uleb128 .LBE264-.LBB264
	.byte	0x7
	.quad	.LBB265
	.uleb128 .LBE265-.LBB265
	.byte	0
.LLRL135:
	.byte	0x7
	.quad	.Ltext0
	.uleb128 .Letext0-.Ltext0
	.byte	0x7
	.quad	.Ltext_cold0
	.uleb128 .Letext_cold0-.Ltext_cold0
	.byte	0x7
	.quad	.LFB85
	.uleb128 .LHOTE7-.LFB85
	.byte	0
.Ldebug_ranges3:
	.section	.debug_line,"",@progbits
.Ldebug_line0:
	.section	.debug_str,"MS",@progbits,1
.LASF60:
	.string	"MSG_LIST_FILES"
.LASF13:
	.string	"__off_t"
.LASF167:
	.string	"count"
.LASF24:
	.string	"_IO_read_ptr"
.LASF36:
	.string	"_chain"
.LASF140:
	.string	"msg_send"
.LASF20:
	.string	"size_t"
.LASF109:
	.string	"next"
.LASF19:
	.string	"uint64_t"
.LASF78:
	.string	"__prev"
.LASF92:
	.string	"__align"
.LASF42:
	.string	"_shortbuf"
.LASF144:
	.string	"close"
.LASF178:
	.string	"send_status"
.LASF8:
	.string	"__uint8_t"
.LASF66:
	.string	"MSG_UNREGISTER"
.LASF91:
	.string	"__size"
.LASF158:
	.string	"type"
.LASF203:
	.string	"done"
.LASF74:
	.string	"MSG_ERROR"
.LASF126:
	.string	"buf_put_bytes"
.LASF105:
	.string	"__sighandler_t"
.LASF75:
	.string	"long long unsigned int"
.LASF177:
	.string	"exist"
.LASF175:
	.string	"out_peer_id"
.LASF79:
	.string	"__next"
.LASF187:
	.string	"__src"
.LASF122:
	.string	"client_ctx_t"
.LASF110:
	.string	"peer_entry_t"
.LASF127:
	.string	"buf_put_u32"
.LASF132:
	.string	"buf_get_u64"
.LASF143:
	.string	"free"
.LASF160:
	.string	"plen"
.LASF45:
	.string	"_codecvt"
.LASF38:
	.string	"_flags2"
.LASF139:
	.string	"pthread_mutex_lock"
.LASF67:
	.string	"MSG_PING"
.LASF93:
	.string	"pthread_attr_t"
.LASF21:
	.string	"long long int"
.LASF6:
	.string	"signed char"
.LASF181:
	.string	"dead"
.LASF171:
	.string	"fsize"
.LASF37:
	.string	"_fileno"
.LASF99:
	.string	"PTHREAD_MUTEX_ADAPTIVE_NP"
.LASF111:
	.string	"file_entry"
.LASF25:
	.string	"_IO_read_end"
.LASF120:
	.string	"lock"
.LASF11:
	.string	"long int"
.LASF184:
	.string	"strtol"
.LASF23:
	.string	"_flags"
.LASF196:
	.string	"__builtin_snprintf"
.LASF46:
	.string	"_wide_data"
.LASF156:
	.string	"registered"
.LASF40:
	.string	"_cur_column"
.LASF54:
	.string	"_IO_codecvt"
.LASF166:
	.string	"handle_list_files"
.LASF17:
	.string	"uint16_t"
.LASF174:
	.string	"handle_register"
.LASF28:
	.string	"_IO_write_ptr"
.LASF58:
	.string	"MSG_ANNOUNCE"
.LASF39:
	.string	"_old_offset"
.LASF44:
	.string	"_offset"
.LASF80:
	.string	"__pthread_list_t"
.LASF161:
	.string	"fhash"
.LASF81:
	.string	"__pthread_mutex_s"
.LASF22:
	.string	"long double"
.LASF136:
	.string	"buf_get_bytes"
.LASF202:
	.string	"client_thread"
.LASF10:
	.string	"__uint32_t"
.LASF172:
	.string	"csize"
.LASF200:
	.string	"__isoc23_strtol"
.LASF164:
	.string	"handle_get_peers"
.LASF165:
	.string	"zero"
.LASF168:
	.string	"client_ip"
.LASF53:
	.string	"_IO_marker"
.LASF102:
	.string	"PTHREAD_MUTEX_ERRORCHECK"
.LASF4:
	.string	"unsigned int"
.LASF48:
	.string	"_freeres_buf"
.LASF107:
	.string	"peer_id"
.LASF191:
	.string	"fprintf"
.LASF170:
	.string	"nlen"
.LASF192:
	.string	"__stream"
.LASF5:
	.string	"long unsigned int"
.LASF86:
	.string	"__kind"
.LASF94:
	.string	"__data"
.LASF162:
	.string	"absent"
.LASF72:
	.string	"MSG_CHUNK_DATA"
.LASF173:
	.string	"ccnt"
.LASF146:
	.string	"malloc"
.LASF3:
	.string	"short unsigned int"
.LASF41:
	.string	"_vtable_offset"
.LASF108:
	.string	"port"
.LASF32:
	.string	"_IO_save_base"
.LASF176:
	.string	"out_listen_port"
.LASF106:
	.string	"peer_entry"
.LASF43:
	.string	"_lock"
.LASF50:
	.string	"_mode"
.LASF71:
	.string	"MSG_GET_CHUNK"
.LASF135:
	.string	"buf_get_u16"
.LASF61:
	.string	"MSG_LIST_FILES_RESP"
.LASF69:
	.string	"MSG_GET_HAVE"
.LASF84:
	.string	"__owner"
.LASF205:
	.string	"find_file_locked"
.LASF129:
	.string	"strlen"
.LASF148:
	.string	"perror"
.LASF100:
	.string	"PTHREAD_MUTEX_NORMAL"
.LASF155:
	.string	"cport"
.LASF198:
	.string	"GNU C17 13.3.0 -mtune=generic -march=x86-64 -g -O2 -fasynchronous-unwind-tables -fstack-protector-strong -fstack-clash-protection -fcf-protection"
.LASF204:
	.string	"handle_announce"
.LASF124:
	.string	"buf_put_u64"
.LASF113:
	.string	"filename"
.LASF70:
	.string	"MSG_HAVE_CHUNKS"
.LASF159:
	.string	"payload"
.LASF29:
	.string	"_IO_write_end"
.LASF186:
	.string	"__dest"
.LASF197:
	.string	"__builtin___memcpy_chk"
.LASF199:
	.string	"_IO_lock_t"
.LASF76:
	.string	"_IO_FILE"
.LASF195:
	.string	"__memcpy_chk"
.LASF97:
	.string	"PTHREAD_MUTEX_RECURSIVE_NP"
.LASF190:
	.string	"__nptr"
.LASF77:
	.string	"__pthread_internal_list"
.LASF12:
	.string	"__uint64_t"
.LASF104:
	.string	"PTHREAD_MUTEX_FAST_NP"
.LASF65:
	.string	"MSG_GET_FILE_INFO_RESP"
.LASF35:
	.string	"_markers"
.LASF57:
	.string	"MSG_REGISTER_ACK"
.LASF98:
	.string	"PTHREAD_MUTEX_ERRORCHECK_NP"
.LASF90:
	.string	"pthread_t"
.LASF189:
	.string	"atoi"
.LASF2:
	.string	"unsigned char"
.LASF130:
	.string	"hash_to_hex"
.LASF119:
	.string	"file_entry_t"
.LASF31:
	.string	"_IO_buf_end"
.LASF137:
	.string	"ip_to_str"
.LASF7:
	.string	"short int"
.LASF56:
	.string	"MSG_REGISTER"
.LASF147:
	.string	"tcp_accept"
.LASF51:
	.string	"_unused2"
.LASF182:
	.string	"add_peer_to_file_locked"
.LASF188:
	.string	"__len"
.LASF63:
	.string	"MSG_GET_PEERS_RESP"
.LASF62:
	.string	"MSG_GET_PEERS"
.LASF118:
	.string	"peers"
.LASF64:
	.string	"MSG_GET_FILE_INFO"
.LASF128:
	.string	"__fprintf_chk"
.LASF133:
	.string	"calloc"
.LASF206:
	.string	"__stack_chk_fail"
.LASF131:
	.string	"buf_get_u32"
.LASF141:
	.string	"msg_recv"
.LASF123:
	.string	"buf_put_u8"
.LASF83:
	.string	"__count"
.LASF82:
	.string	"__lock"
.LASF18:
	.string	"uint32_t"
.LASF112:
	.string	"file_hash"
.LASF151:
	.string	"signal"
.LASF169:
	.string	"client_port"
.LASF68:
	.string	"MSG_PONG"
.LASF73:
	.string	"MSG_CHUNK_NOT_FOUND"
.LASF15:
	.string	"char"
.LASF149:
	.string	"tcp_listen"
.LASF59:
	.string	"MSG_ANNOUNCE_ACK"
.LASF9:
	.string	"__uint16_t"
.LASF88:
	.string	"__elision"
.LASF134:
	.string	"memcmp"
.LASF14:
	.string	"__off64_t"
.LASF26:
	.string	"_IO_read_base"
.LASF185:
	.string	"memcpy"
.LASF34:
	.string	"_IO_save_end"
.LASF183:
	.string	"hash"
.LASF193:
	.string	"__fmt"
.LASF117:
	.string	"chunk_hashes"
.LASF95:
	.string	"pthread_mutex_t"
.LASF87:
	.string	"__spins"
.LASF49:
	.string	"__pad5"
.LASF194:
	.string	"snprintf"
.LASF125:
	.string	"buf_put_u16"
.LASF154:
	.string	"stderr"
.LASF153:
	.string	"argv"
.LASF179:
	.string	"status"
.LASF115:
	.string	"chunk_size"
.LASF145:
	.string	"pthread_create"
.LASF163:
	.string	"handle_get_file_info"
.LASF116:
	.string	"chunk_count"
.LASF103:
	.string	"PTHREAD_MUTEX_DEFAULT"
.LASF16:
	.string	"uint8_t"
.LASF85:
	.string	"__nusers"
.LASF33:
	.string	"_IO_backup_base"
.LASF101:
	.string	"PTHREAD_MUTEX_RECURSIVE"
.LASF96:
	.string	"PTHREAD_MUTEX_TIMED_NP"
.LASF150:
	.string	"setvbuf"
.LASF152:
	.string	"argc"
.LASF47:
	.string	"_freeres_list"
.LASF89:
	.string	"__list"
.LASF55:
	.string	"_IO_wide_data"
.LASF142:
	.string	"pthread_detach"
.LASF52:
	.string	"FILE"
.LASF180:
	.string	"remove_peer_everywhere_locked"
.LASF138:
	.string	"pthread_mutex_unlock"
.LASF157:
	.string	"listen_port"
.LASF201:
	.string	"main"
.LASF27:
	.string	"_IO_write_base"
.LASF30:
	.string	"_IO_buf_base"
.LASF121:
	.string	"files"
.LASF114:
	.string	"file_size"
	.section	.debug_line_str,"MS",@progbits,1
.LASF0:
	.string	"tracker.c"
.LASF1:
	.string	"/home/dev/Project/socket"
	.ident	"GCC: (Ubuntu 13.3.0-6ubuntu2~24.04.1) 13.3.0"
	.section	.note.GNU-stack,"",@progbits
	.section	.note.gnu.property,"a"
	.align 8
	.long	1f - 0f
	.long	4f - 1f
	.long	5
0:
	.string	"GNU"
1:
	.align 8
	.long	0xc0000002
	.long	3f - 2f
2:
	.long	0x3
3:
	.align 8
4:
